 PhysXCommon_64

 Timestamp is 65980030 (Fri Jan  5 14:12:16 2024)

 Preferred load address is 0000000180000000

 Start         Length     Name                   Class
 0001:00000000 00003530H .text$di                CODE
 0001:00003530 001d77d0H .text$mn                CODE
 0001:001dad00 00000040H .text$mn$00             CODE
 0001:001dad40 00000680H .text$x                 CODE
 0001:001db3c0 0000000fH .text$yd                CODE
 0002:00000000 00000280H .idata$5                DATA
 0002:00000280 00000038H .00cfg                  DATA
 0002:000002b8 00000008H .CRT$XCA                DATA
 0002:000002c0 000019d0H .CRT$XCU                DATA
 0002:00001c90 00000008H .CRT$XCZ                DATA
 0002:00001c98 00000008H .CRT$XIA                DATA
 0002:00001ca0 00000018H .CRT$XIC                DATA
 0002:00001cb8 00000008H .CRT$XIZ                DATA
 0002:00001cc0 00000008H .CRT$XPA                DATA
 0002:00001cc8 00000010H .CRT$XPX                DATA
 0002:00001cd8 00000008H .CRT$XPXA               DATA
 0002:00001ce0 00000008H .CRT$XPZ                DATA
 0002:00001ce8 00000008H .CRT$XTA                DATA
 0002:00001cf0 00000010H .CRT$XTZ                DATA
 0002:00001cf8 00000000H .gehcont$y              DATA
 0002:00001cf8 00000000H .gfids$y                DATA
 0002:00001d00 00013300H .rdata                  DATA
 0002:00015000 00000000H .rdata$CastGuardVftablesA DATA
 0002:00015000 00000000H .rdata$CastGuardVftablesC DATA
 0002:00015000 0000043cH .rdata$r                DATA
 0002:0001543c 0000022cH .rdata$voltmd           DATA
 0002:00015668 00000458H .rdata$zzzdbg           DATA
 0002:00015ac0 00000008H .rtc$IAA                DATA
 0002:00015ac8 00000008H .rtc$IZZ                DATA
 0002:00015ad0 00000008H .rtc$TAA                DATA
 0002:00015ad8 00000008H .rtc$TZZ                DATA
 0002:00015ae0 00015250H .xdata                  DATA
 0002:0002ad30 00000084H .xdata$x                DATA
 0002:0002adb4 00000020H .didat$2                DATA
 0002:0002add4 00000024H .didat$3                DATA
 0002:0002adf8 000000d0H .didat$4                DATA
 0002:0002aec8 00000430H .didat$6                DATA
 0002:0002b2f8 000000d8H .didat$7                DATA
 0002:0002b3d0 0000c6acH .edata                  DATA
 0002:00037a7c 00000014H .idata$2                DATA
 0002:00037a90 00000018H .idata$3                DATA
 0002:00037aa8 00000280H .idata$4                DATA
 0002:00037d28 000005beH .idata$6                DATA
 0003:00000000 00001c40H .data                   DATA
 0003:00001c40 000011d8H .data$r                 DATA
 0003:00002e18 000000f0H .data$rs                DATA
 0003:00002f08 000000d8H .didat$5                DATA
 0003:00002fe0 0000461cH .bss                    DATA
 0004:00000000 0000c7ecH .pdata                  DATA
 0005:00000000 0000236cH _RDATA                  DATA
 0006:00000000 000000a0H .rsrc$01                DATA
 0006:000000a0 000004b0H .rsrc$02                DATA

  Address         Publics by Value              Rva+Base               Lib:Object

 0000:00000000       __AbsoluteZero             0000000000000000     <absolute>
 0000:00000000       ___safe_se_handler_count   0000000000000000     <absolute>
 0000:00000000       ___safe_se_handler_table   0000000000000000     <absolute>
 0000:00000000       __arm64x_extra_rfe_table   0000000000000000     <absolute>
 0000:00000000       __arm64x_extra_rfe_table_size 0000000000000000     <absolute>
 0000:00000000       __arm64x_native_entrypoint 0000000000000000     <absolute>
 0000:00000000       __arm64x_redirection_metadata 0000000000000000     <absolute>
 0000:00000000       __arm64x_redirection_metadata_count 0000000000000000     <absolute>
 0000:00000000       __dynamic_value_reloc_table 0000000000000000     <absolute>
 0000:00000000       __enclave_config           0000000000000000     <absolute>
 0000:00000000       __guard_check_icall_a64n_fptr 0000000000000000     <absolute>
 0000:00000000       __guard_eh_cont_count      0000000000000000     <absolute>
 0000:00000000       __guard_eh_cont_table      0000000000000000     <absolute>
 0000:00000000       __guard_fids_count         0000000000000000     <absolute>
 0000:00000000       __guard_fids_table         0000000000000000     <absolute>
 0000:00000000       __guard_iat_count          0000000000000000     <absolute>
 0000:00000000       __guard_iat_table          0000000000000000     <absolute>
 0000:00000000       __guard_longjmp_count      0000000000000000     <absolute>
 0000:00000000       __guard_longjmp_table      0000000000000000     <absolute>
 0000:00000000       __hybrid_auxiliary_delayload_iat 0000000000000000     <absolute>
 0000:00000000       __hybrid_auxiliary_delayload_iat_copy 0000000000000000     <absolute>
 0000:00000000       __hybrid_auxiliary_iat     0000000000000000     <absolute>
 0000:00000000       __hybrid_auxiliary_iat_copy 0000000000000000     <absolute>
 0000:00000000       __hybrid_code_map          0000000000000000     <absolute>
 0000:00000000       __hybrid_code_map_count    0000000000000000     <absolute>
 0000:00000000       __hybrid_image_info_bitfield 0000000000000000     <absolute>
 0000:00000000       __x64_code_ranges_to_entry_points 0000000000000000     <absolute>
 0000:00000000       __x64_code_ranges_to_entry_points_count 0000000000000000     <absolute>
 0000:00000100       __guard_flags              0000000000000100     <absolute>
 0000:00000000       __ImageBase                0000000180000000     <linker-defined>
 0001:00003530       ??0PtrTable@Cm@physx@@QEAA@W4PxEMPTY@2@@Z 0000000180004530 f i CmPtrTable.obj
 0001:00003550       ??0PtrTable@Cm@physx@@QEAA@XZ 0000000180004550 f   CmPtrTable.obj
 0001:00003560       ??1AABBTreeBuildNode@Gu@physx@@QEAA@XZ 0000000180004560 f   GuMeshFactory.obj
 0001:00003560       ??1BigConvexDataBuilder@physx@@QEAA@XZ 0000000180004560 f   GuCookingBigConvexDataBuilder.obj
 0001:00003560       ??1Box@Gu@physx@@QEAA@XZ   0000000180004560 f   GuBox.obj
 0001:00003560       ??1HeightFieldData@Gu@physx@@QEAA@XZ 0000000180004560 f   GuCCTSweepTests.obj
 0001:00003560       ??1PtrTable@Cm@physx@@QEAA@XZ 0000000180004560 f   CmPtrTable.obj
 0001:00003560       ?build@CompanionPrunerIncremental@@UEAAXXZ 0000000180004560 f   GuSecondaryPruner.obj
 0001:00003560       ?checkTreeLeaf@IncrementalAABBTree@Gu@physx@@QEAAXPEAVIncrementalAABBTreeNode@23@I@Z 0000000180004560 f   GuIncrementalAABBTree.obj
 0001:00003560       ?execute@?$PxThreadT@V?$PxReflectionAllocator@VPxThreadImpl@physx@@@physx@@@physx@@UEAAXXZ 0000000180004560 f   GuSDF.obj
 0001:00003560       ?execute@PxRunnable@physx@@UEAAXXZ 0000000180004560 f   GuSDF.obj
 0001:00003560       ?merge@BucketPruner@Gu@physx@@UEAAXPEBX@Z 0000000180004560 f   GuBucketPruner.obj
 0001:00003560       ?merge@IncrementalAABBPruner@Gu@physx@@UEAAXPEBX@Z 0000000180004560 f   GuIncrementalAABBPruner.obj
 0001:00003560       ?onMeshIndexFormatChange@TriangleMeshBuilder@physx@@UEAAXXZ 0000000180004560 f   GuCookingTriangleMesh.obj
 0001:00003560       ?profile@Callback@RTree@Gu@physx@@UEAAXXZ 0000000180004560 f   GuMidphaseRTree.obj
 0001:00003560       ?purge@BucketPruner@Gu@physx@@UEAAXXZ 0000000180004560 f   GuBucketPruner.obj
 0001:00003560       ?requiresObjects@ConvexMesh@Gu@physx@@UEAAXAEAVPxProcessPxBaseCallback@3@@Z 0000000180004560 f   GuConvexMesh.obj
 0001:00003560       ?requiresObjects@HeightField@Gu@physx@@UEAAXAEAVPxProcessPxBaseCallback@3@@Z 0000000180004560 f   GuHeightField.obj
 0001:00003560       ?requiresObjects@SoftBodyMesh@Gu@physx@@UEAAXAEAVPxProcessPxBaseCallback@3@@Z 0000000180004560 f   GuTetrahedronMesh.obj
 0001:00003560       ?requiresObjects@TriangleMesh@Gu@physx@@UEAAXAEAVPxProcessPxBaseCallback@3@@Z 0000000180004560 f   GuTriangleMesh.obj
 0001:00003560       ?swapIndex@CompanionPrunerAABBTree@@UEAAXII@Z 0000000180004560 f   GuSecondaryPruner.obj
 0001:00003560       ?swapIndex@CompanionPrunerBucket@@UEAAXII@Z 0000000180004560 f   GuSecondaryPruner.obj
 0001:00003560       ?timeStampChange@CompanionPrunerAABBTree@@UEAAXXZ 0000000180004560 f   GuSecondaryPruner.obj
 0001:00003560       ?timeStampChange@CompanionPrunerBucket@@UEAAXXZ 0000000180004560 f   GuSecondaryPruner.obj
 0001:00003560       ?visualize@BasePruner@Gu@physx@@UEBAXAEAVPxRenderOutput@3@II@Z 0000000180004560 f   GuIncrementalAABBPruner.obj
 0001:00003560       _guard_check_icall_nop     0000000180004560 f   LIBCMT:guard_support.obj
 0001:00003570       ??4AABBTreeBounds@Gu@physx@@QEAAAEAV012@AEBV012@@Z 0000000180004570 f i GuMeshFactory.obj
 0001:00003570       ??4CmModuleUpdateLoader@Cm@physx@@QEAAAEAV012@AEBV012@@Z 0000000180004570 f i CmWindowsModuleUpdateLoader.obj
 0001:00003570       ??4PtrTable@Cm@physx@@QEAAAEAU012@AEBU012@@Z 0000000180004570 f i CmPtrTable.obj
 0001:00003580       ?add@PtrTable@Cm@physx@@QEAAXPEAXAEAVPtrTableStorageManager@23@@Z 0000000180004580 f   CmPtrTable.obj
 0001:00003690       ?clear@PtrTable@Cm@physx@@QEAAXAEAVPtrTableStorageManager@23@@Z 0000000180004690 f   CmPtrTable.obj
 0001:00003700       ?exportExtraData@PtrTable@Cm@physx@@QEAAXAEAVPxSerializationContext@3@@Z 0000000180004700 f   CmPtrTable.obj
 0001:00003750       ?find@PtrTable@Cm@physx@@QEBAIPEBX@Z 0000000180004750 f   CmPtrTable.obj
 0001:00003780       ?getBinaryMetaData@PtrTable@Cm@physx@@SAXAEAVPxOutputStream@3@@Z 0000000180004780 f   CmPtrTable.obj
 0001:00003970       ?getCount@PtrTable@Cm@physx@@QEBAIXZ 0000000180004970 f i CmPtrTable.obj
 0001:00003980       ?getPtrs@PtrTable@Cm@physx@@QEAAPEAPEAXXZ 0000000180004980 f i CmPtrTable.obj
 0001:00003980       ?getPtrs@PtrTable@Cm@physx@@QEBAPEBQEAXXZ 0000000180004980 f i CmPtrTable.obj
 0001:00003990       ?importExtraData@PtrTable@Cm@physx@@QEAAXAEAVPxDeserializationContext@3@@Z 0000000180004990 f   CmPtrTable.obj
 0001:000039c0       ?realloc@PtrTable@Cm@physx@@AEAAXIIAEAVPtrTableStorageManager@23@@Z 00000001800049c0 f   CmPtrTable.obj
 0001:00003a50       ?replaceWithLast@PtrTable@Cm@physx@@QEAAXIAEAVPtrTableStorageManager@23@@Z 0000000180004a50 f   CmPtrTable.obj
 0001:00003b50       ??_ECollection@Cm@physx@@UEAAPEAXI@Z 0000000180004b50 f i CmCollection.obj
 0001:00003b50       ??_GCollection@Cm@physx@@UEAAPEAXI@Z 0000000180004b50 f i CmCollection.obj
 0001:00003c00       ??_EPxCollection@physx@@MEAAPEAXI@Z 0000000180004c00 f i CmCollection.obj
 0001:00003c00       ??_GPxCollection@physx@@MEAAPEAXI@Z 0000000180004c00 f i CmCollection.obj
 0001:00003c30       ?add@Collection@Cm@physx@@UEAAXAEAVPxBase@3@_K@Z 0000000180004c30 f   CmCollection.obj
 0001:00003d20       ?add@Collection@Cm@physx@@UEAAXAEAVPxCollection@3@@Z 0000000180004d20 f   CmCollection.obj
 0001:00003f40       ?addId@Collection@Cm@physx@@UEAAXAEAVPxBase@3@_K@Z 0000000180004f40 f   CmCollection.obj
 0001:00004080       ?contains@Collection@Cm@physx@@UEBA_NAEAVPxBase@3@@Z 0000000180005080 f   CmCollection.obj
 0001:00004130       ?create@?$PxHashBase@V?$PxPair@$$CB_KPEAVPxBase@physx@@@physx@@_KU?$PxHash@_K@2@UGetKey@?$PxHashMapBase@_KPEAVPxBase@physx@@U?$PxHash@_K@2@VPxAllocator@2@@2@VPxAllocator@2@$00@physx@@QEAAPEAV?$PxPair@$$CB_KPEAVPxBase@physx@@@2@AEB_KAEA_N@Z 0000000180005130 f i CmCollection.obj
 0001:00004130       ?create@?$PxHashBase@V?$PxPair@QEAVPxBase@physx@@_K@physx@@PEAVPxBase@2@U?$PxHash@PEAVPxBase@physx@@@2@UGetKey@?$PxHashMapBase@PEAVPxBase@physx@@_KU?$PxHash@PEAVPxBase@physx@@@2@VPxAllocator@2@@2@VPxAllocator@2@$00@physx@@QEAAPEAV?$PxPair@QEAVPxBase@physx@@_K@2@AEBQEAVPxBase@2@AEA_N@Z 0000000180005130 f i CmCollection.obj
 0001:000042c0       ?erase@?$PxHashBase@V?$PxPair@$$CB_KPEAVPxBase@physx@@@physx@@_KU?$PxHash@_K@2@UGetKey@?$PxHashMapBase@_KPEAVPxBase@physx@@U?$PxHash@_K@2@VPxAllocator@2@@2@VPxAllocator@2@$00@physx@@QEAA_NAEB_K@Z 00000001800052c0 f i CmCollection.obj
 0001:000042c0       ?erase@?$PxHashBase@V?$PxPair@QEAVPxBase@physx@@_K@physx@@PEAVPxBase@2@U?$PxHash@PEAVPxBase@physx@@@2@UGetKey@?$PxHashMapBase@PEAVPxBase@physx@@_KU?$PxHash@PEAVPxBase@physx@@@2@VPxAllocator@2@@2@VPxAllocator@2@$00@physx@@QEAA_NAEBQEAVPxBase@2@@Z 00000001800052c0 f i CmCollection.obj
 0001:00004470       ?find@?$PxHashMapBase@PEAVPxBase@physx@@_KU?$PxHash@PEAVPxBase@physx@@@2@VPxAllocator@2@@physx@@QEBAPEBV?$PxPair@QEAVPxBase@physx@@_K@2@AEBQEAVPxBase@2@@Z 0000000180005470 f i CmCollection.obj
 0001:00004470       ?find@?$PxHashMapBase@_KPEAVPxBase@physx@@U?$PxHash@_K@2@VPxAllocator@2@@physx@@QEBAPEBV?$PxPair@$$CB_KPEAVPxBase@physx@@@2@AEB_K@Z 0000000180005470 f i CmCollection.obj
 0001:00004510       ?find@Collection@Cm@physx@@UEBAPEAVPxBase@3@_K@Z 0000000180005510 f   CmCollection.obj
 0001:00004570       ?getId@Collection@Cm@physx@@UEBA_KAEBVPxBase@3@@Z 0000000180005570 f   CmCollection.obj
 0001:00004620       ?getIds@Collection@Cm@physx@@UEBAIPEA_KII@Z 0000000180005620 f   CmCollection.obj
 0001:00004740       ?getNbIds@Collection@Cm@physx@@UEBAIXZ 0000000180005740 f   CmCollection.obj
 0001:00004750       ?getNbObjects@Collection@Cm@physx@@UEBAIXZ 0000000180005750 f   CmCollection.obj
 0001:00004760       ?getObject@Collection@Cm@physx@@UEBAAEAVPxBase@3@I@Z 0000000180005760 f   CmCollection.obj
 0001:00004770       ?getObjects@Collection@Cm@physx@@UEBAIPEAPEAVPxBase@3@II@Z 0000000180005770 f   CmCollection.obj
 0001:00004810       ?insert@?$PxHashMapBase@_KPEAVPxBase@physx@@U?$PxHash@_K@2@VPxAllocator@2@@physx@@QEAA_N_KQEAVPxBase@2@@Z 0000000180005810 f i CmCollection.obj
 0001:00004860       ?release@Collection@Cm@physx@@UEAAXXZ 0000000180005860 f i CmCollection.obj
 0001:00004880       ?remove@Collection@Cm@physx@@UEAAXAEAVPxBase@3@@Z 0000000180005880 f   CmCollection.obj
 0001:000049c0       ?remove@Collection@Cm@physx@@UEAAXAEAVPxCollection@3@@Z 00000001800059c0 f   CmCollection.obj
 0001:00004b20       ?removeId@Collection@Cm@physx@@UEAAX_K@Z 0000000180005b20 f   CmCollection.obj
 0001:00004c10       ?reserveInternal@?$PxHashBase@V?$PxPair@$$CB_KPEAVPxBase@physx@@@physx@@_KU?$PxHash@_K@2@UGetKey@?$PxHashMapBase@_KPEAVPxBase@physx@@U?$PxHash@_K@2@VPxAllocator@2@@2@VPxAllocator@2@$00@physx@@AEAAXI@Z 0000000180005c10 f i CmCollection.obj
 0001:00004c10       ?reserveInternal@?$PxHashBase@V?$PxPair@QEAVPxBase@physx@@_K@physx@@PEAVPxBase@2@U?$PxHash@PEAVPxBase@physx@@@2@UGetKey@?$PxHashMapBase@PEAVPxBase@physx@@_KU?$PxHash@PEAVPxBase@physx@@@2@VPxAllocator@2@@2@VPxAllocator@2@$00@physx@@AEAAXI@Z 0000000180005c10 f i CmCollection.obj
 0001:00004df0       PxCreateCollection         0000000180005df0 f   CmCollection.obj
 0001:00004ee0       ??0RadixSort@Cm@physx@@QEAA@XZ 0000000180005ee0 f   CmRadixSort.obj
 0001:00004f10       ??0RadixSortBuffered@Cm@physx@@QEAA@XZ 0000000180005f10 f   CmRadixSort.obj
 0001:00004f40       ??1RadixSort@Cm@physx@@UEAA@XZ 0000000180005f40 f   CmRadixSort.obj
 0001:00004f50       ??1RadixSortBuffered@Cm@physx@@UEAA@XZ 0000000180005f50 f   CmRadixSort.obj
 0001:00004f80       ??_ERadixSort@Cm@physx@@UEAAPEAXI@Z 0000000180005f80 f i CmRadixSort.obj
 0001:00005010       ??_ERadixSortBuffered@Cm@physx@@UEAAPEAXI@Z 0000000180006010 f i CmRadixSort.obj
 0001:00005100       ?CheckResize@RadixSortBuffered@Cm@physx@@AEAAXI@Z 0000000180006100 f i CmRadixSort.obj
 0001:00005140       ?GetNbHits@RadixSort@Cm@physx@@QEBAIXZ 0000000180006140 f i CmRadixSort.obj
 0001:00005150       ?GetNbTotalCalls@RadixSort@Cm@physx@@QEBAIXZ 0000000180006150 f i CmRadixSort.obj
 0001:00005160       ?GetRanks@RadixSort@Cm@physx@@QEBAPEBIXZ 0000000180006160 f i CmRadixSort.obj
 0001:00005160       ?getGridModelInvMass@SoftBodyAuxData@Gu@physx@@UEAAPEAMXZ 0000000180006160 f i GuTetrahedronMesh.obj
 0001:00005160       ?getHeightField@HeightFieldUtil@Gu@physx@@QEBAAEBVHeightField@23@XZ 0000000180006160 f i GuCCTSweepTests.obj
 0001:00005160       ?getSimulationMesh@SoftBodyMesh@Gu@physx@@UEAAPEAVPxTetrahedronMesh@3@XZ 0000000180006160 f i GuTetrahedronMesh.obj
 0001:00005160       ?getSimulationMesh@SoftBodyMesh@Gu@physx@@UEBAPEBVPxTetrahedronMesh@3@XZ 0000000180006160 f i GuTetrahedronMesh.obj
 0001:00005170       ?GetRecyclable@RadixSort@Cm@physx@@QEBAPEAIXZ 0000000180006170 f i CmRadixSort.obj
 0001:00005170       ?GetValencies@BigConvexData@physx@@QEBAPEBUValency@Gu@2@XZ 0000000180006170 f i GuMetaData.obj
 0001:00005170       ?getCollisionMesh@SoftBodyMesh@Gu@physx@@UEAAPEAVPxTetrahedronMesh@3@XZ 0000000180006170 f i GuTetrahedronMesh.obj
 0001:00005170       ?getCollisionMesh@SoftBodyMesh@Gu@physx@@UEBAPEBVPxTetrahedronMesh@3@XZ 0000000180006170 f i GuTetrahedronMesh.obj
 0001:00005170       ?getHeightFieldGeometry@HeightFieldUtil@Gu@physx@@QEBAAEBVPxHeightFieldGeometry@3@XZ 0000000180006170 f i GuCCTSweepTests.obj
 0001:00005170       ?getObjects@PruningPool@Gu@physx@@QEBAPEAUPrunerPayload@23@XZ 0000000180006170 f i GuIncrementalAABBPrunerCore.obj
 0001:00005170       ?getPos@AABBTreeBuildNode@Gu@physx@@QEBAPEBV123@XZ 0000000180006170 f i GuMeshFactory.obj
 0001:00005170       ?getVertices@TetrahedronMesh@Gu@physx@@UEBAPEBV?$PxVec3T@M@3@XZ 0000000180006170 f i GuTetrahedronMesh.obj
 0001:00005170       ?getVertices@TriangleMesh@Gu@physx@@UEBAPEBV?$PxVec3T@M@3@XZ 0000000180006170 f i GuTriangleMesh.obj
 0001:00005180       ?Resize@RadixSortBuffered@Cm@physx@@AEAA_NI@Z 0000000180006180 f   CmRadixSort.obj
 0001:00005280       ?SetBuffers@RadixSort@Cm@physx@@QEAA_NPEAI00PEAPEAI@Z 0000000180006280 f   CmRadixSort.obj
 0001:000052c0       ?Sort@RadixSort@Cm@physx@@QEAAAEAV123@PEBIIW4RadixHint@23@@Z 00000001800062c0 f   CmRadixSort.obj
 0001:00005970       ?Sort@RadixSort@Cm@physx@@QEAAAEAV123@PEBMI@Z 0000000180006970 f   CmRadixSort.obj
 0001:00006110       ?Sort@RadixSortBuffered@Cm@physx@@QEAAAEAV123@PEBIIW4RadixHint@23@@Z 0000000180007110 f   CmRadixSort.obj
 0001:000061b0       ?Sort@RadixSortBuffered@Cm@physx@@QEAAAEAV123@PEBMI@Z 00000001800071b0 f   CmRadixSort.obj
 0001:00006240       ?invalidateRanks@RadixSort@Cm@physx@@QEAAXXZ 0000000180007240 f i CmRadixSort.obj
 0001:00006250       ?reset@RadixSortBuffered@Cm@physx@@QEAAXXZ 0000000180007250 f   CmRadixSort.obj
 0001:000062d0       ?ReadHeader@Cm@physx@@YA_NEEEEAEAIAEA_NAEAVPxInputStream@2@@Z 00000001800072d0 f   CmSerialize.obj
 0001:00006430       ?ReadIndices@Cm@physx@@YAXGIPEAGAEAVPxInputStream@2@_N@Z 0000000180007430 f   CmSerialize.obj
 0001:000065c0       ?StoreIndices@Cm@physx@@YAXGIPEBGAEAVPxOutputStream@2@_N@Z 00000001800075c0 f   CmSerialize.obj
 0001:000066b0       ?WriteHeader@Cm@physx@@YA_NEEEEI_NAEAVPxOutputStream@2@@Z 00000001800076b0 f   CmSerialize.obj
 0001:000067e0       ?computeMaxIndex@physx@@YAGPEBGI@Z 00000001800077e0 f   CmSerialize.obj
 0001:00006810       ?computeMaxIndex@physx@@YAIPEBII@Z 0000000180007810 f   CmSerialize.obj
 0001:00006840       ?readByteBuffer@physx@@YAXPEAEIAEAVPxInputStream@1@@Z 0000000180007840 f   CmSerialize.obj
 0001:00006840       ?writeByteBuffer@physx@@YAXPEBEIAEAVPxOutputStream@1@@Z 0000000180007840 f   CmSerialize.obj
 0001:00006860       ?readChunk@physx@@YAXAEAC000AEAVPxInputStream@1@@Z 0000000180007860 f   CmSerialize.obj
 0001:000068e0       ?readDword@physx@@YAI_NAEAVPxInputStream@1@@Z 00000001800078e0 f   CmSerialize.obj
 0001:00006940       ?readFloat@physx@@YAM_NAEAVPxInputStream@1@@Z 0000000180007940 f   CmSerialize.obj
 0001:000069a0       ?readFloatBuffer@physx@@YA_NPEAMI_NAEAVPxInputStream@1@@Z 00000001800079a0 f   CmSerialize.obj
 0001:00006a20       ?readHeader@physx@@YA_NCCCCAEAIAEA_NAEAVPxInputStream@1@@Z 0000000180007a20 f   CmSerialize.obj
 0001:00006b70       ?readIndices@physx@@YAXIIPEAIAEAVPxInputStream@1@_N@Z 0000000180007b70 f   CmSerialize.obj
 0001:00006ca0       ?readWord@physx@@YAG_NAEAVPxInputStream@1@@Z 0000000180007ca0 f   CmSerialize.obj
 0001:00006ce0       ?readWordBuffer@physx@@YAXPEAGI_NAEAVPxInputStream@1@@Z 0000000180007ce0 f   CmSerialize.obj
 0001:00006d50       ?storeIndices@physx@@YAXIIPEBIAEAVPxOutputStream@1@_N@Z 0000000180007d50 f   CmSerialize.obj
 0001:00006ee0       ?writeDword@physx@@YAXI_NAEAVPxOutputStream@1@@Z 0000000180007ee0 f   CmSerialize.obj
 0001:00006f30       ?writeFloat@physx@@YAXM_NAEAVPxOutputStream@1@@Z 0000000180007f30 f   CmSerialize.obj
 0001:00006f80       ?writeFloatBuffer@physx@@YAXPEBMI_NAEAVPxOutputStream@1@@Z 0000000180007f80 f   CmSerialize.obj
 0001:00007020       ?writeHeader@physx@@YA_NCCCCI_NAEAVPxOutputStream@1@@Z 0000000180008020 f   CmSerialize.obj
 0001:00007150       ?writeWord@physx@@YAXG_NAEAVPxOutputStream@1@@Z 0000000180008150 f   CmSerialize.obj
 0001:00007190       ?writeWordBuffer@physx@@YAXPEBGI_NAEAVPxOutputStream@1@@Z 0000000180008190 f   CmSerialize.obj
 0001:00007210       ??6PxRenderOutput@physx@@QEAAAEAV01@AEBV?$PxTransformT@M@1@@Z 0000000180008210 f i CmVisualization.obj
 0001:00007390       ??6PxRenderOutput@physx@@QEAAAEAV01@AEBV?$PxVec3T@M@1@@Z 0000000180008390 f i CmVisualization.obj
 0001:00007680       ?renderOutputDebugArrow@Cm@physx@@YAXAEAVPxRenderOutput@2@AEBUPxDebugArrow@2@@Z 0000000180008680 f   CmVisualization.obj
 0001:00007a20       ?renderOutputDebugBasis@Cm@physx@@YAXAEAVPxRenderOutput@2@AEBUPxDebugBasis@2@@Z 0000000180008a20 f   CmVisualization.obj
 0001:00007fb0       ?renderOutputDebugBox@Cm@physx@@YAXAEAVPxRenderOutput@2@AEBVPxBounds3@2@@Z 0000000180008fb0 f   CmVisualization.obj
 0001:00008220       ?renderOutputDebugCircle@Cm@physx@@YAXAEAVPxRenderOutput@2@IM@Z 0000000180009220 f   CmVisualization.obj
 0001:00008300       ?visualizeAngularLimit@Cm@physx@@YAXAEAVPxRenderOutput@2@MAEBV?$PxTransformT@M@2@MM@Z 0000000180009300 f   CmVisualization.obj
 0001:00008490       ?visualizeDoubleCone@Cm@physx@@YAXAEAVPxRenderOutput@2@MAEBV?$PxTransformT@M@2@M@Z 0000000180009490 f   CmVisualization.obj
 0001:000086b0       ?visualizeJointFrames@Cm@physx@@YAXAEAVPxRenderOutput@2@MAEBV?$PxTransformT@M@2@1@Z 00000001800096b0 f   CmVisualization.obj
 0001:000091b0       ?visualizeLimitCone@Cm@physx@@YAXAEAVPxRenderOutput@2@MAEBV?$PxTransformT@M@2@MM@Z 000000018000a1b0 f   CmVisualization.obj
 0001:000093e0       ?visualizeLinearLimit@Cm@physx@@YAXAEAVPxRenderOutput@2@MAEBV?$PxTransformT@M@2@1M@Z 000000018000a3e0 f   CmVisualization.obj
 0001:000099d0       ??0CmModuleUpdateLoader@Cm@physx@@QEAA@PEBD@Z 000000018000a9d0 f   CmWindowsModuleUpdateLoader.obj
 0001:00009a10       ??1CmModuleUpdateLoader@Cm@physx@@QEAA@XZ 000000018000aa10 f   CmWindowsModuleUpdateLoader.obj
 0001:00009a40       ?LoadModule@CmModuleUpdateLoader@Cm@physx@@QEAAPEAUHINSTANCE__@@PEBD0@Z 000000018000aa40 f   CmWindowsModuleUpdateLoader.obj
 0001:00009ab0       __local_stdio_printf_options 000000018000aab0 f i CmWindowsModuleUpdateLoader.obj
 0001:00009ac0       printf                     000000018000aac0 f i CmWindowsModuleUpdateLoader.obj
 0001:00009b20       ?commonDelayHook@@YAP6A_JXZIPEAUDelayLoadInfo@@@Z 000000018000ab20 f   CmWindowsDelayLoadHook.obj
 0001:00009c00       PxSetPhysXCommonDelayLoadHook 000000018000ac00 f   CmWindowsDelayLoadHook.obj
 0001:00009c10       ??0?$PxQuatT@M@physx@@QEAA@AEBV?$PxMat33T@M@1@@Z 000000018000ac10 f i GuBox.obj
 0001:00009e10       ??0Box@Gu@physx@@QEAA@AEBV012@@Z 000000018000ae10 f i GuBox.obj
 0001:00009e10       ??4Box@Gu@physx@@QEAAAEBV012@AEBV012@@Z 000000018000ae10 f i GuBox.obj
 0001:00009e70       ??0Box@Gu@physx@@QEAA@AEBV?$PxVec3T@M@2@0AEBV?$PxMat33T@M@2@@Z 000000018000ae70 f i GuBox.obj
 0001:00009ee0       ??0AABBTreeBuildNode@Gu@physx@@QEAA@XZ 000000018000aee0 f i GuMeshFactory.obj
 0001:00009ee0       ??0BigConvexData@physx@@QEAA@W4PxEMPTY@1@@Z 000000018000aee0 f i GuMetaData.obj
 0001:00009ee0       ??0Box@Gu@physx@@QEAA@XZ   000000018000aee0 f i GuBox.obj
 0001:00009ee0       ??0HeightFieldData@Gu@physx@@QEAA@W4PxEMPTY@2@@Z 000000018000aee0 f i GuCCTSweepTests.obj
 0001:00009ee0       ?getAABB@AABBTreeBuildNode@Gu@physx@@QEBAAEBVPxBounds3@3@XZ 000000018000aee0 f i GuMeshFactory.obj
 0001:00009ee0       ?getPaddedBounds@HeightFieldData@Gu@physx@@QEBAAEBVCenterExtentsPadded@23@XZ 000000018000aee0 f i GuCCTSweepTests.obj
 0001:00009ef0       ?computeAABBExtent@Box@Gu@physx@@QEBA?AV?$PxVec3T@M@3@XZ 000000018000aef0 f i GuBox.obj
 0001:00009fb0       ?computeBoxPoints@Box@Gu@physx@@QEBAXPEIAV?$PxVec3T@M@3@@Z 000000018000afb0 f i GuBox.obj
 0001:00009ff0       ?computeOBBPoints@Gu@physx@@YAXPEIAV?$PxVec3T@M@2@AEBV32@1111@Z 000000018000aff0 f   GuBox.obj
 0001:0000a270       ?create@Box@Gu@physx@@QEAAXAEBVCapsule@23@@Z 000000018000b270 f   GuBox.obj
 0001:0000a4a0       ?getBoxEdges@Gu@physx@@YAPEBEXZ 000000018000b4a0 f   GuBox.obj
 0001:0000a4b0       ?getTransform@Box@Gu@physx@@QEBA?AV?$PxTransformT@M@3@XZ 000000018000b4b0 f i GuBox.obj
 0001:0000a510       ?isValid@Box@Gu@physx@@QEBA_NXZ 000000018000b510 f i GuBox.obj
 0001:0000a530       ?rotate@Box@Gu@physx@@QEBA?AV?$PxVec3T@M@3@AEBV43@@Z 000000018000b530 f i GuBox.obj
 0001:0000a5c0       ?rotateInv@Box@Gu@physx@@QEBA?AV?$PxVec3T@M@3@AEBV43@@Z 000000018000b5c0 f i GuBox.obj
 0001:0000a650       ?setAxes@Box@Gu@physx@@QEAAXAEBV?$PxVec3T@M@3@00@Z 000000018000b650 f i GuBox.obj
 0001:0000a690       ?setEmpty@Box@Gu@physx@@QEAAXXZ 000000018000b690 f i GuBox.obj
 0001:0000a6d0       ?transform@Box@Gu@physx@@QEBA?AV?$PxVec3T@M@3@AEBV43@@Z 000000018000b6d0 f i GuBox.obj
 0001:0000a770       ?PxComputeBasisVectors@physx@@YAXAEBV?$PxVec3T@M@1@0AEAV21@11@Z 000000018000b770 f i GuCapsule.obj
 0001:0000a910       ?computeBoxAroundCapsule@Gu@physx@@YAXAEBVCapsule@12@AEAVBox@12@@Z 000000018000b910 f   GuCapsule.obj
 0001:0000aa60       ??0HeightFieldData@Gu@physx@@QEAA@$$QEAU012@@Z 000000018000ba60 f i GuCCTSweepTests.obj
 0001:0000aa60       ??0HeightFieldData@Gu@physx@@QEAA@AEBU012@@Z 000000018000ba60 f i GuCCTSweepTests.obj
 0001:0000aa60       ??4HeightFieldData@Gu@physx@@QEAAAEAU012@$$QEAU012@@Z 000000018000ba60 f i GuCCTSweepTests.obj
 0001:0000aa60       ??4HeightFieldData@Gu@physx@@QEAAAEAU012@AEBU012@@Z 000000018000ba60 f i GuCCTSweepTests.obj
 0001:0000aac0       ??0HeightFieldData@Gu@physx@@QEAA@XZ 000000018000bac0 f i GuCCTSweepTests.obj
 0001:0000aad0       ??0HeightFieldTraceUtil@Gu@physx@@QEAA@AEBVPxHeightFieldGeometry@2@@Z 000000018000bad0 f i GuCCTSweepTests.obj
 0001:0000aad0       ??0HeightFieldUtil@Gu@physx@@QEAA@AEBVPxHeightFieldGeometry@2@@Z 000000018000bad0 f i GuCCTSweepTests.obj
 0001:0000ab10       ??4AABBTreeBuildParams@Gu@physx@@QEAAAEAV012@AEBV012@@Z 000000018000bb10 f i GuMeshFactory.obj
 0001:0000ab10       ??4HeightFieldTraceUtil@Gu@physx@@QEAAAEAV012@$$QEAV012@@Z 000000018000bb10 f i GuCCTSweepTests.obj
 0001:0000ab10       ??4HeightFieldTraceUtil@Gu@physx@@QEAAAEAV012@AEBV012@@Z 000000018000bb10 f i GuCCTSweepTests.obj
 0001:0000ab10       ??4HeightFieldUtil@Gu@physx@@QEAAAEAV012@AEBV012@@Z 000000018000bb10 f i GuCCTSweepTests.obj
 0001:0000ab30       ??4HeightFieldUtil@Gu@physx@@QEAAAEAV012@$$QEAV012@@Z 000000018000bb30 f i GuCCTSweepTests.obj
 0001:0000ab90       ??_EEntityReport@Gu@physx@@UEAAPEAXI@Z 000000018000bb90 f i GuSweepsHF.obj
 0001:0000ab90       ??_EOverlapCallback@PxBVH@physx@@UEAAPEAXI@Z 000000018000bb90 f i GuQuerySystem.obj
 0001:0000ab90       ??_EOverlapReport@Gu@physx@@UEAAPEAXI@Z 000000018000bb90 f i GuCCTSweepTests.obj
 0001:0000ab90       ??_ERaycastCallback@PxBVH@physx@@UEAAPEAXI@Z 000000018000bb90 f i GuQuerySystem.obj
 0001:0000ab90       ??_ERemapCallback@RTreeCooker@physx@@UEAAPEAXI@Z 000000018000bb90 f i GuCookingTriangleMesh.obj
 0001:0000ab90       ??_GEntityReport@Gu@physx@@UEAAPEAXI@Z 000000018000bb90 f i GuSweepsHF.obj
 0001:0000ab90       ??_GOverlapCallback@PxBVH@physx@@UEAAPEAXI@Z 000000018000bb90 f i GuQuerySystem.obj
 0001:0000ab90       ??_GOverlapReport@Gu@physx@@UEAAPEAXI@Z 000000018000bb90 f i GuCCTSweepTests.obj
 0001:0000ab90       ??_GRaycastCallback@PxBVH@physx@@UEAAPEAXI@Z 000000018000bb90 f i GuQuerySystem.obj
 0001:0000ab90       ??_GRemapCallback@RTreeCooker@physx@@UEAAPEAXI@Z 000000018000bb90 f i GuCookingTriangleMesh.obj
 0001:0000abc0       ??_H@YAXPEAX_K1P6APEAX0@Z@Z 000000018000bbc0 f i GuCCTSweepTests.obj
 0001:0000ac10       ?ceilUp@HeightFieldTraceUtil@Gu@physx@@SAMM@Z 000000018000bc10 f i GuCCTSweepTests.obj
 0001:0000ac50       ?floorDown@HeightFieldTraceUtil@Gu@physx@@SAMM@Z 000000018000bc50 f i GuCCTSweepTests.obj
 0001:0000ac90       ?getHeightAtShapePoint@HeightFieldUtil@Gu@physx@@QEBAMMM@Z 000000018000bc90 f i GuCCTSweepTests.obj
 0001:0000acf0       ?getHeightInternal2@HeightField@Gu@physx@@QEBAMIMM@Z 000000018000bcf0 f i GuCCTSweepTests.obj
 0001:0000ae60       ?getNormalAtShapePoint@HeightFieldUtil@Gu@physx@@QEBA?AV?$PxVec3T@M@3@MM@Z 000000018000be60 f i GuCCTSweepTests.obj
 0001:0000af20       ?getNormal_2@HeightField@Gu@physx@@QEBA?AV?$PxVec3T@M@3@IMMMMM@Z 000000018000bf20 f i GuCCTSweepTests.obj
 0001:0000b040       ?getOneOverColumnScale@HeightFieldUtil@Gu@physx@@QEBAMXZ 000000018000c040 f i GuCCTSweepTests.obj
 0001:0000b050       ?getOneOverHeightScale@HeightFieldUtil@Gu@physx@@QEBAMXZ 000000018000c050 f i GuCCTSweepTests.obj
 0001:0000b060       ?getOneOverRowScale@HeightFieldUtil@Gu@physx@@QEBAMXZ 000000018000c060 f i GuCCTSweepTests.obj
 0001:0000b070       ?hf2shapen@HeightFieldUtil@Gu@physx@@QEBA?AV?$PxVec3T@M@3@AEBV43@@Z 000000018000c070 f i GuCCTSweepTests.obj
 0001:0000b070       ?shape2hfp@HeightFieldUtil@Gu@physx@@QEBA?AV?$PxVec3T@M@3@AEBV43@@Z 000000018000c070 f i GuCCTSweepTests.obj
 0001:0000b0b0       ?hf2shapep@HeightFieldUtil@Gu@physx@@QEBA?AV?$PxVec3T@M@3@AEBV43@@Z 000000018000c0b0 f i GuCCTSweepTests.obj
 0001:0000b0f0       ?hf2worldn@HeightFieldUtil@Gu@physx@@QEBA?AV?$PxVec3T@M@3@AEBV?$PxTransformT@M@3@AEBV43@@Z 000000018000c0f0 f i GuCCTSweepTests.obj
 0001:0000b260       ?hf2worldp@HeightFieldUtil@Gu@physx@@QEBA?AV?$PxVec3T@M@3@AEBV?$PxTransformT@M@3@AEBV43@@Z 000000018000c260 f i GuCCTSweepTests.obj
 0001:0000b3e0       ?overlapAABBTriangles0to1@HeightFieldUtil@Gu@physx@@QEBAXAEBV?$PxTransformT@M@3@AEBVPxBounds3@3@AEAVOverlapReport@23@I@Z 000000018000c3e0 f i GuCCTSweepTests.obj
 0001:0000b760       ?overlapAABBTriangles@HeightFieldUtil@Gu@physx@@QEBAXAEBV?$PxTransformT@M@3@0AEBVPxBounds3@3@AEAVOverlapReport@23@I@Z 000000018000c760 f i GuCCTSweepTests.obj
 0001:0000bd80       ?overlapAABBTriangles@HeightFieldUtil@Gu@physx@@QEBAXAEBV?$PxTransformT@M@3@AEBVPxBounds3@3@AEAVOverlapReport@23@I@Z 000000018000cd80 f i GuCCTSweepTests.obj
 0001:0000c430       ?sweepBoxTriangles_Precise@Gu@physx@@YA_NIPEBVPxTriangle@2@_NAEBVPxBoxGeometry@2@AEBV?$PxTransformT@M@2@AEBV?$PxVec3T@M@2@MAEAUPxGeomSweepHit@2@PEBIMV?$PxFlags@W4Enum@PxHitFlag@physx@@G@2@@Z 000000018000d430 f   GuCCTSweepTests.obj
 0001:0000d1c0       ?sweepBox_BoxGeom_Precise@@YA_NAEBVPxGeometry@physx@@AEBV?$PxTransformT@M@2@AEBVPxBoxGeometry@2@1AEBVBox@Gu@2@AEBV?$PxVec3T@M@2@MAEAUPxGeomSweepHit@2@V?$PxFlags@W4Enum@PxHitFlag@physx@@G@2@MPEAUPxQueryThreadContext@2@@Z 000000018000e1c0 f   GuCCTSweepTests.obj
 0001:0000d380       ?sweepBox_CapsuleGeom_Precise@@YA_NAEBVPxGeometry@physx@@AEBV?$PxTransformT@M@2@AEBVPxBoxGeometry@2@1AEBVBox@Gu@2@AEBV?$PxVec3T@M@2@MAEAUPxGeomSweepHit@2@V?$PxFlags@W4Enum@PxHitFlag@physx@@G@2@MPEAUPxQueryThreadContext@2@@Z 000000018000e380 f   GuCCTSweepTests.obj
 0001:0000d750       ?sweepBox_HeightFieldGeom_Precise@@YA_NAEBVPxGeometry@physx@@AEBV?$PxTransformT@M@2@AEBVPxBoxGeometry@2@1AEBVBox@Gu@2@AEBV?$PxVec3T@M@2@MAEAUPxGeomSweepHit@2@V?$PxFlags@W4Enum@PxHitFlag@physx@@G@2@MPEAUPxQueryThreadContext@2@@Z 000000018000e750 f   GuCCTSweepTests.obj
 0001:0000df50       ?sweepBox_SphereGeom_Precise@@YA_NAEBVPxGeometry@physx@@AEBV?$PxTransformT@M@2@AEBVPxBoxGeometry@2@1AEBVBox@Gu@2@AEBV?$PxVec3T@M@2@MAEAUPxGeomSweepHit@2@V?$PxFlags@W4Enum@PxHitFlag@physx@@G@2@MPEAUPxQueryThreadContext@2@@Z 000000018000ef50 f   GuCCTSweepTests.obj
 0001:0000e220       ?sweepCapsule_BoxGeom_Precise@@YA_NAEBVPxGeometry@physx@@AEBV?$PxTransformT@M@2@AEBVPxCapsuleGeometry@2@1AEBVCapsule@Gu@2@AEBV?$PxVec3T@M@2@MAEAUPxGeomSweepHit@2@V?$PxFlags@W4Enum@PxHitFlag@physx@@G@2@MPEAUPxQueryThreadContext@2@@Z 000000018000f220 f   GuCCTSweepTests.obj
 0001:0000e8b0       ??0?$CacheMap@UCachedEdge@Gu@physx@@$0IA@@Gu@physx@@QEAA@XZ 000000018000f8b0 f i GuGeometryQuery.obj
 0001:0000e970       ??0?$CacheMap@UCachedVertex@Gu@physx@@$0IA@@Gu@physx@@QEAA@XZ 000000018000f970 f i GuGeometryQuery.obj
 0001:0000ea30       ??0MultiplePersistentContactManifold@Gu@physx@@QEAA@XZ 000000018000fa30 f i GuGeometryQuery.obj
 0001:0000ea90       ??0PCMMeshContactGeneration@Gu@physx@@QEAA@AEBT__m128@@0AEBVPxTransformV@aos@2@1AEAVMultiplePersistentContactManifold@12@AEAVPxContactBuffer@2@PEAV?$PxInlineArray@I$0DMA@V?$PxReflectionAllocator@I@physx@@@2@PEAVPxRenderOutput@2@@Z 000000018000fa90 f i GuGeometryQuery.obj
 0001:0000f3c0       ??0PolygonalBox@Gu@physx@@QEAA@AEBV012@@Z 00000001800103c0 f i GuGeometryQuery.obj
 0001:0000f640       ??4MultiplePersistentContactManifold@Gu@physx@@QEAAAEAV012@$$QEAV012@@Z 0000000180010640 f i GuGeometryQuery.obj
 0001:0000f950       ??4MultiplePersistentContactManifold@Gu@physx@@QEAAAEAV012@AEBV012@@Z 0000000180010950 f i GuGeometryQuery.obj
 0001:0000f970       ??_E?$SupportLocalImpl@VBoxV@Gu@physx@@@Gu@physx@@UEAAPEAXI@Z 0000000180010970 f i GuGeometryQuery.obj
 0001:0000f970       ??_E?$SupportLocalImpl@VConvexHullNoScaleV@Gu@physx@@@Gu@physx@@UEAAPEAXI@Z 0000000180010970 f i GuMTD.obj
 0001:0000f970       ??_E?$SupportLocalImpl@VConvexHullV@Gu@physx@@@Gu@physx@@UEAAPEAXI@Z 0000000180010970 f i GuGeometryQuery.obj
 0001:0000f970       ??_E?$SupportLocalImpl@VTriangleV@Gu@physx@@@Gu@physx@@UEAAPEAXI@Z 0000000180010970 f i GuPCMContactConvexCommon.obj
 0001:0000f970       ??_G?$SupportLocalImpl@VBoxV@Gu@physx@@@Gu@physx@@UEAAPEAXI@Z 0000000180010970 f i GuGeometryQuery.obj
 0001:0000f970       ??_G?$SupportLocalImpl@VConvexHullNoScaleV@Gu@physx@@@Gu@physx@@UEAAPEAXI@Z 0000000180010970 f i GuMTD.obj
 0001:0000f970       ??_G?$SupportLocalImpl@VConvexHullV@Gu@physx@@@Gu@physx@@UEAAPEAXI@Z 0000000180010970 f i GuGeometryQuery.obj
 0001:0000f970       ??_G?$SupportLocalImpl@VTriangleV@Gu@physx@@@Gu@physx@@UEAAPEAXI@Z 0000000180010970 f i GuPCMContactConvexCommon.obj
 0001:0000f9a0       ??_ESupportLocal@Gu@physx@@UEAAPEAXI@Z 00000001800109a0 f i GuGeometryQuery.obj
 0001:0000f9a0       ??_GSupportLocal@Gu@physx@@UEAAPEAXI@Z 00000001800109a0 f i GuGeometryQuery.obj
 0001:0000f9d0       ?clearManifold@MultiplePersistentContactManifold@Gu@physx@@QEAAXXZ 00000001800109d0 f i GuGeometryQuery.obj
 0001:0000fa30       ?computeGeomBounds@PxGeometryQuery@physx@@SAXAEAVPxBounds3@2@AEBVPxGeometry@2@AEBV?$PxTransformT@M@2@MMV?$PxFlags@W4Enum@PxGeometryQueryFlag@physx@@I@2@@Z 0000000180010a30 f   GuGeometryQuery.obj
 0001:0000fb40       ?computePenetration@PxGeometryQuery@physx@@SA_NAEAV?$PxVec3T@M@2@AEAMAEBVPxGeometry@2@AEBV?$PxTransformT@M@2@23V?$PxFlags@W4Enum@PxGeometryQueryFlag@physx@@I@2@@Z 0000000180010b40 f   GuGeometryQuery.obj
 0001:0000fd50       ?doSupport@?$SupportLocalImpl@VBoxV@Gu@physx@@@Gu@physx@@UEBA?AT__m128@@AEBT4@@Z 0000000180010d50 f i GuGeometryQuery.obj
 0001:0000fd80       ?doSupport@?$SupportLocalImpl@VBoxV@Gu@physx@@@Gu@physx@@UEBAXAEBT__m128@@AEAT4@1@Z 0000000180010d80 f i GuGeometryQuery.obj
 0001:0000fdd0       ?doSupport@?$SupportLocalImpl@VConvexHullV@Gu@physx@@@Gu@physx@@UEBA?AT__m128@@AEBT4@@Z 0000000180010dd0 f i GuGeometryQuery.obj
 0001:0000feb0       ?doSupport@?$SupportLocalImpl@VConvexHullV@Gu@physx@@@Gu@physx@@UEBAXAEBT__m128@@AEAT4@1@Z 0000000180010eb0 f i GuGeometryQuery.obj
 0001:00010210       ?generateTriangleContacts@PxGeometryQuery@physx@@SA_NAEBVPxGeometry@2@AEBV?$PxTransformT@M@2@QEBV?$PxVec3T@M@2@IMMMAEAVPxContactBuffer@2@@Z 0000000180011210 f   GuGeometryQuery.obj
 0001:00011bd0       ?getEmptyManifold@MultiplePersistentContactManifold@Gu@physx@@QEAAPEAVSinglePersistentContactManifold@23@XZ 0000000180012bd0 f i GuGeometryQuery.obj
 0001:00011bf0       ?getManifold@MultiplePersistentContactManifold@Gu@physx@@QEAAPEAVSinglePersistentContactManifold@23@I@Z 0000000180012bf0 f i GuGeometryQuery.obj
 0001:00011bf0       ?getManifold@MultiplePersistentContactManifold@Gu@physx@@QEBAPEBVSinglePersistentContactManifold@23@I@Z 0000000180012bf0 f i GuGeometryQuery.obj
 0001:00011c10       ?getUniqueID@PxCustomGeometry@physx@@SAIXZ 0000000180012c10 f   GuGeometryQuery.obj
 0001:00011c30       ?hillClimbing@ConvexHullV@Gu@physx@@QEBAIAEBT__m128@@@Z 0000000180012c30 f i GuGeometryQuery.obj
 0001:00011e60       ?initialize@MultiplePersistentContactManifold@Gu@physx@@QEAAXXZ 0000000180012e60 f i GuGeometryQuery.obj
 0001:00011ec0       ?invalidate@MultiplePersistentContactManifold@Gu@physx@@QEBAIAEBVPxTransformV@aos@3@AEBT__m128@@1@Z 0000000180012ec0 f i GuGeometryQuery.obj
 0001:00011f30       ?invalidate@MultiplePersistentContactManifold@Gu@physx@@QEBAIAEBVPxTransformV@aos@3@AEBT__m128@@@Z 0000000180012f30 f i GuGeometryQuery.obj
 0001:00011fa0       ?isFinite@?$PxQuatT@M@physx@@QEBA_NXZ 0000000180012fa0 f i GuGeometryQuery.obj
 0001:00012010       ?isFinite@?$PxVec3T@M@physx@@QEBA_NXZ 0000000180013010 f i GuGeometryQuery.obj
 0001:00012070       ?isUnit@?$PxQuatT@M@physx@@QEBA_NXZ 0000000180013070 f i GuGeometryQuery.obj
 0001:000120e0       ?isValid@?$PxTransformT@M@physx@@QEBA_NXZ 00000001800130e0 f i GuGeometryQuery.obj
 0001:00012150       ?isValid@PxGeometryQuery@physx@@SA_NAEBVPxGeometry@2@@Z 0000000180013150 f   GuGeometryQuery.obj
 0001:00012440       ?maxTransformPositionDelta@MultiplePersistentContactManifold@Gu@physx@@QEBA?AT__m128@@AEBT4@@Z 0000000180013440 f i GuGeometryQuery.obj
 0001:00012480       ?maxTransformQuatDelta@MultiplePersistentContactManifold@Gu@physx@@QEBA?AT__m128@@AEBT4@@Z 0000000180013480 f i GuGeometryQuery.obj
 0001:000124c0       ?overlap@PxGeometryQuery@physx@@SA_NAEBVPxGeometry@2@AEBV?$PxTransformT@M@2@01V?$PxFlags@W4Enum@PxGeometryQueryFlag@physx@@I@2@PEAUPxQueryThreadContext@2@@Z 00000001800134c0 f   GuGeometryQuery.obj
 0001:00012610       ?pointDistance@PxGeometryQuery@physx@@SAMAEBV?$PxVec3T@M@2@AEBVPxGeometry@2@AEBV?$PxTransformT@M@2@PEAV32@PEAIV?$PxFlags@W4Enum@PxGeometryQueryFlag@physx@@I@2@@Z 0000000180013610 f   GuGeometryQuery.obj
 0001:00012e10       ?populateVerts@?$SupportLocalImpl@VBoxV@Gu@physx@@@Gu@physx@@UEBAXPEBEIPEBV?$PxVec3T@M@3@PEAT__m128@@@Z 0000000180013e10 f i GuGeometryQuery.obj
 0001:00012e50       ?populateVerts@?$SupportLocalImpl@VConvexHullV@Gu@physx@@@Gu@physx@@UEBAXPEBEIPEBV?$PxVec3T@M@3@PEAT__m128@@@Z 0000000180013e50 f i GuGeometryQuery.obj
 0001:00012eb0       ?raycast@PxGeometryQuery@physx@@SAIAEBV?$PxVec3T@M@2@0AEBVPxGeometry@2@AEBV?$PxTransformT@M@2@MV?$PxFlags@W4Enum@PxHitFlag@physx@@G@2@IPEIAUPxGeomRaycastHit@2@IV?$PxFlags@W4Enum@PxGeometryQueryFlag@physx@@I@2@PEAUPxQueryThreadContext@2@@Z 0000000180013eb0 f   GuGeometryQuery.obj
 0001:00013180       ?reduceManifoldContactsInDifferentPatches@MultiplePersistentContactManifold@Gu@physx@@QEBAIPEAPEAUPCMContactPatch@23@IPEAVMeshPersistentContact@23@IAEBT__m128@@@Z 0000000180014180 f i GuGeometryQuery.obj
 0001:000132f0       ?refineContactPatchConnective@MultiplePersistentContactManifold@Gu@physx@@QEBAXPEAPEAUPCMContactPatch@23@IPEAVMeshPersistentContact@23@AEBT__m128@@@Z 00000001800142f0 f i GuGeometryQuery.obj
 0001:000133e0       ?refreshManifold@MultiplePersistentContactManifold@Gu@physx@@QEAAXAEBVPxMatTransformV@aos@3@AEBT__m128@@1@Z 00000001800143e0 f i GuGeometryQuery.obj
 0001:000134e0       ?setRelativeTransform@MultiplePersistentContactManifold@Gu@physx@@QEAAXAEBVPxTransformV@aos@3@@Z 00000001800144e0 f i GuGeometryQuery.obj
 0001:000134f0       ?supportVertexIndex@ConvexHullV@Gu@physx@@QEBAIAEBT__m128@@@Z 00000001800144f0 f i GuGeometryQuery.obj
 0001:00013770       ?sweep@PxGeometryQuery@physx@@SA_NAEBV?$PxVec3T@M@2@MAEBVPxGeometry@2@AEBV?$PxTransformT@M@2@12AEAUPxGeomSweepHit@2@V?$PxFlags@W4Enum@PxHitFlag@physx@@G@2@MV?$PxFlags@W4Enum@PxGeometryQueryFlag@physx@@I@2@PEAUPxQueryThreadContext@2@@Z 0000000180014770 f   GuGeometryQuery.obj
 0001:00013d80       ?computeBoxPoints@Gu@physx@@YAXAEBVPxBounds3@2@PEIAV?$PxVec3T@M@2@@Z 0000000180014d80 f   GuInternal.obj
 0001:00013e20       ?computeSweptBox@Gu@physx@@YAXAEAVBox@12@AEBV?$PxVec3T@M@2@1AEBV?$PxMat33T@M@2@1M@Z 0000000180014e20 f   GuInternal.obj
 0001:00014360       ?getPlane@Gu@physx@@YA?AVPxPlane@2@AEBV?$PxTransformT@M@2@@Z 0000000180015360 f   GuInternal.obj
 0001:00014890       ??_ECallbackRaycast@RTree@Gu@physx@@UEAAPEAXI@Z 0000000180015890 f i GuMidphaseRTree.obj
 0001:00014890       ??_ECallbackRefit@RTree@Gu@physx@@UEAAPEAXI@Z 0000000180015890 f i GuTriangleMeshRTree.obj
 0001:00014890       ??_EPxInsertionCallback@physx@@MEAAPEAXI@Z 0000000180015890 f i GuMeshFactory.obj
 0001:00014890       ??_GCallbackRaycast@RTree@Gu@physx@@UEAAPEAXI@Z 0000000180015890 f i GuMidphaseRTree.obj
 0001:00014890       ??_GCallbackRefit@RTree@Gu@physx@@UEAAPEAXI@Z 0000000180015890 f i GuTriangleMeshRTree.obj
 0001:00014890       ??_GPxInsertionCallback@physx@@MEAAPEAXI@Z 0000000180015890 f i GuMeshFactory.obj
 0001:000148c0       ??$copy@V?$PxReflectionAllocator@USlab@NodeAllocator@Gu@physx@@@physx@@@?$PxArray@USlab@NodeAllocator@Gu@physx@@V?$PxReflectionAllocator@USlab@NodeAllocator@Gu@physx@@@4@@physx@@IEAAXAEBV01@@Z 00000001800158c0 f i GuMeshFactory.obj
 0001:00014980       ??0AABBTreeBounds@Gu@physx@@QEAA@XZ 0000000180015980 f i GuMeshFactory.obj
 0001:00014990       ??0AABBTreeBuildNode@Gu@physx@@QEAA@AEBV012@@Z 0000000180015990 f i GuMeshFactory.obj
 0001:00014990       ??4AABBTreeBuildNode@Gu@physx@@QEAAAEAV012@AEBV012@@Z 0000000180015990 f i GuMeshFactory.obj
 0001:000149d0       ??0AABBTreeBuildParams@Gu@physx@@QEAA@IIPEBVAABBTreeBounds@12@W4BVHBuildStrategy@12@@Z 00000001800159d0 f i GuMeshFactory.obj
 0001:000149f0       ??0MeshFactory@Gu@physx@@QEAA@XZ 00000001800159f0 f   GuMeshFactory.obj
 0001:00014bf0       ??0NodeAllocator@Gu@physx@@QEAA@AEBV012@@Z 0000000180015bf0 f i GuMeshFactory.obj
 0001:00014c30       ??0TriangleMeshData@Gu@physx@@QEAA@XZ 0000000180015c30 f i GuMeshFactory.obj
 0001:00014d50       ??1AABBTreeBounds@Gu@physx@@QEAA@XZ 0000000180015d50 f i GuMeshFactory.obj
 0001:00014d60       ??1AABBTreeBuildParams@Gu@physx@@QEAA@XZ 0000000180015d60 f i GuMeshFactory.obj
 0001:00014d60       ?reset@AABBTreeBuildParams@Gu@physx@@QEAAXXZ 0000000180015d60 f i GuMeshFactory.obj
 0001:00014db0       ??1CollisionMeshMappingData@Gu@physx@@UEAA@XZ 0000000180015db0 f i GuMeshFactory.obj
 0001:00014f00       ??1MeshDataBase@Gu@physx@@UEAA@XZ 0000000180015f00 f i GuMeshFactory.obj
 0001:00015040       ??1MeshFactory@Gu@physx@@MEAA@XZ 0000000180016040 f   GuMeshFactory.obj
 0001:00015180       ??1RTreeTriangleData@Gu@physx@@UEAA@XZ 0000000180016180 f i GuMeshFactory.obj
 0001:000151f0       ??1SoftBodyCollisionData@Gu@physx@@UEAA@XZ 00000001800161f0 f i GuMeshFactory.obj
 0001:00015330       ??1SoftBodySimulationData@Gu@physx@@UEAA@XZ 0000000180016330 f i GuMeshFactory.obj
 0001:00015450       ??1TetrahedronMeshData@Gu@physx@@QEAA@XZ 0000000180016450 f i GuMeshFactory.obj
 0001:000154e0       ??1TriangleMeshData@Gu@physx@@UEAA@XZ 00000001800164e0 f i GuMeshFactory.obj
 0001:00015610       ??4NodeAllocator@Gu@physx@@QEAAAEAV012@AEBV012@@Z 0000000180016610 f i GuMeshFactory.obj
 0001:000156c0       ??_EMeshFactory@Gu@physx@@MEAAPEAXI@Z 00000001800166c0 f i GuMeshFactory.obj
 0001:000157e0       ??_FAABBTreeBuildParams@Gu@physx@@QEAAXXZ 00000001800167e0 f i GuMeshFactory.obj
 0001:00015800       ??_EBV4TriangleData@Gu@physx@@UEAAPEAXI@Z 0000000180016800 f i GuMeshFactory.obj
 0001:00015800       ??_GBV4TriangleData@Gu@physx@@UEAAPEAXI@Z 0000000180016800 f i GuMeshFactory.obj
 0001:00015890       ??_ECollisionMeshMappingData@Gu@physx@@UEAAPEAXI@Z 0000000180016890 f i GuMeshFactory.obj
 0001:00015890       ??_GCollisionMeshMappingData@Gu@physx@@UEAAPEAXI@Z 0000000180016890 f i GuMeshFactory.obj
 0001:00015900       ??_EMeshDataBase@Gu@physx@@UEAAPEAXI@Z 0000000180016900 f i GuMeshFactory.obj
 0001:00015900       ??_GMeshDataBase@Gu@physx@@UEAAPEAXI@Z 0000000180016900 f i GuMeshFactory.obj
 0001:00015970       ??_EPxCollisionMeshMappingData@physx@@UEAAPEAXI@Z 0000000180016970 f i GuMeshFactory.obj
 0001:00015970       ??_GPxCollisionMeshMappingData@physx@@UEAAPEAXI@Z 0000000180016970 f i GuMeshFactory.obj
 0001:000159c0       ??_ERTreeTriangleData@Gu@physx@@UEAAPEAXI@Z 00000001800169c0 f i GuMeshFactory.obj
 0001:000159c0       ??_GRTreeTriangleData@Gu@physx@@UEAAPEAXI@Z 00000001800169c0 f i GuMeshFactory.obj
 0001:00015a70       ??_ESoftBodyCollisionData@Gu@physx@@UEAAPEAXI@Z 0000000180016a70 f i GuMeshFactory.obj
 0001:00015a70       ??_GSoftBodyCollisionData@Gu@physx@@UEAAPEAXI@Z 0000000180016a70 f i GuMeshFactory.obj
 0001:00015ae0       ??_ESoftBodySimulationData@Gu@physx@@UEAAPEAXI@Z 0000000180016ae0 f i GuMeshFactory.obj
 0001:00015ae0       ??_GSoftBodySimulationData@Gu@physx@@UEAAPEAXI@Z 0000000180016ae0 f i GuMeshFactory.obj
 0001:00015b50       ??_ETriangleMeshData@Gu@physx@@UEAAPEAXI@Z 0000000180016b50 f i GuMeshFactory.obj
 0001:00015b50       ??_GTriangleMeshData@Gu@physx@@UEAAPEAXI@Z 0000000180016b50 f i GuMeshFactory.obj
 0001:00015bc0       ??_V@YAXPEAX_K@Z           0000000180016bc0 f i LIBCMT:delete_array_size.obj
 0001:00015bc0       ?__global_delete@@YAXPEAX_K@Z 0000000180016bc0 f i GuMeshFactory.obj
 0001:00015bd0       ?addBVH@MeshFactory@Gu@physx@@QEAAXPEAVBVH@23@_N@Z 0000000180016bd0 f   GuMeshFactory.obj
 0001:00015c70       ?addConvexMesh@MeshFactory@Gu@physx@@QEAAXPEAVConvexMesh@23@_N@Z 0000000180016c70 f   GuMeshFactory.obj
 0001:00015d10       ?addFactoryListener@MeshFactory@Gu@physx@@QEAAXAEAVMeshFactoryListener@23@@Z 0000000180016d10 f   GuMeshFactory.obj
 0001:00015d80       ?addHeightField@MeshFactory@Gu@physx@@QEAAXPEAVHeightField@23@_N@Z 0000000180016d80 f   GuMeshFactory.obj
 0001:00015e20       ?addSoftBodyMesh@MeshFactory@Gu@physx@@QEAAXPEAVSoftBodyMesh@23@_N@Z 0000000180016e20 f   GuMeshFactory.obj
 0001:00015ec0       ?addTetrahedronMesh@MeshFactory@Gu@physx@@QEAAXPEAVTetrahedronMesh@23@_N@Z 0000000180016ec0 f   GuMeshFactory.obj
 0001:00015f60       ?addTriangleMesh@MeshFactory@Gu@physx@@QEAAXPEAVTriangleMesh@23@_N@Z 0000000180016f60 f   GuMeshFactory.obj
 0001:00016000       ?allocate@?$PxArray@USlab@NodeAllocator@Gu@physx@@V?$PxReflectionAllocator@USlab@NodeAllocator@Gu@physx@@@4@@physx@@IEAAPEAUSlab@NodeAllocator@Gu@2@I@Z 0000000180017000 f i GuMeshFactory.obj
 0001:000160b0       ?allocateAdjacencies@TriangleMeshData@Gu@physx@@QEAAPEAIXZ 00000001800170b0 f i GuMeshFactory.obj
 0001:00016120       ?allocateExtraTrigData@TriangleMeshData@Gu@physx@@QEAAPEAEXZ 0000000180017120 f i GuMeshFactory.obj
 0001:00016190       ?allocateFaceRemap@TriangleMeshData@Gu@physx@@QEAAPEAIXZ 0000000180017190 f i GuMeshFactory.obj
 0001:00016200       ?allocateGridModelData@SoftBodySimulationData@Gu@physx@@QEAAXIIIIIII@Z 0000000180017200 f i GuMeshFactory.obj
 0001:00016480       ?allocateMaterials@TetrahedronMeshData@Gu@physx@@QEAAPEAGXZ 0000000180017480 f i GuMeshFactory.obj
 0001:000164f0       ?allocateMaterials@TriangleMeshData@Gu@physx@@QEAAPEAGXZ 00000001800174f0 f i GuMeshFactory.obj
 0001:00016560       ?allocateTetrahedrons@TetrahedronMeshData@Gu@physx@@QEAAXII@Z 0000000180017560 f i GuMeshFactory.obj
 0001:000165f0       ?allocateTriangles@TriangleMeshData@Gu@physx@@QEAAPEAXI_NI@Z 00000001800175f0 f i GuMeshFactory.obj
 0001:000166e0       ?allocateVertices@MeshDataBase@Gu@physx@@QEAAPEAV?$PxVec3T@M@3@I@Z 00000001800176e0 f i GuMeshFactory.obj
 0001:00016750       ?allocateVertices@TetrahedronMeshData@Gu@physx@@QEAAPEAV?$PxVec3T@M@3@II@Z 0000000180017750 f i GuMeshFactory.obj
 0001:000167f0       ?allocatemappingData@CollisionMeshMappingData@Gu@physx@@QEAAXIIII@Z 00000001800177f0 f i GuMeshFactory.obj
 0001:000169d0       ?create@?$PxHashBase@PEAVBVH@Gu@physx@@PEAV123@U?$PxHash@PEAVBVH@Gu@physx@@@3@UGetKey@?$PxHashSetBase@PEAVBVH@Gu@physx@@U?$PxHash@PEAVBVH@Gu@physx@@@3@VPxAllocator@3@$00@3@VPxAllocator@3@$00@physx@@QEAAPEAPEAVBVH@Gu@2@AEBQEAV342@AEA_N@Z 00000001800179d0 f i GuMeshFactory.obj
 0001:000169d0       ?create@?$PxHashBase@PEAVConvexMesh@Gu@physx@@PEAV123@U?$PxHash@PEAVConvexMesh@Gu@physx@@@3@UGetKey@?$PxHashSetBase@PEAVConvexMesh@Gu@physx@@U?$PxHash@PEAVConvexMesh@Gu@physx@@@3@VPxAllocator@3@$00@3@VPxAllocator@3@$00@physx@@QEAAPEAPEAVConvexMesh@Gu@2@AEBQEAV342@AEA_N@Z 00000001800179d0 f i GuMeshFactory.obj
 0001:000169d0       ?create@?$PxHashBase@PEAVHeightField@Gu@physx@@PEAV123@U?$PxHash@PEAVHeightField@Gu@physx@@@3@UGetKey@?$PxHashSetBase@PEAVHeightField@Gu@physx@@U?$PxHash@PEAVHeightField@Gu@physx@@@3@VPxAllocator@3@$00@3@VPxAllocator@3@$00@physx@@QEAAPEAPEAVHeightField@Gu@2@AEBQEAV342@AEA_N@Z 00000001800179d0 f i GuMeshFactory.obj
 0001:000169d0       ?create@?$PxHashBase@PEAVSoftBodyMesh@Gu@physx@@PEAV123@U?$PxHash@PEAVSoftBodyMesh@Gu@physx@@@3@UGetKey@?$PxHashSetBase@PEAVSoftBodyMesh@Gu@physx@@U?$PxHash@PEAVSoftBodyMesh@Gu@physx@@@3@VPxAllocator@3@$00@3@VPxAllocator@3@$00@physx@@QEAAPEAPEAVSoftBodyMesh@Gu@2@AEBQEAV342@AEA_N@Z 00000001800179d0 f i GuMeshFactory.obj
 0001:000169d0       ?create@?$PxHashBase@PEAVTetrahedronMesh@Gu@physx@@PEAV123@U?$PxHash@PEAVTetrahedronMesh@Gu@physx@@@3@UGetKey@?$PxHashSetBase@PEAVTetrahedronMesh@Gu@physx@@U?$PxHash@PEAVTetrahedronMesh@Gu@physx@@@3@VPxAllocator@3@$00@3@VPxAllocator@3@$00@physx@@QEAAPEAPEAVTetrahedronMesh@Gu@2@AEBQEAV342@AEA_N@Z 00000001800179d0 f i GuMeshFactory.obj
 0001:000169d0       ?create@?$PxHashBase@PEAVTriangleMesh@Gu@physx@@PEAV123@U?$PxHash@PEAVTriangleMesh@Gu@physx@@@3@UGetKey@?$PxHashSetBase@PEAVTriangleMesh@Gu@physx@@U?$PxHash@PEAVTriangleMesh@Gu@physx@@@3@VPxAllocator@3@$00@3@VPxAllocator@3@$00@physx@@QEAAPEAPEAVTriangleMesh@Gu@2@AEBQEAV342@AEA_N@Z 00000001800179d0 f i GuMeshFactory.obj
 0001:00016b60       ?createBVH@MeshFactory@Gu@physx@@IEAAPEAVPxBVH@3@AEAVBVHData@23@@Z 0000000180017b60 f   GuMeshFactory.obj
 0001:00016cc0       ?createBVH@MeshFactory@Gu@physx@@QEAAPEAVPxBVH@3@AEAVPxInputStream@3@@Z 0000000180017cc0 f   GuMeshFactory.obj
 0001:00016e40       ?createBVH@MeshFactory@Gu@physx@@QEAAPEAVPxBVH@3@PEAX@Z 0000000180017e40 f   GuMeshFactory.obj
 0001:00016e50       ?createConvexMesh@MeshFactory@Gu@physx@@IEAAPEAVPxConvexMesh@3@AEAUConvexHullInitData@23@@Z 0000000180017e50 f   GuMeshFactory.obj
 0001:00016f90       ?createConvexMesh@MeshFactory@Gu@physx@@QEAAPEAVPxConvexMesh@3@AEAVPxInputStream@3@@Z 0000000180017f90 f   GuMeshFactory.obj
 0001:000170f0       ?createConvexMesh@MeshFactory@Gu@physx@@QEAAPEAVPxConvexMesh@3@PEAX@Z 00000001800180f0 f   GuMeshFactory.obj
 0001:00017100       ?createHeightField@MeshFactory@Gu@physx@@QEAAPEAVPxHeightField@3@AEAVPxInputStream@3@@Z 0000000180018100 f   GuMeshFactory.obj
 0001:00017280       ?createHeightField@MeshFactory@Gu@physx@@QEAAPEAVPxHeightField@3@PEAX@Z 0000000180018280 f   GuMeshFactory.obj
 0001:000173e0       ?createSoftBodyMesh@MeshFactory@Gu@physx@@IEAAPEAVPxSoftBodyMesh@3@AEAVSoftBodyMeshData@23@@Z 00000001800183e0 f   GuMeshFactory.obj
 0001:00017520       ?createSoftBodyMesh@MeshFactory@Gu@physx@@QEAAPEAVPxSoftBodyMesh@3@AEAVPxInputStream@3@@Z 0000000180018520 f   GuMeshFactory.obj
 0001:00017b20       ?createSoftBodyMesh@MeshFactory@Gu@physx@@QEAAPEAVPxSoftBodyMesh@3@PEAX@Z 0000000180018b20 f   GuMeshFactory.obj
 0001:00017b30       ?createTetrahedronMesh@MeshFactory@Gu@physx@@IEAAPEAVPxTetrahedronMesh@3@AEAVTetrahedronMeshData@23@@Z 0000000180018b30 f   GuMeshFactory.obj
 0001:00017c80       ?createTetrahedronMesh@MeshFactory@Gu@physx@@QEAAPEAVPxTetrahedronMesh@3@AEAVPxInputStream@3@@Z 0000000180018c80 f   GuMeshFactory.obj
 0001:00017cf0       ?createTetrahedronMesh@MeshFactory@Gu@physx@@QEAAPEAVPxTetrahedronMesh@3@PEAX@Z 0000000180018cf0 f   GuMeshFactory.obj
 0001:00017d00       ?createTriangleMesh@MeshFactory@Gu@physx@@IEAAPEAVPxTriangleMesh@3@AEAVTriangleMeshData@23@@Z 0000000180018d00 f   GuMeshFactory.obj
 0001:00017ef0       ?createTriangleMesh@MeshFactory@Gu@physx@@QEAAPEAVPxTriangleMesh@3@AEAVPxInputStream@3@@Z 0000000180018ef0 f   GuMeshFactory.obj
 0001:00017f50       ?createTriangleMesh@MeshFactory@Gu@physx@@QEAAPEAVPxTriangleMesh@3@PEAX@Z 0000000180018f50 f   GuMeshFactory.obj
 0001:00017f60       ?erase@?$PxHashBase@PEAVBVH@Gu@physx@@PEAV123@U?$PxHash@PEAVBVH@Gu@physx@@@3@UGetKey@?$PxHashSetBase@PEAVBVH@Gu@physx@@U?$PxHash@PEAVBVH@Gu@physx@@@3@VPxAllocator@3@$00@3@VPxAllocator@3@$00@physx@@QEAA_NAEBQEAVBVH@Gu@2@@Z 0000000180018f60 f i GuMeshFactory.obj
 0001:00017f60       ?erase@?$PxHashBase@PEAVConvexMesh@Gu@physx@@PEAV123@U?$PxHash@PEAVConvexMesh@Gu@physx@@@3@UGetKey@?$PxHashSetBase@PEAVConvexMesh@Gu@physx@@U?$PxHash@PEAVConvexMesh@Gu@physx@@@3@VPxAllocator@3@$00@3@VPxAllocator@3@$00@physx@@QEAA_NAEBQEAVConvexMesh@Gu@2@@Z 0000000180018f60 f i GuMeshFactory.obj
 0001:00017f60       ?erase@?$PxHashBase@PEAVHeightField@Gu@physx@@PEAV123@U?$PxHash@PEAVHeightField@Gu@physx@@@3@UGetKey@?$PxHashSetBase@PEAVHeightField@Gu@physx@@U?$PxHash@PEAVHeightField@Gu@physx@@@3@VPxAllocator@3@$00@3@VPxAllocator@3@$00@physx@@QEAA_NAEBQEAVHeightField@Gu@2@@Z 0000000180018f60 f i GuMeshFactory.obj
 0001:00017f60       ?erase@?$PxHashBase@PEAVSoftBodyMesh@Gu@physx@@PEAV123@U?$PxHash@PEAVSoftBodyMesh@Gu@physx@@@3@UGetKey@?$PxHashSetBase@PEAVSoftBodyMesh@Gu@physx@@U?$PxHash@PEAVSoftBodyMesh@Gu@physx@@@3@VPxAllocator@3@$00@3@VPxAllocator@3@$00@physx@@QEAA_NAEBQEAVSoftBodyMesh@Gu@2@@Z 0000000180018f60 f i GuMeshFactory.obj
 0001:00017f60       ?erase@?$PxHashBase@PEAVTetrahedronMesh@Gu@physx@@PEAV123@U?$PxHash@PEAVTetrahedronMesh@Gu@physx@@@3@UGetKey@?$PxHashSetBase@PEAVTetrahedronMesh@Gu@physx@@U?$PxHash@PEAVTetrahedronMesh@Gu@physx@@@3@VPxAllocator@3@$00@3@VPxAllocator@3@$00@physx@@QEAA_NAEBQEAVTetrahedronMesh@Gu@2@@Z 0000000180018f60 f i GuMeshFactory.obj
 0001:00017f60       ?erase@?$PxHashBase@PEAVTriangleMesh@Gu@physx@@PEAV123@U?$PxHash@PEAVTriangleMesh@Gu@physx@@@3@UGetKey@?$PxHashSetBase@PEAVTriangleMesh@Gu@physx@@U?$PxHash@PEAVTriangleMesh@Gu@physx@@@3@VPxAllocator@3@$00@3@VPxAllocator@3@$00@physx@@QEAA_NAEBQEAVTriangleMesh@Gu@2@@Z 0000000180018f60 f i GuMeshFactory.obj
 0001:000180e0       ?getBVHs@MeshFactory@Gu@physx@@QEBAIPEAPEAVPxBVH@3@II@Z 00000001800190e0 f   GuMeshFactory.obj
 0001:00018180       ?getBounds@AABBTreeBounds@Gu@physx@@QEAAPEAVPxBounds3@3@XZ 0000000180019180 f i GuMeshFactory.obj
 0001:00018180       ?getBounds@AABBTreeBounds@Gu@physx@@QEBAPEBVPxBounds3@3@XZ 0000000180019180 f i GuMeshFactory.obj
 0001:00018190       ?getConvexMeshes@MeshFactory@Gu@physx@@QEBAIPEAPEAVPxConvexMesh@3@II@Z 0000000180019190 f   GuMeshFactory.obj
 0001:00018230       ?getHeightFields@MeshFactory@Gu@physx@@QEBAIPEAPEAVPxHeightField@3@II@Z 0000000180019230 f   GuMeshFactory.obj
 0001:000182d0       ?getNbBVHs@MeshFactory@Gu@physx@@QEBAIXZ 00000001800192d0 f   GuMeshFactory.obj
 0001:00018310       ?getNbConvexMeshes@MeshFactory@Gu@physx@@QEBAIXZ 0000000180019310 f   GuMeshFactory.obj
 0001:00018350       ?getNbHeightFields@MeshFactory@Gu@physx@@QEBAIXZ 0000000180019350 f   GuMeshFactory.obj
 0001:00018390       ?getNbPrimitives@AABBTreeBuildNode@Gu@physx@@QEBAIXZ 0000000180019390 f i GuMeshFactory.obj
 0001:00018390       ?getNbRuntimePrimitives@AABBTreeBuildNode@Gu@physx@@QEBAIXZ 0000000180019390 f i GuMeshFactory.obj
 0001:000183a0       ?getNbSoftBodyMeshes@MeshFactory@Gu@physx@@QEBAIXZ 00000001800193a0 f   GuMeshFactory.obj
 0001:000183e0       ?getNbTetrahedronMeshes@MeshFactory@Gu@physx@@QEBAIXZ 00000001800193e0 f   GuMeshFactory.obj
 0001:00018420       ?getNbTriangleMeshes@MeshFactory@Gu@physx@@QEBAIXZ 0000000180019420 f   GuMeshFactory.obj
 0001:00018460       ?getNeg@AABBTreeBuildNode@Gu@physx@@QEBAPEBV123@XZ 0000000180019460 f i GuMeshFactory.obj
 0001:00018480       ?getPrimitives@AABBTreeBuildNode@Gu@physx@@QEAAPEAIPEAI@Z 0000000180019480 f i GuMeshFactory.obj
 0001:00018480       ?getPrimitives@AABBTreeBuildNode@Gu@physx@@QEBAPEBIPEBI@Z 0000000180019480 f i GuMeshFactory.obj
 0001:00018490       ?getSoftBodyMeshes@MeshFactory@Gu@physx@@QEBAIPEAPEAVPxSoftBodyMesh@3@II@Z 0000000180019490 f   GuMeshFactory.obj
 0001:00018530       ?getTetrahedronMeshes@MeshFactory@Gu@physx@@QEBAIPEAPEAVPxTetrahedronMesh@3@II@Z 0000000180019530 f   GuMeshFactory.obj
 0001:000185c0       ?getTriangleMeshes@MeshFactory@Gu@physx@@QEBAIPEAPEAVPxTriangleMesh@3@II@Z 00000001800195c0 f   GuMeshFactory.obj
 0001:00018650       ?growAndPushBack@?$PxArray@PEAVMeshFactoryListener@Gu@physx@@V?$PxReflectionAllocator@PEAVMeshFactoryListener@Gu@physx@@@3@@physx@@IEAAAEAPEAVMeshFactoryListener@Gu@2@AEBQEAV342@@Z 0000000180019650 f i GuMeshFactory.obj
 0001:00018780       ?isLeaf@AABBTreeBuildNode@Gu@physx@@QEBA_NXZ 0000000180019780 f i GuMeshFactory.obj
 0001:0001a240       ?moveFrom@AABBTreeBounds@Gu@physx@@QEAAXAEAV123@@Z 000000018001b240 f i GuMeshFactory.obj
 0001:0001a250       ?notifyFactoryListener@MeshFactory@Gu@physx@@QEAAXPEBVPxBase@3@G@Z 000000018001b250 f   GuMeshFactory.obj
 0001:0001a2c0       ?notifyListenersAdd@MeshFactory@Gu@physx@@IEAAXPEBVPxBase@3@@Z 000000018001b2c0 f   GuMeshFactory.obj
 0001:0001a310       ?notifyListenersRemove@MeshFactory@Gu@physx@@IEAAXPEBVPxBase@3@@Z 000000018001b310 f   GuMeshFactory.obj
 0001:0001a360       ?ownsMemory@AABBTreeBounds@Gu@physx@@QEBA_NXZ 000000018001b360 f i GuMeshFactory.obj
 0001:0001a640       ?recreate@?$PxArray@USlab@NodeAllocator@Gu@physx@@V?$PxReflectionAllocator@USlab@NodeAllocator@Gu@physx@@@4@@physx@@IEAAXI@Z 000000018001b640 f i GuMeshFactory.obj
 0001:0001a6f0       ?release@CollisionMeshMappingData@Gu@physx@@UEAAXXZ 000000018001b6f0 f i GuMeshFactory.obj
 0001:0001a710       ?release@MeshFactory@Gu@physx@@QEAAXXZ 000000018001b710 f   GuMeshFactory.obj
 0001:0001a810       ?remove@MeshFactory@Gu@physx@@QEAA_NAEAVPxBase@3@@Z 000000018001b810 f   GuMeshFactory.obj
 0001:0001a860       ?removeBVH@MeshFactory@Gu@physx@@QEAA_NAEAVPxBVH@3@@Z 000000018001b860 f   GuMeshFactory.obj
 0001:0001a8f0       ?removeConvexMesh@MeshFactory@Gu@physx@@QEAA_NAEAVPxConvexMesh@3@@Z 000000018001b8f0 f   GuMeshFactory.obj
 0001:0001a980       ?removeFactoryListener@MeshFactory@Gu@physx@@QEAAXAEAVMeshFactoryListener@23@@Z 000000018001b980 f   GuMeshFactory.obj
 0001:0001aa10       ?removeHeightField@MeshFactory@Gu@physx@@QEAA_NAEAVPxHeightField@3@@Z 000000018001ba10 f   GuMeshFactory.obj
 0001:0001aaa0       ?removeSoftBodyMesh@MeshFactory@Gu@physx@@QEAA_NAEAVPxSoftBodyMesh@3@@Z 000000018001baa0 f   GuMeshFactory.obj
 0001:0001ab30       ?removeTetrahedronMesh@MeshFactory@Gu@physx@@QEAA_NAEAVPxTetrahedronMesh@3@@Z 000000018001bb30 f   GuMeshFactory.obj
 0001:0001abc0       ?removeTriangleMesh@MeshFactory@Gu@physx@@QEAA_NAEAVPxTriangleMesh@3@@Z 000000018001bbc0 f   GuMeshFactory.obj
 0001:0001ac50       ?reserveInternal@?$PxHashBase@PEAVBVH@Gu@physx@@PEAV123@U?$PxHash@PEAVBVH@Gu@physx@@@3@UGetKey@?$PxHashSetBase@PEAVBVH@Gu@physx@@U?$PxHash@PEAVBVH@Gu@physx@@@3@VPxAllocator@3@$00@3@VPxAllocator@3@$00@physx@@AEAAXI@Z 000000018001bc50 f i GuMeshFactory.obj
 0001:0001ac50       ?reserveInternal@?$PxHashBase@PEAVConvexMesh@Gu@physx@@PEAV123@U?$PxHash@PEAVConvexMesh@Gu@physx@@@3@UGetKey@?$PxHashSetBase@PEAVConvexMesh@Gu@physx@@U?$PxHash@PEAVConvexMesh@Gu@physx@@@3@VPxAllocator@3@$00@3@VPxAllocator@3@$00@physx@@AEAAXI@Z 000000018001bc50 f i GuMeshFactory.obj
 0001:0001ac50       ?reserveInternal@?$PxHashBase@PEAVHeightField@Gu@physx@@PEAV123@U?$PxHash@PEAVHeightField@Gu@physx@@@3@UGetKey@?$PxHashSetBase@PEAVHeightField@Gu@physx@@U?$PxHash@PEAVHeightField@Gu@physx@@@3@VPxAllocator@3@$00@3@VPxAllocator@3@$00@physx@@AEAAXI@Z 000000018001bc50 f i GuMeshFactory.obj
 0001:0001ac50       ?reserveInternal@?$PxHashBase@PEAVSoftBodyMesh@Gu@physx@@PEAV123@U?$PxHash@PEAVSoftBodyMesh@Gu@physx@@@3@UGetKey@?$PxHashSetBase@PEAVSoftBodyMesh@Gu@physx@@U?$PxHash@PEAVSoftBodyMesh@Gu@physx@@@3@VPxAllocator@3@$00@3@VPxAllocator@3@$00@physx@@AEAAXI@Z 000000018001bc50 f i GuMeshFactory.obj
 0001:0001ac50       ?reserveInternal@?$PxHashBase@PEAVTetrahedronMesh@Gu@physx@@PEAV123@U?$PxHash@PEAVTetrahedronMesh@Gu@physx@@@3@UGetKey@?$PxHashSetBase@PEAVTetrahedronMesh@Gu@physx@@U?$PxHash@PEAVTetrahedronMesh@Gu@physx@@@3@VPxAllocator@3@$00@3@VPxAllocator@3@$00@physx@@AEAAXI@Z 000000018001bc50 f i GuMeshFactory.obj
 0001:0001ac50       ?reserveInternal@?$PxHashBase@PEAVTriangleMesh@Gu@physx@@PEAV123@U?$PxHash@PEAVTriangleMesh@Gu@physx@@@3@UGetKey@?$PxHashSetBase@PEAVTriangleMesh@Gu@physx@@U?$PxHash@PEAVTriangleMesh@Gu@physx@@@3@VPxAllocator@3@$00@3@VPxAllocator@3@$00@physx@@AEAAXI@Z 000000018001bc50 f i GuMeshFactory.obj
 0001:0001ae20       ?setBounds@AABBTreeBounds@Gu@physx@@QEAAXPEAVPxBounds3@3@@Z 000000018001be20 f i GuMeshFactory.obj
 0001:0001ae30       ?setNbRunTimePrimitives@AABBTreeBuildNode@Gu@physx@@QEAAXI@Z 000000018001be30 f i GuMeshFactory.obj
 0001:0001ae40       ?takeOwnership@AABBTreeBounds@Gu@physx@@QEAAXXZ 000000018001be40 f i GuMeshFactory.obj
 0001:0001ae50       getInsertionCallback       000000018001be50 f   GuMeshFactory.obj
 0001:0001ae60       ??4BigConvexData@physx@@QEAAAEAV01@AEBV01@@Z 000000018001be60 f i GuMetaData.obj
 0001:0001ae80       ?GetAdjacentVerts@BigConvexData@physx@@QEBAPEBEXZ 000000018001be80 f i GuMetaData.obj
 0001:0001ae80       ?getSoftBodyAuxData@SoftBodyMesh@Gu@physx@@UEAAPEAVPxSoftBodyAuxData@3@XZ 000000018001be80 f i GuTetrahedronMesh.obj
 0001:0001ae80       ?getSoftBodyAuxData@SoftBodyMesh@Gu@physx@@UEBAPEBVPxSoftBodyAuxData@3@XZ 000000018001be80 f i GuTetrahedronMesh.obj
 0001:0001ae80       ?getTransforms@PruningPool@Gu@physx@@QEAAPEAV?$PxTransformT@M@3@XZ 000000018001be80 f i GuIncrementalAABBPrunerCore.obj
 0001:0001ae80       ?getTransforms@PruningPool@Gu@physx@@QEBAPEBV?$PxTransformT@M@3@XZ 000000018001be80 f i GuIncrementalAABBPrunerCore.obj
 0001:0001ae80       ?getTriangles@TriangleMesh@Gu@physx@@UEBAPEBXXZ 000000018001be80 f i GuTriangleMesh.obj
 0001:0001ae90       ?GetNbNeighbors@BigConvexData@physx@@QEBAGI@Z 000000018001be90 f i GuMetaData.obj
 0001:0001ae90       ?GetValency@BigConvexData@physx@@QEBAGI@Z 000000018001be90 f i GuMetaData.obj
 0001:0001aea0       ?GetNbSamples@BigConvexData@physx@@QEBAIXZ 000000018001bea0 f i GuMetaData.obj
 0001:0001aeb0       ?GetNbVerts@BigConvexData@physx@@QEBAIXZ 000000018001beb0 f i GuMetaData.obj
 0001:0001aeb0       ?getNbVertices@TetrahedronMesh@Gu@physx@@UEBAIXZ 000000018001beb0 f i GuTetrahedronMesh.obj
 0001:0001aeb0       ?getNbVertices@TriangleMesh@Gu@physx@@UEBAIXZ 000000018001beb0 f i GuTriangleMesh.obj
 0001:0001aeb0       ?length@pcharNode@@UEBAHXZ 000000018001beb0 f i libvcruntime:undname.obj
 0001:0001aeb0       ?raw_length@pcharNode@@UEBAHXZ 000000018001beb0 f i libvcruntime:undname.obj
 0001:0001aec0       ?GetNeighbors@BigConvexData@physx@@QEBAPEBEI@Z 000000018001bec0 f i GuMetaData.obj
 0001:0001aed0       ?GetOffset@BigConvexData@physx@@QEBAGI@Z 000000018001bed0 f i GuMetaData.obj
 0001:0001aee0       ?GetSubdiv@BigConvexData@physx@@QEBAIXZ 000000018001bee0 f i GuMetaData.obj
 0001:0001aef0       ?getBinaryMetaData@BV4Tree@Gu@physx@@SAXAEAVPxOutputStream@3@@Z 000000018001bef0 f   GuMetaData.obj
 0001:0001b490       ?getBinaryMetaData@BV4TriangleMesh@Gu@physx@@SAXAEAVPxOutputStream@3@@Z 000000018001c490 f   GuMetaData.obj
 0001:0001b810       ?getBinaryMetaData@BigConvexData@physx@@SAXAEAVPxOutputStream@2@@Z 000000018001c810 f   GuMetaData.obj
 0001:0001bad0       ?getBinaryMetaData@ConvexMesh@Gu@physx@@SAXAEAVPxOutputStream@3@@Z 000000018001cad0 f   GuMetaData.obj
 0001:0001c170       ?getBinaryMetaData@HeightField@Gu@physx@@SAXAEAVPxOutputStream@3@@Z 000000018001d170 f   GuMetaData.obj
 0001:0001c560       ?getBinaryMetaData@RTree@Gu@physx@@SAXAEAVPxOutputStream@3@@Z 000000018001d560 f   GuMetaData.obj
 0001:0001c890       ?getBinaryMetaData@RTreeTriangleMesh@Gu@physx@@SAXAEAVPxOutputStream@3@@Z 000000018001d890 f   GuMetaData.obj
 0001:0001c970       ?getBinaryMetaData@SDF@Gu@physx@@SAXAEAVPxOutputStream@3@@Z 000000018001d970 f   GuMetaData.obj
 0001:0001ce50       ?getBinaryMetaData@TriangleMesh@Gu@physx@@SAXAEAVPxOutputStream@3@@Z 000000018001de50 f   GuMetaData.obj
 0001:0001e500       ?doSupport@?$SupportLocalImpl@VConvexHullNoScaleV@Gu@physx@@@Gu@physx@@UEBA?AT__m128@@AEBT4@@Z 000000018001f500 f i GuMTD.obj
 0001:0001e550       ?doSupport@?$SupportLocalImpl@VConvexHullNoScaleV@Gu@physx@@@Gu@physx@@UEBAXAEBT__m128@@AEAT4@1@Z 000000018001f550 f i GuMTD.obj
 0001:0001e6d0       ?populateVerts@?$SupportLocalImpl@VConvexHullNoScaleV@Gu@physx@@@Gu@physx@@UEBAXPEBEIPEBV?$PxVec3T@M@3@PEAT__m128@@@Z 000000018001f6d0 f i GuMTD.obj
 0001:0001e710       ?getInternalData@TriangleMesh@Gu@physx@@UEBA_NAEAUPxTriangleMeshInternalData@3@_N@Z 000000018001f710 f   GuTriangleMesh.obj
 0001:0001e710       ?isDynamic@Pruner@Gu@physx@@UEBA_NXZ 000000018001f710 f   GuIncrementalAABBPruner.obj
 0001:00020550       ??$gjk@U?$LocalConvex@VCapsuleV@Gu@physx@@@Gu@physx@@U?$LocalConvex@VConvexHullV@Gu@physx@@@23@@Gu@physx@@YA?AW4GjkStatus@01@AEBU?$LocalConvex@VCapsuleV@Gu@physx@@@01@AEBU?$LocalConvex@VConvexHullV@Gu@physx@@@01@AEBT__m128@@2AEAT5@333@Z 0000000180021550 f i GuMTD.obj
 0001:000212b0       ??0SeparatingAxes@Gu@physx@@QEAA@$$QEAV012@@Z 00000001800222b0 f i GuMTD.obj
 0001:000212b0       ??0SeparatingAxes@Gu@physx@@QEAA@AEBV012@@Z 00000001800222b0 f i GuMTD.obj
 0001:000213c0       ??0SeparatingAxes@Gu@physx@@QEAA@XZ 00000001800223c0 f i GuMTD.obj
 0001:000213d0       ??4SeparatingAxes@Gu@physx@@QEAAAEAV012@$$QEAV012@@Z 00000001800223d0 f i GuMTD.obj
 0001:000213d0       ??4SeparatingAxes@Gu@physx@@QEAAAEAV012@AEBV012@@Z 00000001800223d0 f i GuMTD.obj
 0001:000214e0       ??_E?$LocalConvex@UCustomConvexV@@@Gu@physx@@UEAAPEAXI@Z 00000001800224e0 f i GuGjkQuery.obj
 0001:000214e0       ??_E?$LocalConvex@UPointConvexV@@@Gu@physx@@UEAAPEAXI@Z 00000001800224e0 f i GuGjkQuery.obj
 0001:000214e0       ??_E?$LocalConvex@VBoxV@Gu@physx@@@Gu@physx@@UEAAPEAXI@Z 00000001800224e0 f i GuSweepTests.obj
 0001:000214e0       ??_E?$LocalConvex@VCapsuleV@Gu@physx@@@Gu@physx@@UEAAPEAXI@Z 00000001800224e0 f i GuMTD.obj
 0001:000214e0       ??_E?$LocalConvex@VConvexHullNoScaleV@Gu@physx@@@Gu@physx@@UEAAPEAXI@Z 00000001800224e0 f i GuPCMContactBoxConvex.obj
 0001:000214e0       ??_E?$LocalConvex@VConvexHullV@Gu@physx@@@Gu@physx@@UEAAPEAXI@Z 00000001800224e0 f i GuMTD.obj
 0001:000214e0       ??_E?$LocalConvex@VTetrahedronV@Gu@physx@@@Gu@physx@@UEAAPEAXI@Z 00000001800224e0 f i GuCookingTetrahedronMesh.obj
 0001:000214e0       ??_E?$LocalConvex@VTriangleV@Gu@physx@@@Gu@physx@@UEAAPEAXI@Z 00000001800224e0 f i GuSweepTests.obj
 0001:000214e0       ??_EGjkConvex@Gu@physx@@UEAAPEAXI@Z 00000001800224e0 f i GuMTD.obj
 0001:000214e0       ??_G?$LocalConvex@UCustomConvexV@@@Gu@physx@@UEAAPEAXI@Z 00000001800224e0 f i GuGjkQuery.obj
 0001:000214e0       ??_G?$LocalConvex@UPointConvexV@@@Gu@physx@@UEAAPEAXI@Z 00000001800224e0 f i GuGjkQuery.obj
 0001:000214e0       ??_G?$LocalConvex@VBoxV@Gu@physx@@@Gu@physx@@UEAAPEAXI@Z 00000001800224e0 f i GuSweepTests.obj
 0001:000214e0       ??_G?$LocalConvex@VCapsuleV@Gu@physx@@@Gu@physx@@UEAAPEAXI@Z 00000001800224e0 f i GuMTD.obj
 0001:000214e0       ??_G?$LocalConvex@VConvexHullNoScaleV@Gu@physx@@@Gu@physx@@UEAAPEAXI@Z 00000001800224e0 f i GuPCMContactBoxConvex.obj
 0001:000214e0       ??_G?$LocalConvex@VConvexHullV@Gu@physx@@@Gu@physx@@UEAAPEAXI@Z 00000001800224e0 f i GuMTD.obj
 0001:000214e0       ??_G?$LocalConvex@VTetrahedronV@Gu@physx@@@Gu@physx@@UEAAPEAXI@Z 00000001800224e0 f i GuCookingTetrahedronMesh.obj
 0001:000214e0       ??_G?$LocalConvex@VTriangleV@Gu@physx@@@Gu@physx@@UEAAPEAXI@Z 00000001800224e0 f i GuSweepTests.obj
 0001:000214e0       ??_GGjkConvex@Gu@physx@@UEAAPEAXI@Z 00000001800224e0 f i GuMTD.obj
 0001:00025670       ?getAxes@SeparatingAxes@Gu@physx@@QEBAPEBV?$PxVec3T@M@3@XZ 0000000180026670 f i GuMTD.obj
 0001:00025680       ?getCenter@?$LocalConvex@UCustomConvexV@@@Gu@physx@@UEBA?AT__m128@@XZ 0000000180026680 f i GuGjkQuery.obj
 0001:00025680       ?getCenter@?$LocalConvex@UPointConvexV@@@Gu@physx@@UEBA?AT__m128@@XZ 0000000180026680 f i GuGjkQuery.obj
 0001:00025680       ?getCenter@?$LocalConvex@VBoxV@Gu@physx@@@Gu@physx@@UEBA?AT__m128@@XZ 0000000180026680 f i GuSweepTests.obj
 0001:00025680       ?getCenter@?$LocalConvex@VCapsuleV@Gu@physx@@@Gu@physx@@UEBA?AT__m128@@XZ 0000000180026680 f i GuMTD.obj
 0001:00025680       ?getCenter@?$LocalConvex@VConvexHullNoScaleV@Gu@physx@@@Gu@physx@@UEBA?AT__m128@@XZ 0000000180026680 f i GuPCMContactBoxConvex.obj
 0001:00025680       ?getCenter@?$LocalConvex@VConvexHullV@Gu@physx@@@Gu@physx@@UEBA?AT__m128@@XZ 0000000180026680 f i GuMTD.obj
 0001:00025680       ?getCenter@?$LocalConvex@VTetrahedronV@Gu@physx@@@Gu@physx@@UEBA?AT__m128@@XZ 0000000180026680 f i GuCookingTetrahedronMesh.obj
 0001:00025680       ?getCenter@?$LocalConvex@VTriangleV@Gu@physx@@@Gu@physx@@UEBA?AT__m128@@XZ 0000000180026680 f i GuSweepTests.obj
 0001:00025690       ?getCount@BuildStats@Gu@physx@@QEBAIXZ 0000000180026690 f i GuBV4Build.obj
 0001:00025690       ?getNbActiveObjects@PruningPool@Gu@physx@@QEBAIXZ 0000000180026690 f i GuIncrementalAABBPrunerCore.obj
 0001:00025690       ?getNumAxes@SeparatingAxes@Gu@physx@@QEBAIXZ 0000000180026690 f i GuMTD.obj
 0001:000256a0       ?getSweepMargin@?$LocalConvex@VCapsuleV@Gu@physx@@@Gu@physx@@UEBA?AT__m128@@XZ 00000001800266a0 f i GuMTD.obj
 0001:000256a0       ?getSweepMargin@?$RelativeConvex@VCapsuleV@Gu@physx@@@Gu@physx@@UEBA?AT__m128@@XZ 00000001800266a0 f i GuCCDSweepPrimitives.obj
 0001:000256b0       ?getSweepMargin@?$LocalConvex@UCustomConvexV@@@Gu@physx@@UEBA?AT__m128@@XZ 00000001800266b0 f i GuGjkQuery.obj
 0001:000256b0       ?getSweepMargin@?$LocalConvex@UPointConvexV@@@Gu@physx@@UEBA?AT__m128@@XZ 00000001800266b0 f i GuGjkQuery.obj
 0001:000256b0       ?getSweepMargin@?$LocalConvex@VBoxV@Gu@physx@@@Gu@physx@@UEBA?AT__m128@@XZ 00000001800266b0 f i GuSweepTests.obj
 0001:000256b0       ?getSweepMargin@?$LocalConvex@VConvexHullNoScaleV@Gu@physx@@@Gu@physx@@UEBA?AT__m128@@XZ 00000001800266b0 f i GuPCMContactBoxConvex.obj
 0001:000256b0       ?getSweepMargin@?$LocalConvex@VConvexHullV@Gu@physx@@@Gu@physx@@UEBA?AT__m128@@XZ 00000001800266b0 f i GuMTD.obj
 0001:000256b0       ?getSweepMargin@?$RelativeConvex@UCustomConvexV@@@Gu@physx@@UEBA?AT__m128@@XZ 00000001800266b0 f i GuGjkQuery.obj
 0001:000256b0       ?getSweepMargin@?$RelativeConvex@VBoxV@Gu@physx@@@Gu@physx@@UEBA?AT__m128@@XZ 00000001800266b0 f i GuOverlapTests.obj
 0001:000256b0       ?getSweepMargin@?$RelativeConvex@VConvexHullNoScaleV@Gu@physx@@@Gu@physx@@UEBA?AT__m128@@XZ 00000001800266b0 f i GuPCMContactConvexConvex.obj
 0001:000256b0       ?getSweepMargin@?$RelativeConvex@VConvexHullV@Gu@physx@@@Gu@physx@@UEBA?AT__m128@@XZ 00000001800266b0 f i GuOverlapTests.obj
 0001:000256d0       ?getSweepMargin@GjkConvex@Gu@physx@@UEBA?AT__m128@@XZ 00000001800266d0 f i GuMTD.obj
 0001:000256f0       ?pointConvexDistance@@YA_NAEAV?$PxVec3T@M@physx@@0AEAMAEBV12@PEBVConvexMesh@Gu@2@AEBVPxMeshScale@2@AEBUPxTransformPadded@2@@Z 00000001800266f0 f   GuMTD.obj
 0001:00026450       ?reset@SeparatingAxes@Gu@physx@@QEAAXXZ 0000000180027450 f i GuMTD.obj
 0001:00026460       ?support@?$LocalConvex@VCapsuleV@Gu@physx@@@Gu@physx@@UEBA?AT__m128@@AEBT4@@Z 0000000180027460 f i GuMTD.obj
 0001:000264c0       ?support@?$LocalConvex@VCapsuleV@Gu@physx@@@Gu@physx@@UEBA?AT__m128@@AEBT4@AEAH@Z 00000001800274c0 f i GuMTD.obj
 0001:00026530       ?support@?$LocalConvex@VConvexHullV@Gu@physx@@@Gu@physx@@UEBA?AT__m128@@AEBT4@@Z 0000000180027530 f i GuMTD.obj
 0001:00026610       ?support@?$LocalConvex@VConvexHullV@Gu@physx@@@Gu@physx@@UEBA?AT__m128@@AEBT4@AEAH@Z 0000000180027610 f i GuMTD.obj
 0001:000266e0       ?support@GjkConvex@Gu@physx@@UEBA?AT__m128@@AEBT4@@Z 00000001800276e0 f i GuMTD.obj
 0001:00026700       ?support@GjkConvex@Gu@physx@@UEBA?AT__m128@@AEBT4@AEAH@Z 0000000180027700 f i GuMTD.obj
 0001:00026720       ?supportPoint@?$LocalConvex@VCapsuleV@Gu@physx@@@Gu@physx@@UEBA?AT__m128@@H@Z 0000000180027720 f i GuMTD.obj
 0001:00026750       ?supportPoint@?$LocalConvex@VConvexHullV@Gu@physx@@@Gu@physx@@UEBA?AT__m128@@H@Z 0000000180027750 f i GuMTD.obj
 0001:000267a0       ?supportPoint@GjkConvex@Gu@physx@@UEBA?AT__m128@@H@Z 00000001800277a0 f i GuMTD.obj
 0001:000267c0       ?supportPoint@?$RelativeConvex@VBoxV@Gu@physx@@@Gu@physx@@UEBA?AT__m128@@H@Z 00000001800277c0 f i GuOverlapTests.obj
 0001:00026830       ?support@?$RelativeConvex@VBoxV@Gu@physx@@@Gu@physx@@UEBA?AT__m128@@AEBT4@@Z 0000000180027830 f i GuOverlapTests.obj
 0001:000268b0       ?support@?$RelativeConvex@VBoxV@Gu@physx@@@Gu@physx@@UEBA?AT__m128@@AEBT4@AEAH@Z 00000001800278b0 f i GuOverlapTests.obj
 0001:00026940       ?getCenter@?$RelativeConvex@UCustomConvexV@@@Gu@physx@@UEBA?AT__m128@@XZ 0000000180027940 f i GuGjkQuery.obj
 0001:00026940       ?getCenter@?$RelativeConvex@VBoxV@Gu@physx@@@Gu@physx@@UEBA?AT__m128@@XZ 0000000180027940 f i GuOverlapTests.obj
 0001:00026940       ?getCenter@?$RelativeConvex@VCapsuleV@Gu@physx@@@Gu@physx@@UEBA?AT__m128@@XZ 0000000180027940 f i GuCCDSweepPrimitives.obj
 0001:00026940       ?getCenter@?$RelativeConvex@VConvexHullNoScaleV@Gu@physx@@@Gu@physx@@UEBA?AT__m128@@XZ 0000000180027940 f i GuPCMContactConvexConvex.obj
 0001:00026940       ?getCenter@?$RelativeConvex@VConvexHullV@Gu@physx@@@Gu@physx@@UEBA?AT__m128@@XZ 0000000180027940 f i GuOverlapTests.obj
 0001:00026940       ?getCenter@?$RelativeConvex@VTriangleV@Gu@physx@@@Gu@physx@@UEBA?AT__m128@@XZ 0000000180027940 f i GuCCDSweepPrimitives.obj
 0001:00026980       ??_E?$RelativeConvex@UCustomConvexV@@@Gu@physx@@UEAAPEAXI@Z 0000000180027980 f i GuGjkQuery.obj
 0001:00026980       ??_E?$RelativeConvex@VBoxV@Gu@physx@@@Gu@physx@@UEAAPEAXI@Z 0000000180027980 f i GuOverlapTests.obj
 0001:00026980       ??_E?$RelativeConvex@VCapsuleV@Gu@physx@@@Gu@physx@@UEAAPEAXI@Z 0000000180027980 f i GuCCDSweepPrimitives.obj
 0001:00026980       ??_E?$RelativeConvex@VConvexHullNoScaleV@Gu@physx@@@Gu@physx@@UEAAPEAXI@Z 0000000180027980 f i GuPCMContactConvexConvex.obj
 0001:00026980       ??_E?$RelativeConvex@VConvexHullV@Gu@physx@@@Gu@physx@@UEAAPEAXI@Z 0000000180027980 f i GuOverlapTests.obj
 0001:00026980       ??_E?$RelativeConvex@VTriangleV@Gu@physx@@@Gu@physx@@UEAAPEAXI@Z 0000000180027980 f i GuCCDSweepPrimitives.obj
 0001:00026980       ??_G?$RelativeConvex@UCustomConvexV@@@Gu@physx@@UEAAPEAXI@Z 0000000180027980 f i GuGjkQuery.obj
 0001:00026980       ??_G?$RelativeConvex@VBoxV@Gu@physx@@@Gu@physx@@UEAAPEAXI@Z 0000000180027980 f i GuOverlapTests.obj
 0001:00026980       ??_G?$RelativeConvex@VCapsuleV@Gu@physx@@@Gu@physx@@UEAAPEAXI@Z 0000000180027980 f i GuCCDSweepPrimitives.obj
 0001:00026980       ??_G?$RelativeConvex@VConvexHullNoScaleV@Gu@physx@@@Gu@physx@@UEAAPEAXI@Z 0000000180027980 f i GuPCMContactConvexConvex.obj
 0001:00026980       ??_G?$RelativeConvex@VConvexHullV@Gu@physx@@@Gu@physx@@UEAAPEAXI@Z 0000000180027980 f i GuOverlapTests.obj
 0001:00026980       ??_G?$RelativeConvex@VTriangleV@Gu@physx@@@Gu@physx@@UEAAPEAXI@Z 0000000180027980 f i GuCCDSweepPrimitives.obj
 0001:00028b30       ?supportPoint@?$RelativeConvex@VConvexHullV@Gu@physx@@@Gu@physx@@UEBA?AT__m128@@H@Z 0000000180029b30 f i GuOverlapTests.obj
 0001:00028bb0       ?support@?$RelativeConvex@VConvexHullV@Gu@physx@@@Gu@physx@@UEBA?AT__m128@@AEBT4@@Z 0000000180029bb0 f i GuOverlapTests.obj
 0001:00028ce0       ?support@?$RelativeConvex@VConvexHullV@Gu@physx@@@Gu@physx@@UEBA?AT__m128@@AEBT4@AEAH@Z 0000000180029ce0 f i GuOverlapTests.obj
 0001:00028e70       ??$gjk@U?$RelativeConvex@VBoxV@Gu@physx@@@Gu@physx@@U?$LocalConvex@VConvexHullV@Gu@physx@@@23@@Gu@physx@@YA?AW4GjkStatus@01@AEBU?$RelativeConvex@VBoxV@Gu@physx@@@01@AEBU?$LocalConvex@VConvexHullV@Gu@physx@@@01@AEBT__m128@@2AEAT5@333@Z 0000000180029e70 f i GuOverlapTests.obj
 0001:00029c20       ??$gjk@U?$RelativeConvex@VConvexHullV@Gu@physx@@@Gu@physx@@U?$LocalConvex@VConvexHullV@Gu@physx@@@23@@Gu@physx@@YA?AW4GjkStatus@01@AEBU?$RelativeConvex@VConvexHullV@Gu@physx@@@01@AEBU?$LocalConvex@VConvexHullV@Gu@physx@@@01@AEBT__m128@@2AEAT5@333@Z 000000018002ac20 f i GuOverlapTests.obj
 0001:0002aaa0       ?ComputeCubemapNearestOffset@physx@@YAIAEBV?$PxVec3T@M@1@I@Z 000000018002baa0 f i GuOverlapTests.obj
 0001:0002aba0       ?getOverlapFuncTable@Gu@physx@@YAPEAY0L@Q6A_NAEBVPxGeometry@2@AEBV?$PxTransformT@M@2@01PEAUTriggerCache@12@PEAUPxQueryThreadContext@2@@ZXZ 000000018002bba0 f   GuOverlapTests.obj
 0001:0002c740       ?raycast_box@@YAIAEBVPxGeometry@physx@@AEBV?$PxTransformT@M@2@AEBV?$PxVec3T@M@2@2MV?$PxFlags@W4Enum@PxHitFlag@physx@@G@2@IPEIAUPxGeomRaycastHit@2@IPEAUPxQueryThreadContext@2@@Z 000000018002d740 f   GuRaycastTests.obj
 0001:0002cd70       ?raycast_sphere@@YAIAEBVPxGeometry@physx@@AEBV?$PxTransformT@M@2@AEBV?$PxVec3T@M@2@2MV?$PxFlags@W4Enum@PxHitFlag@physx@@G@2@IPEIAUPxGeomRaycastHit@2@IPEAUPxQueryThreadContext@2@@Z 000000018002dd70 f   GuRaycastTests.obj
 0001:0002cf00       ?raycast_capsule@@YAIAEBVPxGeometry@physx@@AEBV?$PxTransformT@M@2@AEBV?$PxVec3T@M@2@2MV?$PxFlags@W4Enum@PxHitFlag@physx@@G@2@IPEIAUPxGeomRaycastHit@2@IPEAUPxQueryThreadContext@2@@Z 000000018002df00 f   GuRaycastTests.obj
 0001:0002d460       ?raycast_plane@@YAIAEBVPxGeometry@physx@@AEBV?$PxTransformT@M@2@AEBV?$PxVec3T@M@2@2MV?$PxFlags@W4Enum@PxHitFlag@physx@@G@2@IPEIAUPxGeomRaycastHit@2@IPEAUPxQueryThreadContext@2@@Z 000000018002e460 f   GuRaycastTests.obj
 0001:0002d5d0       ?raycast_convexMesh@@YAIAEBVPxGeometry@physx@@AEBV?$PxTransformT@M@2@AEBV?$PxVec3T@M@2@2MV?$PxFlags@W4Enum@PxHitFlag@physx@@G@2@IPEIAUPxGeomRaycastHit@2@IPEAUPxQueryThreadContext@2@@Z 000000018002e5d0 f   GuRaycastTests.obj
 0001:0002e0d0       ?getMidphaseID@RTreeTriangleMesh@Gu@physx@@UEBA?AW4Enum@PxMeshMidPhase@3@XZ 000000018002f0d0 f   GuTriangleMeshRTree.obj
 0001:0002e0d0       ?getMidphaseID@RTreeTriangleMeshBuilder@physx@@UEBA?AW4Enum@PxMeshMidPhase@2@XZ 000000018002f0d0 f   GuCookingTriangleMesh.obj
 0001:0002e0d0       ?getTetrahedraRemap@TetrahedronMesh@Gu@physx@@UEBAPEBIXZ 000000018002f0d0 f   GuTetrahedronMesh.obj
 0001:0002e0d0       ?raycast_hairsystem@@YAIAEBVPxGeometry@physx@@AEBV?$PxTransformT@M@2@AEBV?$PxVec3T@M@2@2MV?$PxFlags@W4Enum@PxHitFlag@physx@@G@2@IPEIAUPxGeomRaycastHit@2@IPEAUPxQueryThreadContext@2@@Z 000000018002f0d0 f   GuRaycastTests.obj
 0001:0002e0d0       ?raycast_particlesystem@@YAIAEBVPxGeometry@physx@@AEBV?$PxTransformT@M@2@AEBV?$PxVec3T@M@2@2MV?$PxFlags@W4Enum@PxHitFlag@physx@@G@2@IPEIAUPxGeomRaycastHit@2@IPEAUPxQueryThreadContext@2@@Z 000000018002f0d0 f   GuRaycastTests.obj
 0001:0002e0d0       ?raycast_softbody@@YAIAEBVPxGeometry@physx@@AEBV?$PxTransformT@M@2@AEBV?$PxVec3T@M@2@2MV?$PxFlags@W4Enum@PxHitFlag@physx@@G@2@IPEIAUPxGeomRaycastHit@2@IPEAUPxQueryThreadContext@2@@Z 000000018002f0d0 f   GuRaycastTests.obj
 0001:0002e0e0       ?raycast_triangleMesh@@YAIAEBVPxGeometry@physx@@AEBV?$PxTransformT@M@2@AEBV?$PxVec3T@M@2@2MV?$PxFlags@W4Enum@PxHitFlag@physx@@G@2@IPEIAUPxGeomRaycastHit@2@IPEAUPxQueryThreadContext@2@@Z 000000018002f0e0 f   GuRaycastTests.obj
 0001:0002e170       ?raycast_heightField@@YAIAEBVPxGeometry@physx@@AEBV?$PxTransformT@M@2@AEBV?$PxVec3T@M@2@2MV?$PxFlags@W4Enum@PxHitFlag@physx@@G@2@IPEIAUPxGeomRaycastHit@2@IPEAUPxQueryThreadContext@2@@Z 000000018002f170 f   GuRaycastTests.obj
 0001:0002fbc0       ??Dphysx@@YA?AV?$PxMat34T@M@0@AEBVPxMeshScale@0@AEBV?$PxTransformT@M@0@@Z 0000000180030bc0 f i GuRaycastTests.obj
 0001:000306a0       ?getRaycastFuncTable@Gu@physx@@YAAEAY0L@Q6AIAEBVPxGeometry@2@AEBV?$PxTransformT@M@2@AEBV?$PxVec3T@M@2@2MV?$PxFlags@W4Enum@PxHitFlag@physx@@G@2@IPEIAUPxGeomRaycastHit@2@IPEAUPxQueryThreadContext@2@@ZXZ 00000001800316a0 f   GuRaycastTests.obj
 0001:000306b0       ??Dphysx@@YA?AV?$PxMat34T@M@0@AEBV?$PxTransformT@M@0@AEBVPxMeshScale@0@@Z 00000001800316b0 f i GuSweepMTD.obj
 0001:00030bf0       ??_E?$MeshHitCallback@UPxGeomRaycastHit@physx@@@Gu@physx@@UEAAPEAXI@Z 0000000180031bf0 f i GuSweepMTD.obj
 0001:00030bf0       ??_G?$MeshHitCallback@UPxGeomRaycastHit@physx@@@Gu@physx@@UEAAPEAXI@Z 0000000180031bf0 f i GuSweepMTD.obj
 0001:00030c20       ??_EMeshMTDGenerationCallback@@UEAAPEAXI@Z 0000000180031c20 f i GuSweepMTD.obj
 0001:00030c20       ??_GMeshMTDGenerationCallback@@UEAAPEAXI@Z 0000000180031c20 f i GuSweepMTD.obj
 0001:00030c50       ??_EMidPhaseQueryLocalReport@@UEAAPEAXI@Z 0000000180031c50 f i GuSweepMTD.obj
 0001:00030c50       ??_ERTreeCookerRemap@@UEAAPEAXI@Z 0000000180031c50 f i GuCookingTriangleMesh.obj
 0001:00030c50       ??_GMidPhaseQueryLocalReport@@UEAAPEAXI@Z 0000000180031c50 f i GuSweepMTD.obj
 0001:00030c50       ??_GRTreeCookerRemap@@UEAAPEAXI@Z 0000000180031c50 f i GuCookingTriangleMesh.obj
 0001:00030c80       ?allocate@?$PxArray@IV?$PxReflectionAllocator@I@physx@@@physx@@IEAAPEAII@Z 0000000180031c80 f i GuSweepMTD.obj
 0001:00030d30       ?computeBox_HeightFieldMTD@Gu@physx@@YA_NAEBVPxHeightFieldGeometry@2@AEBV?$PxTransformT@M@2@AEBVBox@12@1M_NAEAUPxGeomSweepHit@2@@Z 0000000180031d30 f   GuSweepMTD.obj
 0001:00031af0       ?computeBox_TriangleMeshMTD@Gu@physx@@YA_NAEBVPxTriangleMeshGeometry@2@AEBV?$PxTransformT@M@2@AEBVBox@12@1M_NAEAUPxGeomSweepHit@2@@Z 0000000180032af0 f   GuSweepMTD.obj
 0001:00032b30       ?computeCapsule_CapsuleMTD@Gu@physx@@YA_NAEBVCapsule@12@0AEAUPxGeomSweepHit@2@@Z 0000000180033b30 f   GuSweepMTD.obj
 0001:00032d70       ?computeCapsule_HeightFieldMTD@Gu@physx@@YA_NAEBVPxHeightFieldGeometry@2@AEBV?$PxTransformT@M@2@AEAVCapsuleV@12@M_NAEAUPxGeomSweepHit@2@@Z 0000000180033d70 f   GuSweepMTD.obj
 0001:00033540       ?computeCapsule_TriangleMeshMTD@Gu@physx@@YA_NAEBVPxTriangleMeshGeometry@2@AEBV?$PxTransformT@M@2@AEAVCapsuleV@12@M_NAEAUPxGeomSweepHit@2@@Z 0000000180034540 f   GuSweepMTD.obj
 0001:00033df0       ?computeConvex_HeightFieldMTD@Gu@physx@@YA_NAEBVPxHeightFieldGeometry@2@AEBV?$PxTransformT@M@2@AEBVPxConvexMeshGeometry@2@1M_NAEAUPxGeomSweepHit@2@@Z 0000000180034df0 f   GuSweepMTD.obj
 0001:000350c0       ?computeConvex_TriangleMeshMTD@Gu@physx@@YA_NAEBVPxTriangleMeshGeometry@2@AEBV?$PxTransformT@M@2@AEBVPxConvexMeshGeometry@2@1M_NAEAUPxGeomSweepHit@2@@Z 00000001800360c0 f   GuSweepMTD.obj
 0001:00036690       ?computePlane_BoxMTD@Gu@physx@@YA_NAEBVPxPlane@2@AEBVBox@12@AEAUPxGeomSweepHit@2@@Z 0000000180037690 f   GuSweepMTD.obj
 0001:00036930       ?computePlane_CapsuleMTD@Gu@physx@@YA_NAEBVPxPlane@2@AEBVCapsule@12@AEAUPxGeomSweepHit@2@@Z 0000000180037930 f   GuSweepMTD.obj
 0001:00036a50       ?computePlane_ConvexMTD@Gu@physx@@YA_NAEBVPxPlane@2@AEBVPxConvexMeshGeometry@2@AEBV?$PxTransformT@M@2@AEAUPxGeomSweepHit@2@@Z 0000000180037a50 f   GuSweepMTD.obj
 0001:000375a0       ?computeSphere_CapsuleMTD@Gu@physx@@YA_NAEBVSphere@12@AEBVCapsule@12@AEAUPxGeomSweepHit@2@@Z 00000001800385a0 f   GuSweepMTD.obj
 0001:00037750       ?computeSphere_SphereMTD@Gu@physx@@YA_NAEBVSphere@12@0AEAUPxGeomSweepHit@2@@Z 0000000180038750 f   GuSweepMTD.obj
 0001:00037840       ?getInverse@?$PxMat33T@M@physx@@QEBA?BV12@XZ 0000000180038840 f i GuSweepMTD.obj
 0001:00037a90       ?growAndPushBack@?$PxArray@IV?$PxReflectionAllocator@I@physx@@@physx@@IEAAAEAIAEBI@Z 0000000180038a90 f i GuSweepMTD.obj
 0001:00037b50       ?init@FastVertex2ShapeScaling@Cm@physx@@QEAAXAEBV?$PxVec3T@M@3@AEBV?$PxQuatT@M@3@@Z 0000000180038b50 f i GuSweepMTD.obj
 0001:00038440       ?processHit@MeshMTDGenerationCallback@@UEAA_NAEBUPxGeomRaycastHit@physx@@AEBV?$PxVec3T@M@3@11AEAMPEBI@Z 0000000180039440 f i GuSweepMTD.obj
 0001:00038490       ?recreate@?$PxArray@IV?$PxReflectionAllocator@I@physx@@@physx@@IEAAXI@Z 0000000180039490 f i GuSweepMTD.obj
 0001:00038530       ?reportTouchedTris@MidPhaseQueryLocalReport@@UEAA_NIPEBI@Z 0000000180039530 f i GuSweepMTD.obj
 0001:000385a0       ??$gjkPenetration@U?$LocalConvex@VCapsuleV@Gu@physx@@@Gu@physx@@U?$LocalConvex@VConvexHullV@Gu@physx@@@23@@Gu@physx@@YA?AW4GjkStatus@01@AEBU?$LocalConvex@VCapsuleV@Gu@physx@@@01@AEBU?$LocalConvex@VConvexHullV@Gu@physx@@@01@AEBT__m128@@2_NPEIAE4AEAEAEAUGjkOutput@01@@Z 00000001800395a0 f i GuSweepSharedTests.obj
 0001:00038610       ??$gjkPenetration@U?$LocalConvex@VCapsuleV@Gu@physx@@@Gu@physx@@U?$LocalConvex@VConvexHullV@Gu@physx@@@23@@Gu@physx@@YA?AW4GjkStatus@01@AEBU?$LocalConvex@VCapsuleV@Gu@physx@@@01@AEBU?$LocalConvex@VConvexHullV@Gu@physx@@@01@AEBT__m128@@2_NPEIAE4PEIAT5@5AEAEAEAUGjkOutput@01@@Z 0000000180039610 f i GuSweepSharedTests.obj
 0001:00039b40       ??$gjkPenetration@U?$RelativeConvex@VBoxV@Gu@physx@@@Gu@physx@@U?$LocalConvex@VConvexHullV@Gu@physx@@@23@@Gu@physx@@YA?AW4GjkStatus@01@AEBU?$RelativeConvex@VBoxV@Gu@physx@@@01@AEBU?$LocalConvex@VConvexHullV@Gu@physx@@@01@AEBT__m128@@2_NPEIAE4AEAEAEAUGjkOutput@01@@Z 000000018003ab40 f i GuSweepSharedTests.obj
 0001:00039bb0       ??$gjkPenetration@U?$RelativeConvex@VBoxV@Gu@physx@@@Gu@physx@@U?$LocalConvex@VConvexHullV@Gu@physx@@@23@@Gu@physx@@YA?AW4GjkStatus@01@AEBU?$RelativeConvex@VBoxV@Gu@physx@@@01@AEBU?$LocalConvex@VConvexHullV@Gu@physx@@@01@AEBT__m128@@2_NPEIAE4PEIAT5@5AEAEAEAUGjkOutput@01@@Z 000000018003abb0 f i GuSweepSharedTests.obj
 0001:0003b120       ??$gjkPenetration@U?$RelativeConvex@VConvexHullV@Gu@physx@@@Gu@physx@@U?$LocalConvex@VConvexHullV@Gu@physx@@@23@@Gu@physx@@YA?AW4GjkStatus@01@AEBU?$RelativeConvex@VConvexHullV@Gu@physx@@@01@AEBU?$LocalConvex@VConvexHullV@Gu@physx@@@01@AEBT__m128@@2_NPEIAE4AEAEAEAUGjkOutput@01@@Z 000000018003c120 f i GuSweepSharedTests.obj
 0001:0003b190       ??$gjkPenetration@U?$RelativeConvex@VConvexHullV@Gu@physx@@@Gu@physx@@U?$LocalConvex@VConvexHullV@Gu@physx@@@23@@Gu@physx@@YA?AW4GjkStatus@01@AEBU?$RelativeConvex@VConvexHullV@Gu@physx@@@01@AEBU?$LocalConvex@VConvexHullV@Gu@physx@@@01@AEBT__m128@@2_NPEIAE4PEIAT5@5AEAEAEAUGjkOutput@01@@Z 000000018003c190 f i GuSweepSharedTests.obj
 0001:0003c7b0       ??$gjkRaycast@U?$LocalConvex@VCapsuleV@Gu@physx@@@Gu@physx@@U?$LocalConvex@VConvexHullV@Gu@physx@@@23@@Gu@physx@@YA_NAEBU?$LocalConvex@VCapsuleV@Gu@physx@@@01@AEBU?$LocalConvex@VConvexHullV@Gu@physx@@@01@AEBT__m128@@222AEAT4@33M@Z 000000018003d7b0 f i GuSweepSharedTests.obj
 0001:0003d500       ??$gjkRaycast@U?$RelativeConvex@VBoxV@Gu@physx@@@Gu@physx@@U?$LocalConvex@VConvexHullV@Gu@physx@@@23@@Gu@physx@@YA_NAEBU?$RelativeConvex@VBoxV@Gu@physx@@@01@AEBU?$LocalConvex@VConvexHullV@Gu@physx@@@01@AEBT__m128@@222AEAT4@33M@Z 000000018003e500 f i GuSweepSharedTests.obj
 0001:0003e2f0       ??$gjkRaycast@U?$RelativeConvex@VConvexHullV@Gu@physx@@@Gu@physx@@U?$LocalConvex@VConvexHullV@Gu@physx@@@23@@Gu@physx@@YA_NAEBU?$RelativeConvex@VConvexHullV@Gu@physx@@@01@AEBU?$LocalConvex@VConvexHullV@Gu@physx@@@01@AEBT__m128@@222AEAT4@33M@Z 000000018003f2f0 f i GuSweepSharedTests.obj
 0001:0003f0d0       ??$gjkRaycastPenetration@U?$RelativeConvex@VConvexHullV@Gu@physx@@@Gu@physx@@U?$LocalConvex@VConvexHullV@Gu@physx@@@23@@Gu@physx@@YA_NAEBU?$RelativeConvex@VConvexHullV@Gu@physx@@@01@AEBU?$LocalConvex@VConvexHullV@Gu@physx@@@01@AEBT__m128@@222AEAT4@33M_N@Z 00000001800400d0 f i GuSweepSharedTests.obj
 0001:0003fca0       ?sweepBox_ConvexGeom@@YA_NAEBVPxGeometry@physx@@AEBV?$PxTransformT@M@2@AEBVPxBoxGeometry@2@1AEBVBox@Gu@2@AEBV?$PxVec3T@M@2@MAEAUPxGeomSweepHit@2@V?$PxFlags@W4Enum@PxHitFlag@physx@@G@2@MPEAUPxQueryThreadContext@2@@Z 0000000180040ca0 f   GuSweepSharedTests.obj
 0001:00040ac0       ?sweepBox_PlaneGeom@@YA_NAEBVPxGeometry@physx@@AEBV?$PxTransformT@M@2@AEBVPxBoxGeometry@2@1AEBVBox@Gu@2@AEBV?$PxVec3T@M@2@MAEAUPxGeomSweepHit@2@V?$PxFlags@W4Enum@PxHitFlag@physx@@G@2@MPEAUPxQueryThreadContext@2@@Z 0000000180041ac0 f   GuSweepSharedTests.obj
 0001:00040e90       ?sweepCapsuleTriangles@Gu@physx@@YA_NIPEBVPxTriangle@2@_NAEBVPxCapsuleGeometry@2@AEBV?$PxTransformT@M@2@AEBV?$PxVec3T@M@2@MAEAUPxGeomSweepHit@2@PEBIMV?$PxFlags@W4Enum@PxHitFlag@physx@@G@2@@Z 0000000180041e90 f   GuSweepSharedTests.obj
 0001:00041080       ?sweepCapsule_CapsuleGeom@@YA_NAEBVPxGeometry@physx@@AEBV?$PxTransformT@M@2@AEBVPxCapsuleGeometry@2@1AEBVCapsule@Gu@2@AEBV?$PxVec3T@M@2@MAEAUPxGeomSweepHit@2@V?$PxFlags@W4Enum@PxHitFlag@physx@@G@2@MPEAUPxQueryThreadContext@2@@Z 0000000180042080 f   GuSweepSharedTests.obj
 0001:00041260       ?sweepCapsule_ConvexGeom@@YA_NAEBVPxGeometry@physx@@AEBV?$PxTransformT@M@2@AEBVPxCapsuleGeometry@2@1AEBVCapsule@Gu@2@AEBV?$PxVec3T@M@2@MAEAUPxGeomSweepHit@2@V?$PxFlags@W4Enum@PxHitFlag@physx@@G@2@MPEAUPxQueryThreadContext@2@@Z 0000000180042260 f   GuSweepSharedTests.obj
 0001:00041f90       ?sweepCapsule_PlaneGeom@@YA_NAEBVPxGeometry@physx@@AEBV?$PxTransformT@M@2@AEBVPxCapsuleGeometry@2@1AEBVCapsule@Gu@2@AEBV?$PxVec3T@M@2@MAEAUPxGeomSweepHit@2@V?$PxFlags@W4Enum@PxHitFlag@physx@@G@2@MPEAUPxQueryThreadContext@2@@Z 0000000180042f90 f   GuSweepSharedTests.obj
 0001:00042270       ?sweepCapsule_SphereGeom@@YA_NAEBVPxGeometry@physx@@AEBV?$PxTransformT@M@2@AEBVPxCapsuleGeometry@2@1AEBVCapsule@Gu@2@AEBV?$PxVec3T@M@2@MAEAUPxGeomSweepHit@2@V?$PxFlags@W4Enum@PxHitFlag@physx@@G@2@MPEAUPxQueryThreadContext@2@@Z 0000000180043270 f   GuSweepSharedTests.obj
 0001:00042410       ?sweepConvex_BoxGeom@@YA_NAEBVPxGeometry@physx@@AEBV?$PxTransformT@M@2@AEBVPxConvexMeshGeometry@2@1AEBV?$PxVec3T@M@2@MAEAUPxGeomSweepHit@2@V?$PxFlags@W4Enum@PxHitFlag@physx@@G@2@MPEAUPxQueryThreadContext@2@@Z 0000000180043410 f   GuSweepSharedTests.obj
 0001:00042630       ?sweepConvex_CapsuleGeom@@YA_NAEBVPxGeometry@physx@@AEBV?$PxTransformT@M@2@AEBVPxConvexMeshGeometry@2@1AEBV?$PxVec3T@M@2@MAEAUPxGeomSweepHit@2@V?$PxFlags@W4Enum@PxHitFlag@physx@@G@2@MPEAUPxQueryThreadContext@2@@Z 0000000180043630 f   GuSweepSharedTests.obj
 0001:00042860       ?sweepConvex_ConvexGeom@@YA_NAEBVPxGeometry@physx@@AEBV?$PxTransformT@M@2@AEBVPxConvexMeshGeometry@2@1AEBV?$PxVec3T@M@2@MAEAUPxGeomSweepHit@2@V?$PxFlags@W4Enum@PxHitFlag@physx@@G@2@MPEAUPxQueryThreadContext@2@@Z 0000000180043860 f   GuSweepSharedTests.obj
 0001:00043830       ?sweepConvex_PlaneGeom@@YA_NAEBVPxGeometry@physx@@AEBV?$PxTransformT@M@2@AEBVPxConvexMeshGeometry@2@1AEBV?$PxVec3T@M@2@MAEAUPxGeomSweepHit@2@V?$PxFlags@W4Enum@PxHitFlag@physx@@G@2@MPEAUPxQueryThreadContext@2@@Z 0000000180044830 f   GuSweepSharedTests.obj
 0001:00043c70       ?sweepConvex_SphereGeom@@YA_NAEBVPxGeometry@physx@@AEBV?$PxTransformT@M@2@AEBVPxConvexMeshGeometry@2@1AEBV?$PxVec3T@M@2@MAEAUPxGeomSweepHit@2@V?$PxFlags@W4Enum@PxHitFlag@physx@@G@2@MPEAUPxQueryThreadContext@2@@Z 0000000180044c70 f   GuSweepSharedTests.obj
 0001:00044870       ?sweepCapsule_BoxGeom@@YA_NAEBVPxGeometry@physx@@AEBV?$PxTransformT@M@2@AEBVPxCapsuleGeometry@2@1AEBVCapsule@Gu@2@AEBV?$PxVec3T@M@2@MAEAUPxGeomSweepHit@2@V?$PxFlags@W4Enum@PxHitFlag@physx@@G@2@MPEAUPxQueryThreadContext@2@@Z 0000000180045870 f   GuSweepTests.obj
 0001:00045120       ?sweepBox_SphereGeom@@YA_NAEBVPxGeometry@physx@@AEBV?$PxTransformT@M@2@AEBVPxBoxGeometry@2@1AEBVBox@Gu@2@AEBV?$PxVec3T@M@2@MAEAUPxGeomSweepHit@2@V?$PxFlags@W4Enum@PxHitFlag@physx@@G@2@MPEAUPxQueryThreadContext@2@@Z 0000000180046120 f   GuSweepTests.obj
 0001:00045800       ?sweepBox_CapsuleGeom@@YA_NAEBVPxGeometry@physx@@AEBV?$PxTransformT@M@2@AEBVPxBoxGeometry@2@1AEBVBox@Gu@2@AEBV?$PxVec3T@M@2@MAEAUPxGeomSweepHit@2@V?$PxFlags@W4Enum@PxHitFlag@physx@@G@2@MPEAUPxQueryThreadContext@2@@Z 0000000180046800 f   GuSweepTests.obj
 0001:000460d0       ?sweepBox_BoxGeom@@YA_NAEBVPxGeometry@physx@@AEBV?$PxTransformT@M@2@AEBVPxBoxGeometry@2@1AEBVBox@Gu@2@AEBV?$PxVec3T@M@2@MAEAUPxGeomSweepHit@2@V?$PxFlags@W4Enum@PxHitFlag@physx@@G@2@MPEAUPxQueryThreadContext@2@@Z 00000001800470d0 f   GuSweepTests.obj
 0001:00046ad0       ??$gjkPenetration@U?$LocalConvex@VCapsuleV@Gu@physx@@@Gu@physx@@U?$LocalConvex@VBoxV@Gu@physx@@@23@@Gu@physx@@YA?AW4GjkStatus@01@AEBU?$LocalConvex@VCapsuleV@Gu@physx@@@01@AEBU?$LocalConvex@VBoxV@Gu@physx@@@01@AEBT__m128@@2_NPEIAE4AEAEAEAUGjkOutput@01@@Z 0000000180047ad0 f i GuSweepTests.obj
 0001:00046b40       ??$gjkPenetration@U?$LocalConvex@VCapsuleV@Gu@physx@@@Gu@physx@@U?$LocalConvex@VBoxV@Gu@physx@@@23@@Gu@physx@@YA?AW4GjkStatus@01@AEBU?$LocalConvex@VCapsuleV@Gu@physx@@@01@AEBU?$LocalConvex@VBoxV@Gu@physx@@@01@AEBT__m128@@2_NPEIAE4PEIAT5@5AEAEAEAUGjkOutput@01@@Z 0000000180047b40 f i GuSweepTests.obj
 0001:00047fc0       ??$gjkPenetration@U?$RelativeConvex@VBoxV@Gu@physx@@@Gu@physx@@U?$LocalConvex@VBoxV@Gu@physx@@@23@@Gu@physx@@YA?AW4GjkStatus@01@AEBU?$RelativeConvex@VBoxV@Gu@physx@@@01@AEBU?$LocalConvex@VBoxV@Gu@physx@@@01@AEBT__m128@@2_NPEIAE4AEAEAEAUGjkOutput@01@@Z 0000000180048fc0 f i GuSweepTests.obj
 0001:00048030       ??$gjkPenetration@U?$RelativeConvex@VBoxV@Gu@physx@@@Gu@physx@@U?$LocalConvex@VBoxV@Gu@physx@@@23@@Gu@physx@@YA?AW4GjkStatus@01@AEBU?$RelativeConvex@VBoxV@Gu@physx@@@01@AEBU?$LocalConvex@VBoxV@Gu@physx@@@01@AEBT__m128@@2_NPEIAE4PEIAT5@5AEAEAEAUGjkOutput@01@@Z 0000000180049030 f i GuSweepTests.obj
 0001:000494e0       ??$gjkRaycast@U?$LocalConvex@VCapsuleV@Gu@physx@@@Gu@physx@@U?$LocalConvex@VBoxV@Gu@physx@@@23@@Gu@physx@@YA_NAEBU?$LocalConvex@VCapsuleV@Gu@physx@@@01@AEBU?$LocalConvex@VBoxV@Gu@physx@@@01@AEBT__m128@@222AEAT4@33M@Z 000000018004a4e0 f i GuSweepTests.obj
 0001:0004a0b0       ??$gjkRaycast@U?$LocalConvex@VTriangleV@Gu@physx@@@Gu@physx@@U?$LocalConvex@VBoxV@Gu@physx@@@23@@Gu@physx@@YA_NAEBU?$LocalConvex@VTriangleV@Gu@physx@@@01@AEBU?$LocalConvex@VBoxV@Gu@physx@@@01@AEBT__m128@@222AEAT4@33M@Z 000000018004b0b0 f i GuSweepTests.obj
 0001:0004ad00       ??$gjkRaycast@U?$RelativeConvex@VBoxV@Gu@physx@@@Gu@physx@@U?$LocalConvex@VBoxV@Gu@physx@@@23@@Gu@physx@@YA_NAEBU?$RelativeConvex@VBoxV@Gu@physx@@@01@AEBU?$LocalConvex@VBoxV@Gu@physx@@@01@AEBT__m128@@222AEAT4@33M@Z 000000018004bd00 f i GuSweepTests.obj
 0001:0004b930       ?getSweepFuncTable@Gu@physx@@YAAEBUGeomSweepFuncs@12@XZ 000000018004c930 f   GuSweepTests.obj
 0001:0004b940       ?getSweepMargin@?$LocalConvex@VTetrahedronV@Gu@physx@@@Gu@physx@@UEBA?AT__m128@@XZ 000000018004c940 f i GuCookingTetrahedronMesh.obj
 0001:0004b940       ?getSweepMargin@?$LocalConvex@VTriangleV@Gu@physx@@@Gu@physx@@UEBA?AT__m128@@XZ 000000018004c940 f i GuSweepTests.obj
 0001:0004b940       ?getSweepMargin@?$RelativeConvex@VTriangleV@Gu@physx@@@Gu@physx@@UEBA?AT__m128@@XZ 000000018004c940 f i GuCCDSweepPrimitives.obj
 0001:0004b950       ?support@?$LocalConvex@VBoxV@Gu@physx@@@Gu@physx@@UEBA?AT__m128@@AEBT4@@Z 000000018004c950 f i GuSweepTests.obj
 0001:0004b980       ?support@?$LocalConvex@VBoxV@Gu@physx@@@Gu@physx@@UEBA?AT__m128@@AEBT4@AEAH@Z 000000018004c980 f i GuSweepTests.obj
 0001:0004b9c0       ?support@?$LocalConvex@VTriangleV@Gu@physx@@@Gu@physx@@UEBA?AT__m128@@AEBT4@@Z 000000018004c9c0 f i GuSweepTests.obj
 0001:0004ba50       ?support@?$LocalConvex@VTriangleV@Gu@physx@@@Gu@physx@@UEBA?AT__m128@@AEBT4@AEAH@Z 000000018004ca50 f i GuSweepTests.obj
 0001:0004bb30       ?supportPoint@?$LocalConvex@VBoxV@Gu@physx@@@Gu@physx@@UEBA?AT__m128@@H@Z 000000018004cb30 f i GuSweepTests.obj
 0001:0004bb70       ?supportPoint@?$LocalConvex@VTetrahedronV@Gu@physx@@@Gu@physx@@UEBA?AT__m128@@H@Z 000000018004cb70 f i GuCookingTetrahedronMesh.obj
 0001:0004bb70       ?supportPoint@?$LocalConvex@VTriangleV@Gu@physx@@@Gu@physx@@UEBA?AT__m128@@H@Z 000000018004cb70 f i GuSweepTests.obj
 0001:0004bb90       ?sweepBoxTriangles@Gu@physx@@YA_NIPEBVPxTriangle@2@_NAEBVPxBoxGeometry@2@AEBV?$PxTransformT@M@2@AEBV?$PxVec3T@M@2@MAEAUPxGeomSweepHit@2@PEBIMV?$PxFlags@W4Enum@PxHitFlag@physx@@G@2@@Z 000000018004cb90 f   GuSweepTests.obj
 0001:0004c600       ??$PxSmallSort@H$$CBU?$Comparer@V?$PxVec3T@M@physx@@@MeshAnalyzer@Gu@physx@@@physx@@YAXPEAHHHAEBU?$Comparer@V?$PxVec3T@M@physx@@@MeshAnalyzer@Gu@0@@Z 000000018004d600 f i GuSDF.obj
 0001:0004c820       ??$PxSort@HU?$Comparer@V?$PxVec3T@M@physx@@@MeshAnalyzer@Gu@physx@@V?$PxReflectionAllocator@H@4@@physx@@YAXPEAHIAEBU?$Comparer@V?$PxVec3T@M@physx@@@MeshAnalyzer@Gu@0@AEBV?$PxReflectionAllocator@H@0@I@Z 000000018004d820 f i GuSDF.obj
 0001:0004cca0       ??$PxSort@HU?$PxLess@H@physx@@V?$PxReflectionAllocator@H@2@@physx@@YAXPEAHIAEBU?$PxLess@H@0@AEBV?$PxReflectionAllocator@H@0@I@Z 000000018004dca0 f i GuSDF.obj
 0001:0004d0f0       ??$copy@V?$PxReflectionAllocator@I@physx@@@?$PxArray@IV?$PxReflectionAllocator@I@physx@@@physx@@IEAAXAEBV01@@Z 000000018004e0f0 f i GuSDF.obj
 0001:0004d160       ??$copy@V?$PxReflectionAllocator@M@physx@@@?$PxArray@MV?$PxReflectionAllocator@M@physx@@@physx@@IEAAXAEBV01@@Z 000000018004e160 f i GuSDF.obj
 0001:0004d1c0       ??$copy@V?$PxReflectionAllocator@V?$PxVec3T@M@physx@@@physx@@@?$PxArray@V?$PxVec3T@M@physx@@V?$PxReflectionAllocator@V?$PxVec3T@M@physx@@@2@@physx@@IEAAXAEBV01@@Z 000000018004e1c0 f i GuSDF.obj
 0001:0004d220       ??$mapDuplicatePoints@V?$PxVec3T@M@physx@@M@MeshAnalyzer@Gu@physx@@SAXPEBV?$PxVec3T@M@2@IAEAV?$PxArray@HV?$PxReflectionAllocator@H@physx@@@2@M@Z 000000018004e220 f i GuSDF.obj
 0001:0004d5a0       ??$splitRanges@V?$PxVec3T@M@physx@@M@MeshAnalyzer@Gu@physx@@CAXAEAV?$PxArray@URange@MeshAnalyzer@Gu@physx@@V?$PxReflectionAllocator@URange@MeshAnalyzer@Gu@physx@@@4@@2@AEBV?$PxArray@HV?$PxReflectionAllocator@H@physx@@@2@PEBV?$PxVec3T@M@2@HM@Z 000000018004e5a0 f i GuSDF.obj
 0001:0004d810       ??$traverseBVH@VClosestDistanceToTrimeshTraversalController@Gu@physx@@@Gu@physx@@YAXPEBUBVHNode@01@AEAVClosestDistanceToTrimeshTraversalController@01@H@Z 000000018004e810 f i GuSDF.obj
 0001:0004dc20       ??$traverseBVH@VLineSegmentTrimeshIntersectionTraversalController@Gu@physx@@@Gu@physx@@YAXPEBUBVHNode@01@AEAVLineSegmentTrimeshIntersectionTraversalController@01@H@Z 000000018004ec20 f i GuSDF.obj
 0001:0004e140       ??0CellToPoint@Gu@physx@@QEAA@I@Z 000000018004f140 f i GuSDF.obj
 0001:0004e240       ??0IsosurfaceThreadData@Gu@physx@@QEAA@AEBU012@@Z 000000018004f240 f i GuSDF.obj
 0001:0004e2c0       ??1CellToPoint@Gu@physx@@QEAA@XZ 000000018004f2c0 f i GuSDF.obj
 0001:0004e3a0       ??1IsosurfaceThreadData@Gu@physx@@QEAA@XZ 000000018004f3a0 f i GuSDF.obj
 0001:0004e450       ??1SDF@Gu@physx@@QEAA@XZ   000000018004f450 f   GuSDF.obj
 0001:0004e4f0       ??_E?$PxThreadT@V?$PxReflectionAllocator@VPxThreadImpl@physx@@@physx@@@physx@@UEAAPEAXI@Z 000000018004f4f0 f i GuSDF.obj
 0001:0004e4f0       ??_G?$PxThreadT@V?$PxReflectionAllocator@VPxThreadImpl@physx@@@physx@@@physx@@UEAAPEAXI@Z 000000018004f4f0 f i GuSDF.obj
 0001:0004e5a0       ??_EPxRunnable@physx@@UEAAPEAXI@Z 000000018004f5a0 f i GuSDF.obj
 0001:0004e5a0       ??_GPxRunnable@physx@@UEAAPEAXI@Z 000000018004f5a0 f i GuSDF.obj
 0001:0004e5d0       ?PxCreatePointOntoTriangleMeshProjector@Gu@physx@@YAPEAVPxPointOntoTriangleMeshProjector@12@PEBV?$PxVec3T@M@2@PEBII@Z 000000018004f5d0 f   GuSDF.obj
 0001:0004e6d0       ?SDFUsingWindingNumbers@Gu@physx@@YAXAEAV?$PxArray@UBVHNode@Gu@physx@@V?$PxReflectionAllocator@UBVHNode@Gu@physx@@@3@@2@AEAV?$PxHashMap@IU?$ClusterApproximationT@MV?$PxVec3T@M@physx@@@Gu@physx@@U?$PxHash@I@3@VPxAllocator@3@@2@PEBV?$PxVec3T@M@2@PEBIIIIIPEAMAEAUGridQueryPointSampler@12@PEAV52@I_N7@Z 000000018004f6d0 f   GuSDF.obj
 0001:0004ebf0       ?SDFUsingWindingNumbers@Gu@physx@@YAXPEBV?$PxVec3T@M@2@PEBIIIIIPEAMV32@3PEAV32@_NIPEAVPxSDFBuilder@2@@Z 000000018004fbf0 f   GuSDF.obj
 0001:0004f0c0       ?SDFUsingWindingNumbersSparse@Gu@physx@@YAXPEBV?$PxVec3T@M@2@PEBIIIIIAEBV32@2MIAEAV?$PxArray@MV?$PxReflectionAllocator@M@physx@@@2@AEAV?$PxArray@IV?$PxReflectionAllocator@I@physx@@@2@33AEAM5IPEAVPxSDFBuilder@2@@Z 00000001800500c0 f   GuSDF.obj
 0001:0004fb50       ?allocate@?$PxArray@HV?$PxInlineAllocator@$0EAA@V?$PxReflectionAllocator@H@physx@@@physx@@@physx@@IEAAPEAHI@Z 0000000180050b50 f i GuSDF.obj
 0001:0004fc10       ?allocate@?$PxArray@MV?$PxReflectionAllocator@M@physx@@@physx@@IEAAPEAMI@Z 0000000180050c10 f i GuSDF.obj
 0001:0004fcc0       ?allocate@?$PxArray@V?$PxVec3T@M@physx@@V?$PxReflectionAllocator@V?$PxVec3T@M@physx@@@2@@physx@@IEAAPEAV?$PxVec3T@M@2@I@Z 0000000180050cc0 f i GuSDF.obj
 0001:0004fd70       ?allocateSdfs@SDF@Gu@physx@@QEAAPEAMAEBV?$PxVec3T@M@3@AEBMIIIIIIIMMI@Z 0000000180050d70 f   GuSDF.obj
 0001:0004ff80       ?analyzeAndFixMesh@Gu@physx@@YAXPEBV?$PxVec3T@M@2@PEBIIAEAV?$PxArray@IV?$PxReflectionAllocator@I@physx@@@2@@Z 0000000180050f80 f   GuSDF.obj
 0001:000507d0       ?buildTree@Gu@physx@@YAXPEBIIPEBV?$PxVec3T@M@2@AEAV?$PxArray@UBVHNode@Gu@physx@@V?$PxReflectionAllocator@UBVHNode@Gu@physx@@@3@@2@M@Z 00000001800517d0 f   GuSDF.obj
 0001:00050a00       ?computeIsosurfaceTrianglesThreadJob@Gu@physx@@YAPEAXPEAX@Z 0000000180051a00 f   GuSDF.obj
 0001:00050dd0       ?computeIsosurfaceVerticesThreadJob@Gu@physx@@YAPEAXPEAX@Z 0000000180051dd0 f   GuSDF.obj
 0001:000512c0       ?computeSDFThreadJob@Gu@physx@@YAPEAXPEAX@Z 00000001800522c0 f   GuSDF.obj
 0001:00051d70       ?convertSparseSDFTo3DTextureLayout@Gu@physx@@YAXIIIIPEAIPEBMIAEAV?$PxArray@MV?$PxReflectionAllocator@M@physx@@@2@AEAI33@Z 0000000180052d70 f   GuSDF.obj
 0001:00052120       ?copy@?$PxArray@MV?$PxReflectionAllocator@M@physx@@@physx@@KAXPEAM0PEBM@Z 0000000180053120 f i GuSDF.obj
 0001:00052180       ?copy@?$PxArray@V?$PxVec3T@M@physx@@V?$PxReflectionAllocator@V?$PxVec3T@M@physx@@@2@@physx@@KAXPEAV?$PxVec3T@M@2@0PEBV32@@Z 0000000180053180 f i GuSDF.obj
 0001:00052250       ?create@?$PxHashBase@V?$PxPair@$$CBUSortedTriangle@Gu@physx@@H@physx@@USortedTriangle@Gu@2@UTriangleHash@42@UGetKey@?$PxHashMapBase@USortedTriangle@Gu@physx@@HUTriangleHash@23@VPxAllocator@3@@2@VPxAllocator@2@$00@physx@@QEAAPEAV?$PxPair@$$CBUSortedTriangle@Gu@physx@@H@2@AEBUSortedTriangle@Gu@2@AEA_N@Z 0000000180053250 f i GuSDF.obj
 0001:00052380       ?create@?$PxHashBase@V?$PxPair@$$CB_KH@physx@@_KU?$PxHash@_K@2@UGetKey@?$PxHashMapBase@_KHU?$PxHash@_K@physx@@VPxAllocator@2@@2@VPxAllocator@2@$00@physx@@QEAAPEAV?$PxPair@$$CB_KH@2@AEB_KAEA_N@Z 0000000180053380 f i GuMeshAnalysis.obj
 0001:00052380       ?create@?$PxHashBase@V?$PxPair@$$CB_KI@physx@@_KU?$PxHash@_K@2@UGetKey@?$PxHashMapBase@_KIU?$PxHash@_K@physx@@VPxAllocator@2@@2@VPxAllocator@2@$00@physx@@QEAAPEAV?$PxPair@$$CB_KI@2@AEB_KAEA_N@Z 0000000180053380 f i GuSDF.obj
 0001:00052510       ?createTriangles@Gu@physx@@YAXHHHMQEAMAEBUCellToPoint@12@AEBV?$PxArray@V?$PxVec3T@M@physx@@V?$PxReflectionAllocator@V?$PxVec3T@M@physx@@@2@@2@AEAV?$PxArray@IV?$PxReflectionAllocator@I@physx@@@2@@Z 0000000180053510 f i GuSDF.obj
 0001:00052dd0       ?decodeDense@SDF@Gu@physx@@QEBAMHHH@Z 0000000180053dd0 f   GuSDF.obj
 0001:00052e20       ?decodeSparse2@Gu@physx@@YAMAEBVSDF@12@HHH@Z 0000000180053e20 f i GuSDF.obj
 0001:000530d0       ?decodeSparse@SDF@Gu@physx@@QEBAMHHH@Z 00000001800540d0 f   GuSDF.obj
 0001:000530e0       ?exportExtraData@SDF@Gu@physx@@QEAAXAEAVPxSerializationContext@3@@Z 00000001800540e0 f   GuSDF.obj
 0001:00053180       ?extractIsosurfaceFromSDF@Gu@physx@@YAXAEBVSDF@12@AEAV?$PxArray@V?$PxVec3T@M@physx@@V?$PxReflectionAllocator@V?$PxVec3T@M@physx@@@2@@2@AEAV?$PxArray@IV?$PxReflectionAllocator@I@physx@@@2@I@Z 0000000180054180 f   GuSDF.obj
 0001:00053a80       ?extractIsosurfaceFromSDFSerial@Gu@physx@@YAXAEBVSDF@12@AEAV?$PxArray@V?$PxVec3T@M@physx@@V?$PxReflectionAllocator@V?$PxVec3T@M@physx@@@2@@2@AEAV?$PxArray@IV?$PxReflectionAllocator@I@physx@@@2@@Z 0000000180054a80 f   GuSDF.obj
 0001:00054770       ?find@CellToPoint@Gu@physx@@QEBAPEBV?$PxPair@$$CB_KI@3@HHH@Z 0000000180055770 f i GuSDF.obj
 0001:00054880       ?fixSdfForNonClosedGeometry@Gu@physx@@YAXIIIPEAMAEBV?$PxVec3T@M@2@@Z 0000000180055880 f   GuSDF.obj
 0001:00055960       ?generatePointInCell@Gu@physx@@YA_NAEBVSDF@12@HHHAEAV?$PxVec3T@M@2@QEAY111M@Z 0000000180056960 f   GuSDF.obj
 0001:00055db0       ?growAndPushBack@?$PxArray@HV?$PxInlineAllocator@$0EAA@V?$PxReflectionAllocator@H@physx@@@physx@@@physx@@IEAAAEAHAEBH@Z 0000000180056db0 f i GuSDF.obj
 0001:00055ea0       ?growAndPushBack@?$PxArray@MV?$PxReflectionAllocator@M@physx@@@physx@@IEAAAEAMAEBM@Z 0000000180056ea0 f i GuSDF.obj
 0001:00055f80       ?growAndPushBack@?$PxArray@PEAV?$PxThreadT@V?$PxReflectionAllocator@VPxThreadImpl@physx@@@physx@@@physx@@V?$PxReflectionAllocator@PEAV?$PxThreadT@V?$PxReflectionAllocator@VPxThreadImpl@physx@@@physx@@@physx@@@2@@physx@@IEAAAEAPEAV?$PxThreadT@V?$PxReflectionAllocator@VPxThreadImpl@physx@@@physx@@@2@AEBQEAV32@@Z 0000000180056f80 f i GuSDF.obj
 0001:000560b0       ?growAndPushBack@?$PxArray@UIsosurfaceThreadData@Gu@physx@@V?$PxReflectionAllocator@UIsosurfaceThreadData@Gu@physx@@@3@@physx@@IEAAAEAUIsosurfaceThreadData@Gu@2@AEBU342@@Z 00000001800570b0 f i GuSDF.obj
 0001:00056290       ?growAndPushBack@?$PxArray@UMutation@Gu@physx@@V?$PxReflectionAllocator@UMutation@Gu@physx@@@3@@physx@@IEAAAEAUMutation@Gu@2@AEBU342@@Z 0000000180057290 f i GuSDF.obj
 0001:000563c0       ?growAndPushBack@?$PxArray@URange@Gu@physx@@V?$PxReflectionAllocator@URange@Gu@physx@@@3@@physx@@IEAAAEAURange@Gu@2@AEBU342@@Z 00000001800573c0 f i GuSDF.obj
 0001:00056510       ?growAndPushBack@?$PxArray@URange@MeshAnalyzer@Gu@physx@@V?$PxReflectionAllocator@URange@MeshAnalyzer@Gu@physx@@@4@@physx@@IEAAAEAURange@MeshAnalyzer@Gu@2@AEBU3452@@Z 0000000180057510 f i GuSDF.obj
 0001:00056640       ?growAndPushBack@?$PxArray@USDFCalculationData@Gu@physx@@V?$PxReflectionAllocator@USDFCalculationData@Gu@physx@@@3@@physx@@IEAAAEAUSDFCalculationData@Gu@2@AEBU342@@Z 0000000180057640 f i GuSDF.obj
 0001:000567e0       ?growAndPushBack@?$PxArray@V?$PxVec3T@M@physx@@V?$PxReflectionAllocator@V?$PxVec3T@M@physx@@@2@@physx@@IEAAAEAV?$PxVec3T@M@2@AEBV32@@Z 00000001800577e0 f i GuSDF.obj
 0001:000568b0       ?importExtraData@SDF@Gu@physx@@QEAAXAEAVPxDeserializationContext@3@@Z 00000001800578b0 f   GuSDF.obj
 0001:00056920       ?populateSubgridCache@Gu@physx@@YAXAEBVSDF@12@AEAV?$PxArray@MV?$PxReflectionAllocator@M@physx@@@2@HHH@Z 0000000180057920 f i GuSDF.obj
 0001:00056cc0       ?projectPoint@PointOntoTriangleMeshProjector@Gu@physx@@UEAA?AV?$PxVec3T@M@3@AEBV43@@Z 0000000180057cc0 f i GuSDF.obj
 0001:00056d30       ?projectPoint@PointOntoTriangleMeshProjector@Gu@physx@@UEAA?AV?$PxVec3T@M@3@AEBV43@AEAI@Z 0000000180057d30 f i GuSDF.obj
 0001:00056db0       ?recreate@?$PxArray@HV?$PxReflectionAllocator@H@physx@@@physx@@IEAAXI@Z 0000000180057db0 f i GuSDF.obj
 0001:00056ec0       ?recreate@?$PxArray@MV?$PxReflectionAllocator@M@physx@@@physx@@IEAAXI@Z 0000000180057ec0 f i GuSDF.obj
 0001:00056fa0       ?recreate@?$PxArray@PEAUMap@Gu@physx@@V?$PxReflectionAllocator@PEAUMap@Gu@physx@@@3@@physx@@IEAAXI@Z 0000000180057fa0 f i GuSDF.obj
 0001:000570b0       ?recreate@?$PxArray@UBVHNode@Gu@physx@@V?$PxReflectionAllocator@UBVHNode@Gu@physx@@@3@@physx@@IEAAXI@Z 00000001800580b0 f i GuSDF.obj
 0001:00057300       ?recreate@?$PxArray@V?$PxVec3T@M@physx@@V?$PxReflectionAllocator@V?$PxVec3T@M@physx@@@2@@physx@@IEAAXI@Z 0000000180058300 f i GuSDF.obj
 0001:00057390       ?release@PointOntoTriangleMeshProjector@Gu@physx@@UEAAXXZ 0000000180058390 f i GuSDF.obj
 0001:000573e0       ?reserveInternal@?$PxHashBase@V?$PxPair@$$CBIU?$ClusterApproximationT@MV?$PxVec3T@M@physx@@@Gu@physx@@@physx@@IU?$PxHash@I@2@UGetKey@?$PxHashMapBase@IU?$ClusterApproximationT@MV?$PxVec3T@M@physx@@@Gu@physx@@U?$PxHash@I@3@VPxAllocator@3@@2@VPxAllocator@2@$00@physx@@AEAAXI@Z 00000001800583e0 f i GuSDF.obj
 0001:000575e0       ?reserveInternal@?$PxHashBase@V?$PxPair@$$CBUSortedTriangle@Gu@physx@@H@physx@@USortedTriangle@Gu@2@UTriangleHash@42@UGetKey@?$PxHashMapBase@USortedTriangle@Gu@physx@@HUTriangleHash@23@VPxAllocator@3@@2@VPxAllocator@2@$00@physx@@AEAAXI@Z 00000001800585e0 f i GuSDF.obj
 0001:00057780       ?reserveInternal@?$PxHashBase@V?$PxPair@$$CB_KH@physx@@_KU?$PxHash@_K@2@UGetKey@?$PxHashMapBase@_KHU?$PxHash@_K@physx@@VPxAllocator@2@@2@VPxAllocator@2@$00@physx@@AEAAXI@Z 0000000180058780 f i GuSDF.obj
 0001:00057780       ?reserveInternal@?$PxHashBase@V?$PxPair@$$CB_KI@physx@@_KU?$PxHash@_K@2@UGetKey@?$PxHashMapBase@_KIU?$PxHash@_K@physx@@VPxAllocator@2@@2@VPxAllocator@2@$00@physx@@AEAAXI@Z 0000000180058780 f i GuSDF.obj
 0001:00057960       ?resize@?$PxArray@IV?$PxReflectionAllocator@I@physx@@@physx@@QEAAXIAEBI@Z 0000000180058960 f i GuSDF.obj
 0001:00057a20       ?resize@?$PxArray@MV?$PxReflectionAllocator@M@physx@@@physx@@QEAAXIAEBM@Z 0000000180058a20 f i GuSDF.obj
 0001:00057b20       ?resize@?$PxArray@PEAUMap@Gu@physx@@V?$PxReflectionAllocator@PEAUMap@Gu@physx@@@3@@physx@@QEAAXIAEBQEAUMap@Gu@2@@Z 0000000180058b20 f i GuSDF.obj
 0001:00057be0       ?resize@?$PxArray@UBVHNode@Gu@physx@@V?$PxReflectionAllocator@UBVHNode@Gu@physx@@@3@@physx@@QEAAXIAEBUBVHNode@Gu@2@@Z 0000000180058be0 f i GuSDF.obj
 0001:00057d60       ?sampleSDFDirect@DenseSDF@Gu@physx@@QEAAMAEBV?$PxVec3T@M@3@@Z 0000000180058d60 f i GuSDF.obj
 0001:00057f00       ?signedVolume@Gu@physx@@YAMPEBV?$PxVec3T@M@2@PEBII1I@Z 0000000180058f00 f   GuSDF.obj
 0001:00058440       ?windingNumbers@Gu@physx@@YAXPEBV?$PxVec3T@M@2@PEBIIIIIPEAMV32@3PEAV32@@Z 0000000180059440 f   GuSDF.obj
 0001:00058890       ?windingNumbersInsideCheck@Gu@physx@@YAXPEBV?$PxVec3T@M@2@PEBIIIIIPEA_NV32@3PEAV32@@Z 0000000180059890 f   GuSDF.obj
 0001:00059250       ??0MeshData@physx@@QEAA@AEBVPxTriangleMeshDesc@1@@Z 000000018005a250 f i GuCookingSDF.obj
 0001:00059330       ?GetBounds@MeshData@physx@@QEBAXAEAV?$PxVec3T@M@2@0@Z 000000018005a330 f i GuCookingSDF.obj
 0001:000595d0       ?buildSDF@physx@@YA_NAEAVPxTriangleMeshDesc@1@AEAV?$PxArray@MV?$PxReflectionAllocator@M@physx@@@1@AEAV?$PxArray@EV?$PxReflectionAllocator@E@physx@@@1@AEAV?$PxArray@IV?$PxReflectionAllocator@I@physx@@@1@@Z 000000018005a5d0 f   GuCookingSDF.obj
 0001:00059610       ?convert16To32Bits@physx@@YAXVPxSimpleTriangleMesh@1@AEAV?$PxArray@IV?$PxReflectionAllocator@I@physx@@@1@@Z 000000018005a610 f   GuCookingSDF.obj
 0001:0005a630       ?quantizeSparseSDF@physx@@YAXW4Enum@PxSdfBitsPerSubgridPixel@1@AEBV?$PxArray@MV?$PxReflectionAllocator@M@physx@@@1@AEAV?$PxArray@EV?$PxReflectionAllocator@E@physx@@@1@MM@Z 000000018005b630 f   GuCookingSDF.obj
 0001:0005a710       ?recreate@?$PxArray@EV?$PxReflectionAllocator@E@physx@@@physx@@IEAAXI@Z 000000018005b710 f i GuCookingSDF.obj
 0001:0005a800       ?resize@?$PxArray@EV?$PxReflectionAllocator@E@physx@@@physx@@QEAAXIAEBE@Z 000000018005b800 f i GuCookingSDF.obj
 0001:0005a8c0       ?resize@?$PxArray@V?$PxVec3T@M@physx@@V?$PxReflectionAllocator@V?$PxVec3T@M@physx@@@2@@physx@@QEAAXIAEBV?$PxVec3T@M@2@@Z 000000018005b8c0 f i GuCookingSDF.obj
 0001:0005a9b0       ??$gjk@U?$RelativeConvex@UCustomConvexV@@@Gu@physx@@U?$LocalConvex@UCustomConvexV@@@23@@Gu@physx@@YA?AW4GjkStatus@01@AEBU?$RelativeConvex@UCustomConvexV@@@01@AEBU?$LocalConvex@UCustomConvexV@@@01@AEBT__m128@@2AEAT5@333@Z 000000018005b9b0 f i GuGjkQuery.obj
 0001:0005b740       ??$gjkPenetration@U?$RelativeConvex@UCustomConvexV@@@Gu@physx@@U?$LocalConvex@UCustomConvexV@@@23@@Gu@physx@@YA?AW4GjkStatus@01@AEBU?$RelativeConvex@UCustomConvexV@@@01@AEBU?$LocalConvex@UCustomConvexV@@@01@AEBT__m128@@2_NPEIAE4PEIAT5@5AEAEAEAUGjkOutput@01@@Z 000000018005c740 f i GuGjkQuery.obj
 0001:0005ccb0       ??$gjkPenetration@U?$RelativeConvex@UCustomConvexV@@@Gu@physx@@U?$LocalConvex@UCustomConvexV@@@23@@Gu@physx@@YA?AW4GjkStatus@01@AEBU?$RelativeConvex@UCustomConvexV@@@01@AEBU?$LocalConvex@UCustomConvexV@@@01@AEBT__m128@@2_NPEIAT5@4AEAEAEAUGjkOutput@01@@Z 000000018005dcb0 f i GuGjkQuery.obj
 0001:0005cd10       ??$gjkRaycast@U?$RelativeConvex@UCustomConvexV@@@Gu@physx@@U?$LocalConvex@UCustomConvexV@@@23@@Gu@physx@@YA_NAEBU?$RelativeConvex@UCustomConvexV@@@01@AEBU?$LocalConvex@UCustomConvexV@@@01@AEBT__m128@@222AEAT4@33M@Z 000000018005dd10 f i GuGjkQuery.obj
 0001:0005da70       ??$gjkRaycast@U?$RelativeConvex@UCustomConvexV@@@Gu@physx@@U?$LocalConvex@UPointConvexV@@@23@@Gu@physx@@YA_NAEBU?$RelativeConvex@UCustomConvexV@@@01@AEBU?$LocalConvex@UPointConvexV@@@01@AEBT__m128@@222AEAT4@33M@Z 000000018005ea70 f i GuGjkQuery.obj
 0001:0005e6b0       ?overlap@PxGjkQuery@physx@@SA_NAEBUSupport@12@0AEBV?$PxTransformT@M@2@1@Z 000000018005f6b0 f   GuGjkQuery.obj
 0001:0005ea40       ?proximityInfo@PxGjkQuery@physx@@SA_NAEBUSupport@12@0AEBV?$PxTransformT@M@2@1MMAEAV?$PxVec3T@M@2@22AEAM@Z 000000018005fa40 f   GuGjkQuery.obj
 0001:0005f800       ?raycast@PxGjkQuery@physx@@SA_NAEBUSupport@12@AEBV?$PxTransformT@M@2@AEBV?$PxVec3T@M@2@2MAEAMAEAV52@4@Z 0000000180060800 f   GuGjkQuery.obj
 0001:0005fcf0       ?support@?$LocalConvex@UCustomConvexV@@@Gu@physx@@UEBA?AT__m128@@AEBT4@@Z 0000000180060cf0 f i GuGjkQuery.obj
 0001:0005fd70       ?support@?$LocalConvex@UCustomConvexV@@@Gu@physx@@UEBA?AT__m128@@AEBT4@AEAH@Z 0000000180060d70 f i GuGjkQuery.obj
 0001:0005fdf0       ?support@?$LocalConvex@UPointConvexV@@@Gu@physx@@UEBA?AT__m128@@AEBT4@@Z 0000000180060df0 f i GuGjkQuery.obj
 0001:0005fdf0       ?supportPoint@?$LocalConvex@UPointConvexV@@@Gu@physx@@UEBA?AT__m128@@H@Z 0000000180060df0 f i GuGjkQuery.obj
 0001:0005fe00       ?support@?$LocalConvex@UPointConvexV@@@Gu@physx@@UEBA?AT__m128@@AEBT4@AEAH@Z 0000000180060e00 f i GuGjkQuery.obj
 0001:0005fe20       ?support@?$RelativeConvex@UCustomConvexV@@@Gu@physx@@UEBA?AT__m128@@AEBT4@@Z 0000000180060e20 f i GuGjkQuery.obj
 0001:0005fef0       ?support@?$RelativeConvex@UCustomConvexV@@@Gu@physx@@UEBA?AT__m128@@AEBT4@AEAH@Z 0000000180060ef0 f i GuGjkQuery.obj
 0001:0005ffd0       ?supportPoint@?$LocalConvex@UCustomConvexV@@@Gu@physx@@UEBA?AT__m128@@H@Z 0000000180060fd0 f i GuGjkQuery.obj
 0001:00060040       ?supportPoint@?$RelativeConvex@UCustomConvexV@@@Gu@physx@@UEBA?AT__m128@@H@Z 0000000180061040 f i GuGjkQuery.obj
 0001:000600e0       ?sweep@PxGjkQuery@physx@@SA_NAEBUSupport@12@0AEBV?$PxTransformT@M@2@1AEBV?$PxVec3T@M@2@MAEAMAEAV52@4@Z 00000001800610e0 f   GuGjkQuery.obj
 0001:000608a0       ??$approximateCluster@MV?$PxVec3T@M@physx@@@Gu@physx@@YAXAEBV?$PxArray@HV?$PxReflectionAllocator@H@physx@@@1@IIPEBIPEBV?$PxVec3T@M@1@AEBV?$PxArray@MV?$PxReflectionAllocator@M@physx@@@1@AEBV?$PxArray@V?$PxVec3T@M@physx@@V?$PxReflectionAllocator@V?$PxVec3T@M@physx@@@2@@1@4AEAU?$ClusterApproximationT@MV?$PxVec3T@M@physx@@@01@@Z 00000001800618a0 f i GuWindingNumber.obj
 0001:00060ee0       ??$precomputeClusterInformation@MV?$PxVec3T@M@physx@@@Gu@physx@@YAXHPEBUBVHNode@01@PEBIIPEBV?$PxVec3T@M@1@AEAV?$PxHashMap@IU?$ClusterApproximationT@MV?$PxVec3T@M@physx@@@Gu@physx@@U?$PxHash@I@3@VPxAllocator@3@@1@V?$PxArray@MV?$PxReflectionAllocator@M@physx@@@1@AEBV?$PxArray@V?$PxVec3T@M@physx@@V?$PxReflectionAllocator@V?$PxVec3T@M@physx@@@2@@1@5@Z 0000000180061ee0 f i GuWindingNumber.obj
 0001:000612b0       ??$precomputeClusterInformation@MV?$PxVec3T@M@physx@@@Gu@physx@@YAXPEBUBVHNode@01@PEBIIPEBV?$PxVec3T@M@1@AEAV?$PxHashMap@IU?$ClusterApproximationT@MV?$PxVec3T@M@physx@@@Gu@physx@@U?$PxHash@I@3@VPxAllocator@3@@1@H@Z 00000001800622b0 f i GuWindingNumber.obj
 0001:000616c0       ??$traverseBVH@V?$WindingNumberTraversalController@MV?$PxVec3T@M@physx@@@Gu@physx@@@Gu@physx@@YAXPEBUBVHNode@01@AEAV?$WindingNumberTraversalController@MV?$PxVec3T@M@physx@@@01@H@Z 00000001800626c0 f i GuWindingNumber.obj
 0001:00061c60       ?allocate@?$PxArray@HV?$PxReflectionAllocator@H@physx@@@physx@@IEAAPEAHI@Z 0000000180062c60 f i GuWindingNumber.obj
 0001:00061d10       ?computeWindingNumber@Gu@physx@@YAMAEBV?$PxVec3T@M@2@PEBIIPEBV32@@Z 0000000180062d10 f   GuWindingNumber.obj
 0001:00062040       ?computeWindingNumber@Gu@physx@@YAMPEBUBVHNode@12@AEBV?$PxVec3T@M@2@AEBV?$PxHashMap@IU?$ClusterApproximationT@MV?$PxVec3T@M@physx@@@Gu@physx@@U?$PxHash@I@3@VPxAllocator@3@@2@PEBIPEBV42@@Z 0000000180063040 f   GuWindingNumber.obj
 0001:000620b0       ?computeWindingNumber@Gu@physx@@YAMPEBUBVHNode@12@AEBV?$PxVec3T@M@2@MAEBV?$PxHashMap@IU?$ClusterApproximationT@MV?$PxVec3T@M@physx@@@Gu@physx@@U?$PxHash@I@3@VPxAllocator@3@@2@PEBIPEBV42@@Z 00000001800630b0 f   GuWindingNumber.obj
 0001:00062120       ?create@?$PxHashBase@V?$PxPair@$$CBIU?$ClusterApproximationT@MV?$PxVec3T@M@physx@@@Gu@physx@@@physx@@IU?$PxHash@I@2@UGetKey@?$PxHashMapBase@IU?$ClusterApproximationT@MV?$PxVec3T@M@physx@@@Gu@physx@@U?$PxHash@I@3@VPxAllocator@3@@2@VPxAllocator@2@$00@physx@@QEAAPEAV?$PxPair@$$CBIU?$ClusterApproximationT@MV?$PxVec3T@M@physx@@@Gu@physx@@@2@AEBIAEA_N@Z 0000000180063120 f i GuWindingNumber.obj
 0001:00062270       ?growAndPushBack@?$PxArray@HV?$PxReflectionAllocator@H@physx@@@physx@@IEAAAEAHAEBH@Z 0000000180063270 f i GuWindingNumber.obj
 0001:00062330       ?growAndPushBack@?$PxArray@USection@Gu@physx@@V?$PxReflectionAllocator@USection@Gu@physx@@@3@@physx@@IEAAAEAUSection@Gu@2@AEBU342@@Z 0000000180063330 f i GuWindingNumber.obj
 0001:00062460       ?precomputeClusterInformation@Gu@physx@@YAXPEBUBVHNode@12@PEBIIPEBV?$PxVec3T@M@2@AEAV?$PxHashMap@IU?$ClusterApproximationT@MV?$PxVec3T@M@physx@@@Gu@physx@@U?$PxHash@I@3@VPxAllocator@3@@2@H@Z 0000000180063460 f   GuWindingNumber.obj
 0001:00062500       ?SweepAnyShapeHeightfield@Gu@physx@@YAMAEBUCCDShape@12@0AEBUPxTransformPadded@2@111MAEAV?$PxVec3T@M@2@2MAEAIM@Z 0000000180063500 f   GuCCDSweepConvexMesh.obj
 0001:00063a80       ?SweepAnyShapeMesh@Gu@physx@@YAMAEBUCCDShape@12@0AEBUPxTransformPadded@2@111MAEAV?$PxVec3T@M@2@2MAEAIM@Z 0000000180064a80 f   GuCCDSweepConvexMesh.obj
 0001:000650c0       ?SweepEstimateAnyShapeHeightfield@Gu@physx@@YAMAEBUCCDShape@12@0MM@Z 00000001800660c0 f   GuCCDSweepConvexMesh.obj
 0001:00065d40       ?SweepEstimateAnyShapeMesh@Gu@physx@@YAMAEBUCCDShape@12@0MM@Z 0000000180066d40 f   GuCCDSweepConvexMesh.obj
 0001:00065fe0       ?allocate@?$PxArray@IV?$PxInlineAllocator@$0BAA@V?$PxReflectionAllocator@I@physx@@@physx@@@physx@@IEAAPEAII@Z 0000000180066fe0 f i GuCCDSweepConvexMesh.obj
 0001:00066ac0       ?growAndPushBack@?$PxArray@IV?$PxInlineAllocator@$0BAA@V?$PxReflectionAllocator@I@physx@@@physx@@@physx@@IEAAAEAIAEBI@Z 0000000180067ac0 f i GuCCDSweepConvexMesh.obj
 0001:00067100       ?recreate@?$PxArray@IV?$PxInlineAllocator@$0BAA@V?$PxReflectionAllocator@I@physx@@@physx@@@physx@@IEAAXI@Z 0000000180068100 f i GuCCDSweepConvexMesh.obj
 0001:00067240       ?resize@?$PxArray@IV?$PxInlineAllocator@$0BAA@V?$PxReflectionAllocator@I@physx@@@physx@@@physx@@QEAAXIAEBI@Z 0000000180068240 f i GuCCDSweepConvexMesh.obj
 0001:00067310       ?transformBoxOrthonormal@physx@@YA?AVBox@Gu@1@AEBV231@AEBV?$PxTransformT@M@1@@Z 0000000180068310 f i GuCCDSweepConvexMesh.obj
 0001:000677a0       ?UnimplementedSweep@Gu@physx@@YAMAEBUCCDShape@12@0AEBUPxTransformPadded@2@111MAEAV?$PxVec3T@M@2@2MAEAIM@Z 00000001800687a0 f   GuCCDSweepPrimitives.obj
 0001:0006b4d0       ?UnimplementedTriangleSweep@Gu@physx@@YAMAEBVPxGeometry@2@0AEBUPxTransformPadded@2@111MAEAV?$PxVec3T@M@2@2AEBVFastVertex2ShapeScaling@Cm@2@AEAVTriangleV@12@M@Z 000000018006c4d0 f   GuCCDSweepPrimitives.obj
 0001:0006b4e0       ??$SweepGeomTriangles@VCapsuleV@Gu@physx@@@Gu@physx@@YAMAEBVPxGeometry@1@0AEBUPxTransformPadded@1@111MAEAV?$PxVec3T@M@1@2AEBVFastVertex2ShapeScaling@Cm@1@AEAVTriangleV@01@M@Z 000000018006c4e0 f i GuCCDSweepPrimitives.obj
 0001:0006bc10       ??$SweepGeomTriangles@VBoxV@Gu@physx@@@Gu@physx@@YAMAEBVPxGeometry@1@0AEBUPxTransformPadded@1@111MAEAV?$PxVec3T@M@1@2AEBVFastVertex2ShapeScaling@Cm@1@AEAVTriangleV@01@M@Z 000000018006cc10 f i GuCCDSweepPrimitives.obj
 0001:0006c360       ??$SweepGeomTriangles@VConvexHullV@Gu@physx@@@Gu@physx@@YAMAEBVPxGeometry@1@0AEBUPxTransformPadded@1@111MAEAV?$PxVec3T@M@1@2AEBVFastVertex2ShapeScaling@Cm@1@AEAVTriangleV@01@M@Z 000000018006d360 f i GuCCDSweepPrimitives.obj
 0001:0006ce40       ?supportPoint@?$RelativeConvex@VCapsuleV@Gu@physx@@@Gu@physx@@UEBA?AT__m128@@H@Z 000000018006de40 f i GuCCDSweepPrimitives.obj
 0001:0006cea0       ?support@?$RelativeConvex@VCapsuleV@Gu@physx@@@Gu@physx@@UEBA?AT__m128@@AEBT4@@Z 000000018006dea0 f i GuCCDSweepPrimitives.obj
 0001:0006cf50       ?support@?$RelativeConvex@VCapsuleV@Gu@physx@@@Gu@physx@@UEBA?AT__m128@@AEBT4@AEAH@Z 000000018006df50 f i GuCCDSweepPrimitives.obj
 0001:0006d010       ?supportPoint@?$RelativeConvex@VTriangleV@Gu@physx@@@Gu@physx@@UEBA?AT__m128@@H@Z 000000018006e010 f i GuCCDSweepPrimitives.obj
 0001:0006d060       ?support@?$RelativeConvex@VTriangleV@Gu@physx@@@Gu@physx@@UEBA?AT__m128@@AEBT4@@Z 000000018006e060 f i GuCCDSweepPrimitives.obj
 0001:0006d160       ?support@?$RelativeConvex@VTriangleV@Gu@physx@@@Gu@physx@@UEBA?AT__m128@@AEBT4@AEAH@Z 000000018006e160 f i GuCCDSweepPrimitives.obj
 0001:0006d2a0       ??$gjkPenetration@U?$RelativeConvex@VCapsuleV@Gu@physx@@@Gu@physx@@U?$LocalConvex@VBoxV@Gu@physx@@@23@@Gu@physx@@YA?AW4GjkStatus@01@AEBU?$RelativeConvex@VCapsuleV@Gu@physx@@@01@AEBU?$LocalConvex@VBoxV@Gu@physx@@@01@AEBT__m128@@2_NPEIAE4AEAEAEAUGjkOutput@01@@Z 000000018006e2a0 f i GuCCDSweepPrimitives.obj
 0001:0006d310       ??$gjkPenetration@U?$RelativeConvex@VCapsuleV@Gu@physx@@@Gu@physx@@U?$LocalConvex@VBoxV@Gu@physx@@@23@@Gu@physx@@YA?AW4GjkStatus@01@AEBU?$RelativeConvex@VCapsuleV@Gu@physx@@@01@AEBU?$LocalConvex@VBoxV@Gu@physx@@@01@AEBT__m128@@2_NPEIAE4PEIAT5@5AEAEAEAUGjkOutput@01@@Z 000000018006e310 f i GuCCDSweepPrimitives.obj
 0001:0006e810       ??$gjkPenetration@U?$RelativeConvex@VCapsuleV@Gu@physx@@@Gu@physx@@U?$LocalConvex@VCapsuleV@Gu@physx@@@23@@Gu@physx@@YA?AW4GjkStatus@01@AEBU?$RelativeConvex@VCapsuleV@Gu@physx@@@01@AEBU?$LocalConvex@VCapsuleV@Gu@physx@@@01@AEBT__m128@@2_NPEIAE4AEAEAEAUGjkOutput@01@@Z 000000018006f810 f i GuCCDSweepPrimitives.obj
 0001:0006e880       ??$gjkPenetration@U?$RelativeConvex@VCapsuleV@Gu@physx@@@Gu@physx@@U?$LocalConvex@VCapsuleV@Gu@physx@@@23@@Gu@physx@@YA?AW4GjkStatus@01@AEBU?$RelativeConvex@VCapsuleV@Gu@physx@@@01@AEBU?$LocalConvex@VCapsuleV@Gu@physx@@@01@AEBT__m128@@2_NPEIAE4PEIAT5@5AEAEAEAUGjkOutput@01@@Z 000000018006f880 f i GuCCDSweepPrimitives.obj
 0001:0006fd70       ??$gjkPenetration@U?$RelativeConvex@VCapsuleV@Gu@physx@@@Gu@physx@@U?$LocalConvex@VConvexHullV@Gu@physx@@@23@@Gu@physx@@YA?AW4GjkStatus@01@AEBU?$RelativeConvex@VCapsuleV@Gu@physx@@@01@AEBU?$LocalConvex@VConvexHullV@Gu@physx@@@01@AEBT__m128@@2_NPEIAE4AEAEAEAUGjkOutput@01@@Z 0000000180070d70 f i GuCCDSweepPrimitives.obj
 0001:0006fde0       ??$gjkPenetration@U?$RelativeConvex@VCapsuleV@Gu@physx@@@Gu@physx@@U?$LocalConvex@VConvexHullV@Gu@physx@@@23@@Gu@physx@@YA?AW4GjkStatus@01@AEBU?$RelativeConvex@VCapsuleV@Gu@physx@@@01@AEBU?$LocalConvex@VConvexHullV@Gu@physx@@@01@AEBT__m128@@2_NPEIAE4PEIAT5@5AEAEAEAUGjkOutput@01@@Z 0000000180070de0 f i GuCCDSweepPrimitives.obj
 0001:00071380       ??$gjkPenetration@U?$RelativeConvex@VTriangleV@Gu@physx@@@Gu@physx@@U?$LocalConvex@VBoxV@Gu@physx@@@23@@Gu@physx@@YA?AW4GjkStatus@01@AEBU?$RelativeConvex@VTriangleV@Gu@physx@@@01@AEBU?$LocalConvex@VBoxV@Gu@physx@@@01@AEBT__m128@@2_NPEIAE4AEAEAEAUGjkOutput@01@@Z 0000000180072380 f i GuCCDSweepPrimitives.obj
 0001:000713f0       ??$gjkPenetration@U?$RelativeConvex@VTriangleV@Gu@physx@@@Gu@physx@@U?$LocalConvex@VBoxV@Gu@physx@@@23@@Gu@physx@@YA?AW4GjkStatus@01@AEBU?$RelativeConvex@VTriangleV@Gu@physx@@@01@AEBU?$LocalConvex@VBoxV@Gu@physx@@@01@AEBT__m128@@2_NPEIAE4PEIAT5@5AEAEAEAUGjkOutput@01@@Z 00000001800723f0 f i GuCCDSweepPrimitives.obj
 0001:00072910       ??$gjkPenetration@U?$RelativeConvex@VTriangleV@Gu@physx@@@Gu@physx@@U?$LocalConvex@VCapsuleV@Gu@physx@@@23@@Gu@physx@@YA?AW4GjkStatus@01@AEBU?$RelativeConvex@VTriangleV@Gu@physx@@@01@AEBU?$LocalConvex@VCapsuleV@Gu@physx@@@01@AEBT__m128@@2_NPEIAE4AEAEAEAUGjkOutput@01@@Z 0000000180073910 f i GuCCDSweepPrimitives.obj
 0001:00072980       ??$gjkPenetration@U?$RelativeConvex@VTriangleV@Gu@physx@@@Gu@physx@@U?$LocalConvex@VCapsuleV@Gu@physx@@@23@@Gu@physx@@YA?AW4GjkStatus@01@AEBU?$RelativeConvex@VTriangleV@Gu@physx@@@01@AEBU?$LocalConvex@VCapsuleV@Gu@physx@@@01@AEBT__m128@@2_NPEIAE4PEIAT5@5AEAEAEAUGjkOutput@01@@Z 0000000180073980 f i GuCCDSweepPrimitives.obj
 0001:00073e90       ??$gjkPenetration@U?$RelativeConvex@VTriangleV@Gu@physx@@@Gu@physx@@U?$LocalConvex@VConvexHullV@Gu@physx@@@23@@Gu@physx@@YA?AW4GjkStatus@01@AEBU?$RelativeConvex@VTriangleV@Gu@physx@@@01@AEBU?$LocalConvex@VConvexHullV@Gu@physx@@@01@AEBT__m128@@2_NPEIAE4AEAEAEAUGjkOutput@01@@Z 0000000180074e90 f i GuCCDSweepPrimitives.obj
 0001:00073f00       ??$gjkPenetration@U?$RelativeConvex@VTriangleV@Gu@physx@@@Gu@physx@@U?$LocalConvex@VConvexHullV@Gu@physx@@@23@@Gu@physx@@YA?AW4GjkStatus@01@AEBU?$RelativeConvex@VTriangleV@Gu@physx@@@01@AEBU?$LocalConvex@VConvexHullV@Gu@physx@@@01@AEBT__m128@@2_NPEIAE4PEIAT5@5AEAEAEAUGjkOutput@01@@Z 0000000180074f00 f i GuCCDSweepPrimitives.obj
 0001:000754b0       ??$gjkRaycast@U?$RelativeConvex@VCapsuleV@Gu@physx@@@Gu@physx@@U?$LocalConvex@VBoxV@Gu@physx@@@23@@Gu@physx@@YA_NAEBU?$RelativeConvex@VCapsuleV@Gu@physx@@@01@AEBU?$LocalConvex@VBoxV@Gu@physx@@@01@AEBT__m128@@222AEAT4@33M@Z 00000001800764b0 f i GuCCDSweepPrimitives.obj
 0001:00076120       ??$gjkRaycast@U?$RelativeConvex@VCapsuleV@Gu@physx@@@Gu@physx@@U?$LocalConvex@VCapsuleV@Gu@physx@@@23@@Gu@physx@@YA_NAEBU?$RelativeConvex@VCapsuleV@Gu@physx@@@01@AEBU?$LocalConvex@VCapsuleV@Gu@physx@@@01@AEBT__m128@@222AEAT4@33M@Z 0000000180077120 f i GuCCDSweepPrimitives.obj
 0001:00076e10       ??$gjkRaycast@U?$RelativeConvex@VCapsuleV@Gu@physx@@@Gu@physx@@U?$LocalConvex@VConvexHullV@Gu@physx@@@23@@Gu@physx@@YA_NAEBU?$RelativeConvex@VCapsuleV@Gu@physx@@@01@AEBU?$LocalConvex@VConvexHullV@Gu@physx@@@01@AEBT__m128@@222AEAT4@33M@Z 0000000180077e10 f i GuCCDSweepPrimitives.obj
 0001:00077c10       ??$gjkRaycast@U?$RelativeConvex@VTriangleV@Gu@physx@@@Gu@physx@@U?$LocalConvex@VBoxV@Gu@physx@@@23@@Gu@physx@@YA_NAEBU?$RelativeConvex@VTriangleV@Gu@physx@@@01@AEBU?$LocalConvex@VBoxV@Gu@physx@@@01@AEBT__m128@@222AEAT4@33M@Z 0000000180078c10 f i GuCCDSweepPrimitives.obj
 0001:00078920       ??$gjkRaycast@U?$RelativeConvex@VTriangleV@Gu@physx@@@Gu@physx@@U?$LocalConvex@VCapsuleV@Gu@physx@@@23@@Gu@physx@@YA_NAEBU?$RelativeConvex@VTriangleV@Gu@physx@@@01@AEBU?$LocalConvex@VCapsuleV@Gu@physx@@@01@AEBT__m128@@222AEAT4@33M@Z 0000000180079920 f i GuCCDSweepPrimitives.obj
 0001:000796a0       ??$gjkRaycast@U?$RelativeConvex@VTriangleV@Gu@physx@@@Gu@physx@@U?$LocalConvex@VConvexHullV@Gu@physx@@@23@@Gu@physx@@YA_NAEBU?$RelativeConvex@VTriangleV@Gu@physx@@@01@AEBU?$LocalConvex@VConvexHullV@Gu@physx@@@01@AEBT__m128@@222AEAT4@33M@Z 000000018007a6a0 f i GuCCDSweepPrimitives.obj
 0001:0007a560       ?SweepShapeShape@Gu@physx@@YAMAEBUCCDShape@12@0AEBUPxTransformPadded@2@111MAEAV?$PxVec3T@M@2@2MAEAIM@Z 000000018007b560 f   GuCCDSweepPrimitives.obj
 0001:0007a580       ?SweepShapeTriangle@Gu@physx@@YAMAEBVPxGeometry@2@0AEBUPxTransformPadded@2@111MAEAV?$PxVec3T@M@2@2AEBVFastVertex2ShapeScaling@Cm@2@AEAVTriangleV@12@M@Z 000000018007b580 f   GuCCDSweepPrimitives.obj
 0001:0007a5a0       ?barycentricCoordinates@Gu@physx@@YAXAEBT__m128@@000AEAT3@1@Z 000000018007b5a0 f   GuBarycentricCoordinates.obj
 0001:0007a6e0       ?barycentricCoordinates@Gu@physx@@YAXAEBT__m128@@00AEAT3@@Z 000000018007b6e0 f   GuBarycentricCoordinates.obj
 0001:0007a750       ??$?_UV?$PxReflectionAllocator@VAdjTriangle@Gu@physx@@@physx@@@PxUserAllocated@physx@@SAPEAX_KV?$PxReflectionAllocator@VAdjTriangle@Gu@physx@@@1@PEBDH@Z 000000018007b750 f i GuAdjacencies.obj
 0001:0007a830       ??0AdjacenciesBuilder@Gu@physx@@QEAA@XZ 000000018007b830 f   GuAdjacencies.obj
 0001:0007a840       ??1AdjacenciesBuilder@Gu@physx@@QEAA@XZ 000000018007b840 f   GuAdjacencies.obj
 0001:0007a990       ?ComputeNbBoundaryEdges@Adjacencies@Gu@physx@@QEBAIXZ 000000018007b990 f   GuAdjacencies.obj
 0001:0007ac20       ?Init@AdjacenciesBuilder@Gu@physx@@QEAA_NAEBUADJACENCIESCREATE@23@@Z 000000018007bc20 f   GuAdjacencies.obj
 0001:0007b180       ??0EdgeList@Gu@physx@@QEAA@XZ 000000018007c180 f   GuEdgeList.obj
 0001:0007b1a0       ??1EdgeList@Gu@physx@@QEAA@XZ 000000018007c1a0 f   GuEdgeList.obj
 0001:0007b250       ?computeActiveEdges@EdgeList@Gu@physx@@AEAA_NIPEBIPEBGPEBV?$PxVec3T@M@3@M@Z 000000018007c250 f   GuEdgeList.obj
 0001:0007c5d0       ?createEdgesToFaces@EdgeList@Gu@physx@@AEAA_NIPEBIPEBG@Z 000000018007d5d0 f   GuEdgeList.obj
 0001:0007c830       ?createFacesToEdges@EdgeList@Gu@physx@@AEAA_NIPEBIPEBG@Z 000000018007d830 f   GuEdgeList.obj
 0001:0007cc00       ?init@EdgeList@Gu@physx@@QEAA_NAEBUEDGELISTCREATE@23@@Z 000000018007dc00 f   GuEdgeList.obj
 0001:0007cd30       ?addAxis@SeparatingAxes@Gu@physx@@QEAA_NAEBV?$PxVec3T@M@3@@Z 000000018007dd30 f   GuSeparatingAxes.obj
 0001:0007cdf0       ??$kmeans_cluster@V?$PxVec3T@M@physx@@M@@YAIPEBV?$PxVec3T@M@physx@@IIPEAV01@PEAIMM@Z 000000018007ddf0 f i GuQuantizer.obj
 0001:0007d7b0       ??_EQuantizer@Gu@physx@@MEAAPEAXI@Z 000000018007e7b0 f i GuQuantizer.obj
 0001:0007d7b0       ??_GQuantizer@Gu@physx@@MEAAPEAXI@Z 000000018007e7b0 f i GuQuantizer.obj
 0001:0007d7e0       ??_EQuantizerImpl@@EEAAPEAXI@Z 000000018007e7e0 f i GuQuantizer.obj
 0001:0007d7e0       ??_GQuantizerImpl@@EEAAPEAXI@Z 000000018007e7e0 f i GuQuantizer.obj
 0001:0007d8b0       ?createQuantizer@Gu@physx@@YAPEAVQuantizer@12@XZ 000000018007e8b0 f   GuQuantizer.obj
 0001:0007d960       ?getDenormalizeCenter@QuantizerImpl@@UEBAAEBV?$PxVec3T@M@physx@@XZ 000000018007e960 f i GuQuantizer.obj
 0001:0007d970       ?getCurrentAABBTreeBounds@PruningPool@Gu@physx@@QEBAAEBVAABBTreeBounds@23@XZ 000000018007e970 f i GuIncrementalAABBPrunerCore.obj
 0001:0007d970       ?getDenormalizeScale@QuantizerImpl@@UEBAAEBV?$PxVec3T@M@physx@@XZ 000000018007e970 f i GuQuantizer.obj
 0001:0007d980       ?kmeansQuantize3D@QuantizerImpl@@UEAAPEBV?$PxVec3T@M@physx@@IPEBV23@I_NIAEAI@Z 000000018007e980 f i GuQuantizer.obj
 0001:0007dbf0       ?normalizeInput@QuantizerImpl@@AEAAXIPEBV?$PxVec3T@M@physx@@I@Z 000000018007ebf0 f i GuQuantizer.obj
 0001:0007e040       ?release@QuantizerImpl@@UEAAXXZ 000000018007f040 f i GuQuantizer.obj
 0001:0007e060       ??0MeshCleaner@Gu@physx@@QEAA@IPEBV?$PxVec3T@M@2@IPEBIMM@Z 000000018007f060 f   GuMeshCleaner.obj
 0001:0007ea30       ??1MeshCleaner@Gu@physx@@QEAA@XZ 000000018007fa30 f   GuMeshCleaner.obj
 0001:0007eac0       ??0ReducedVertexCloud@Gu@physx@@QEAA@PEBV?$PxVec3T@M@2@I@Z 000000018007fac0 f   GuVertexReducer.obj
 0001:0007eae0       ??1ReducedVertexCloud@Gu@physx@@QEAA@XZ 000000018007fae0 f   GuVertexReducer.obj
 0001:0007eaf0       ?clean@ReducedVertexCloud@Gu@physx@@QEAAAEAV123@XZ 000000018007faf0 f   GuVertexReducer.obj
 0001:0007eb60       ?reduce@ReducedVertexCloud@Gu@physx@@QEAA_NPEAUREDUCEDCLOUD@23@@Z 000000018007fb60 f   GuVertexReducer.obj
 0001:0007ee00       ?buildConsistentTriangleOrientationMap@MeshAnalyzer@Gu@physx@@SA_NPEBU?$IndexedTriangleT@H@23@IAEAV?$PxArray@_NV?$PxReflectionAllocator@_N@physx@@@3@AEAV?$PxHashMap@_KHU?$PxHash@_K@physx@@VPxAllocator@2@@3@AEAV?$PxArray@V?$PxArray@IV?$PxReflectionAllocator@I@physx@@@physx@@V?$PxReflectionAllocator@V?$PxArray@IV?$PxReflectionAllocator@I@physx@@@physx@@@2@@3@@Z 000000018007fe00 f   GuMeshAnalysis.obj
 0001:0007f340       ?buildTriangleAdjacency@MeshAnalyzer@Gu@physx@@SA_NPEBU?$IndexedTriangleT@H@23@IAEAV?$PxArray@HV?$PxReflectionAllocator@H@physx@@@3@AEAV?$PxHashMap@_KHU?$PxHash@_K@physx@@VPxAllocator@2@@3@@Z 0000000180080340 f   GuMeshAnalysis.obj
 0001:0007f640       ?checkConsistentTriangleOrientation@MeshAnalyzer@Gu@physx@@SA_NPEBU?$IndexedTriangleT@H@23@I@Z 0000000180080640 f   GuMeshAnalysis.obj
 0001:0007f790       ?checkMeshWatertightness@MeshAnalyzer@Gu@physx@@SA_NPEBU?$IndexedTriangleT@H@23@I_N@Z 0000000180080790 f   GuMeshAnalysis.obj
 0001:0007f960       ?destroy@?$PxArray@V?$PxArray@IV?$PxReflectionAllocator@I@physx@@@physx@@V?$PxReflectionAllocator@V?$PxArray@IV?$PxReflectionAllocator@I@physx@@@physx@@@2@@physx@@KAXPEAV?$PxArray@IV?$PxReflectionAllocator@I@physx@@@2@0@Z 0000000180080960 f i GuMeshAnalysis.obj
 0001:0007f9d0       ?erase@?$PxHashBase@V?$PxPair@$$CB_KH@physx@@_KU?$PxHash@_K@2@UGetKey@?$PxHashMapBase@_KHU?$PxHash@_K@physx@@VPxAllocator@2@@2@VPxAllocator@2@$00@physx@@QEAA_NAEB_K@Z 00000001800809d0 f i GuMeshAnalysis.obj
 0001:0007fb80       ?growAndPushBack@?$PxArray@V?$PxArray@IV?$PxReflectionAllocator@I@physx@@@physx@@V?$PxReflectionAllocator@V?$PxArray@IV?$PxReflectionAllocator@I@physx@@@physx@@@2@@physx@@IEAAAEAV?$PxArray@IV?$PxReflectionAllocator@I@physx@@@2@AEBV32@@Z 0000000180080b80 f i GuMeshAnalysis.obj
 0001:0007fcf0       ?makeTriOrientationConsistent@MeshAnalyzer@Gu@physx@@SA_NPEAU?$IndexedTriangleT@H@23@I_N@Z 0000000180080cf0 f   GuMeshAnalysis.obj
 0001:0007fe60       ?recreate@?$PxArray@_NV?$PxReflectionAllocator@_N@physx@@@physx@@IEAAXI@Z 0000000180080e60 f i GuMeshAnalysis.obj
 0001:0007ff50       ?resize@?$PxArray@HV?$PxReflectionAllocator@H@physx@@@physx@@QEAAXIAEBH@Z 0000000180080f50 f i GuMeshAnalysis.obj
 0001:00080010       ?resize@?$PxArray@_NV?$PxReflectionAllocator@_N@physx@@@physx@@QEAAXIAEB_N@Z 0000000180081010 f i GuMeshAnalysis.obj
 0001:000800d0       ?contactBoxBox@Gu@physx@@YA_NAEBVPxGeometry@2@0AEBUPxTransformPadded@2@1AEBUNarrowPhaseParams@12@AEAUCache@12@AEAVPxContactBuffer@2@PEAVPxRenderOutput@2@@Z 00000001800810d0 f   GuContactBoxBox.obj
 0001:00084260       ?contactCapsuleBox@Gu@physx@@YA_NAEBVPxGeometry@2@0AEBUPxTransformPadded@2@1AEBUNarrowPhaseParams@12@AEAUCache@12@AEAVPxContactBuffer@2@PEAVPxRenderOutput@2@@Z 0000000180085260 f   GuContactCapsuleBox.obj
 0001:00084a70       ?contactCapsuleCapsule@Gu@physx@@YA_NAEBVPxGeometry@2@0AEBUPxTransformPadded@2@1AEBUNarrowPhaseParams@12@AEAUCache@12@AEAVPxContactBuffer@2@PEAVPxRenderOutput@2@@Z 0000000180085a70 f   GuContactCapsuleCapsule.obj
 0001:00087460       ?contactCapsuleConvex@Gu@physx@@YA_NAEBVPxGeometry@2@0AEBUPxTransformPadded@2@1AEBUNarrowPhaseParams@12@AEAUCache@12@AEAVPxContactBuffer@2@PEAVPxRenderOutput@2@@Z 0000000180088460 f   GuContactCapsuleConvex.obj
 0001:000899a0       ?contactCapsuleHeightfield@Gu@physx@@YA_NAEBVPxGeometry@2@0AEBUPxTransformPadded@2@1AEBUNarrowPhaseParams@12@AEAUCache@12@AEAVPxContactBuffer@2@PEAVPxRenderOutput@2@@Z 000000018008a9a0 f   GuContactCapsuleMesh.obj
 0001:0008a1b0       ?contactCapsuleMesh@Gu@physx@@YA_NAEBVPxGeometry@2@0AEBUPxTransformPadded@2@1AEBUNarrowPhaseParams@12@AEAUCache@12@AEAVPxContactBuffer@2@PEAVPxRenderOutput@2@@Z 000000018008b1b0 f   GuContactCapsuleMesh.obj
 0001:0008b590       ?transformQueryBounds@FastVertex2ShapeScaling@Cm@physx@@QEBAXAEAV?$PxVec3T@M@3@0AEAV?$PxMat33T@M@3@@Z 000000018008c590 f i GuContactCapsuleMesh.obj
 0001:0008f830       ?contactBoxConvex@Gu@physx@@YA_NAEBVPxGeometry@2@0AEBUPxTransformPadded@2@1AEBUNarrowPhaseParams@12@AEAUCache@12@AEAVPxContactBuffer@2@PEAVPxRenderOutput@2@@Z 0000000180090830 f   GuContactConvexConvex.obj
 0001:0008fa00       ?contactConvexConvex@Gu@physx@@YA_NAEBVPxGeometry@2@0AEBUPxTransformPadded@2@1AEBUNarrowPhaseParams@12@AEAUCache@12@AEAVPxContactBuffer@2@PEAVPxRenderOutput@2@@Z 0000000180090a00 f   GuContactConvexConvex.obj
 0001:0008fe80       ?transformPlaneToShapeSpace@FastVertex2ShapeScaling@Cm@physx@@QEBAXAEBV?$PxVec3T@M@3@MAEAV43@AEAM@Z 0000000180090e80 f i GuContactConvexConvex.obj
 0001:00090330       ??_EConvexMeshContactGenerationCallback@@UEAAPEAXI@Z 0000000180091330 f i GuContactConvexMesh.obj
 0001:00090330       ??_GConvexMeshContactGenerationCallback@@UEAAPEAXI@Z 0000000180091330 f i GuContactConvexMesh.obj
 0001:00090390       ?addData@?$CacheMap@UCachedEdge@Gu@physx@@$0IA@@Gu@physx@@QEAA_NAEBUCachedEdge@23@@Z 0000000180091390 f i GuContactConvexMesh.obj
 0001:00090470       ?addData@?$CacheMap@UCachedVertex@Gu@physx@@$0IA@@Gu@physx@@QEAA_NAEBUCachedVertex@23@@Z 0000000180091470 f i GuContactConvexMesh.obj
 0001:00090500       ?allocate@?$PxArray@IV?$PxInlineAllocator@$0BBAA@V?$PxReflectionAllocator@I@physx@@@physx@@@physx@@IEAAPEAII@Z 0000000180091500 f i GuContactConvexMesh.obj
 0001:00090900       ?contactBoxHeightfield@Gu@physx@@YA_NAEBVPxGeometry@2@0AEBUPxTransformPadded@2@1AEBUNarrowPhaseParams@12@AEAUCache@12@AEAVPxContactBuffer@2@PEAVPxRenderOutput@2@@Z 0000000180091900 f   GuContactConvexMesh.obj
 0001:00090a80       ?contactBoxMesh@Gu@physx@@YA_NAEBVPxGeometry@2@0AEBUPxTransformPadded@2@1AEBUNarrowPhaseParams@12@AEAUCache@12@AEAVPxContactBuffer@2@PEAVPxRenderOutput@2@@Z 0000000180091a80 f   GuContactConvexMesh.obj
 0001:00090c50       ?contactConvexHeightfield@Gu@physx@@YA_NAEBVPxGeometry@2@0AEBUPxTransformPadded@2@1AEBUNarrowPhaseParams@12@AEAUCache@12@AEAVPxContactBuffer@2@PEAVPxRenderOutput@2@@Z 0000000180091c50 f   GuContactConvexMesh.obj
 0001:00090da0       ?contactConvexMesh@Gu@physx@@YA_NAEBVPxGeometry@2@0AEBUPxTransformPadded@2@1AEBUNarrowPhaseParams@12@AEAUCache@12@AEAVPxContactBuffer@2@PEAVPxRenderOutput@2@@Z 0000000180091da0 f   GuContactConvexMesh.obj
 0001:000944b0       ?processHit@ConvexMeshContactGenerationCallback@@UEAA_NAEBUPxGeomRaycastHit@physx@@AEBV?$PxVec3T@M@3@11AEAMPEBI@Z 00000001800954b0 f i GuContactConvexMesh.obj
 0001:00094e70       ?recreate@?$PxArray@IV?$PxInlineAllocator@$0BBAA@V?$PxReflectionAllocator@I@physx@@@physx@@@physx@@IEAAXI@Z 0000000180095e70 f i GuContactConvexMesh.obj
 0001:00096550       ?contactPlaneBox@Gu@physx@@YA_NAEBVPxGeometry@2@0AEBUPxTransformPadded@2@1AEBUNarrowPhaseParams@12@AEAUCache@12@AEAVPxContactBuffer@2@PEAVPxRenderOutput@2@@Z 0000000180097550 f   GuContactPlaneBox.obj
 0001:00097210       ?contactPlaneCapsule@Gu@physx@@YA_NAEBVPxGeometry@2@0AEBUPxTransformPadded@2@1AEBUNarrowPhaseParams@12@AEAUCache@12@AEAVPxContactBuffer@2@PEAVPxRenderOutput@2@@Z 0000000180098210 f   GuContactPlaneCapsule.obj
 0001:000978e0       ?contactPlaneConvex@Gu@physx@@YA_NAEBVPxGeometry@2@0AEBUPxTransformPadded@2@1AEBUNarrowPhaseParams@12@AEAUCache@12@AEAVPxContactBuffer@2@PEAVPxRenderOutput@2@@Z 00000001800988e0 f   GuContactPlaneConvex.obj
 0001:00099620       ?contactPolygonPolygonExt@Gu@physx@@YA_NIPEBV?$PxVec3T@M@2@PEBEAEBV?$PxMat34T@M@2@AEBVPxPlane@2@AEBV?$PxMat33T@M@2@I01234AEBV32@22IIAEAVPxContactBuffer@2@_N5M@Z 000000018009a620 f   GuContactPolygonPolygon.obj
 0001:0009ad90       ?findRotationMatrixFromZ@Gu@physx@@YA?AV?$PxMat33T@M@2@AEBV?$PxVec3T@M@2@@Z 000000018009bd90 f   GuContactPolygonPolygon.obj
 0001:0009b7b0       ?contactSphereBox@Gu@physx@@YA_NAEBVPxGeometry@2@0AEBUPxTransformPadded@2@1AEBUNarrowPhaseParams@12@AEAUCache@12@AEAVPxContactBuffer@2@PEAVPxRenderOutput@2@@Z 000000018009c7b0 f   GuContactSphereBox.obj
 0001:0009bd80       ?contactSphereCapsule@Gu@physx@@YA_NAEBVPxGeometry@2@0AEBUPxTransformPadded@2@1AEBUNarrowPhaseParams@12@AEAUCache@12@AEAVPxContactBuffer@2@PEAVPxRenderOutput@2@@Z 000000018009cd80 f   GuContactSphereCapsule.obj
 0001:0009cb60       ?contactSphereHeightfield@Gu@physx@@YA_NAEBVPxGeometry@2@0AEBUPxTransformPadded@2@1AEBUNarrowPhaseParams@12@AEAUCache@12@AEAVPxContactBuffer@2@PEAVPxRenderOutput@2@@Z 000000018009db60 f   GuContactSphereMesh.obj
 0001:0009d580       ?contactSphereMesh@Gu@physx@@YA_NAEBVPxGeometry@2@0AEBUPxTransformPadded@2@1AEBUNarrowPhaseParams@12@AEAUCache@12@AEAVPxContactBuffer@2@PEAVPxRenderOutput@2@@Z 000000018009e580 f   GuContactSphereMesh.obj
 0001:0009fa30       ?contactSpherePlane@Gu@physx@@YA_NAEBVPxGeometry@2@0AEBUPxTransformPadded@2@1AEBUNarrowPhaseParams@12@AEAUCache@12@AEAVPxContactBuffer@2@PEAVPxRenderOutput@2@@Z 00000001800a0a30 f   GuContactSpherePlane.obj
 0001:0009fc40       ?contactSphereSphere@Gu@physx@@YA_NAEBVPxGeometry@2@0AEBUPxTransformPadded@2@1AEBUNarrowPhaseParams@12@AEAUCache@12@AEAVPxContactBuffer@2@PEAVPxRenderOutput@2@@Z 00000001800a0c40 f   GuContactSphereSphere.obj
 0001:0009fdc0       ?contactCustomGeometryGeometry@Gu@physx@@YA_NAEBVPxGeometry@2@0AEBUPxTransformPadded@2@1AEBUNarrowPhaseParams@12@AEAUCache@12@AEAVPxContactBuffer@2@PEAVPxRenderOutput@2@@Z 00000001800a0dc0 f   GuContactCustomGeometry.obj
 0001:0009fe20       ?contactGeometryCustomGeometry@Gu@physx@@YA_NAEBVPxGeometry@2@0AEBUPxTransformPadded@2@1AEBUNarrowPhaseParams@12@AEAUCache@12@AEAVPxContactBuffer@2@PEAVPxRenderOutput@2@@Z 00000001800a0e20 f   GuContactCustomGeometry.obj
 0001:0009fee0       ?selectNormal@Gu@physx@@YA_NEMM@Z 00000001800a0ee0 f   GuFeatureCode.obj
 0001:0009ff60       ??0BigConvexData@physx@@QEAA@XZ 00000001800a0f60 f   GuBigConvexData.obj
 0001:0009ff80       ??1BigConvexData@physx@@QEAA@XZ 00000001800a0f80 f   GuBigConvexData.obj
 0001:000a0040       ?ComputeNearestOffset@BigConvexData@physx@@QEBAIAEBV?$PxVec3T@M@2@@Z 00000001800a1040 f   GuBigConvexData.obj
 0001:000a0140       ?ComputeOffset@BigConvexData@physx@@QEBAIAEBV?$PxVec3T@M@2@@Z 00000001800a1140 f   GuBigConvexData.obj
 0001:000a0240       ?CreateOffsets@BigConvexData@physx@@IEAAXXZ 00000001800a1240 f   GuBigConvexData.obj
 0001:000a0290       ?Load@BigConvexData@physx@@QEAA_NAEAVPxInputStream@2@@Z 00000001800a1290 f   GuBigConvexData.obj
 0001:000a03a0       ?VLoad@BigConvexData@physx@@IEAA_NAEAVPxInputStream@2@@Z 00000001800a13a0 f   GuBigConvexData.obj
 0001:000a0540       ?exportExtraData@BigConvexData@physx@@QEAAXAEAVPxSerializationContext@2@@Z 00000001800a1540 f   GuBigConvexData.obj
 0001:000a05c0       ?importExtraData@BigConvexData@physx@@QEAAXAEAVPxDeserializationContext@2@@Z 00000001800a15c0 f   GuBigConvexData.obj
 0001:000a0630       ?findUniqueConvexEdges@Gu@physx@@YAIIPEIAUConvexEdge@12@IPEIBUHullPolygonData@12@PEIBE@Z 00000001800a1630 f   GuConvexHelper.obj
 0001:000a0770       ?getConvexData@Gu@physx@@YA_NAEBVPxConvexMeshGeometry@2@AEAVFastVertex2ShapeScaling@Cm@2@AEAVPxBounds3@2@AEAUPolygonalData@12@@Z 00000001800a1770 f   GuConvexHelper.obj
 0001:000a09f0       ?getScaledConvex@Gu@physx@@YAXAEAPEAV?$PxVec3T@M@2@AEAPEAEPEAV32@PEAE_NPEBV32@PEBEIAEBVFastVertex2ShapeScaling@Cm@2@@Z 00000001800a19f0 f   GuConvexHelper.obj
 0001:000a0b20       ??0ConvexMesh@Gu@physx@@QEAA@PEAVMeshFactory@12@@Z 00000001800a1b20 f   GuConvexMesh.obj
 0001:000a0bb0       ??0ConvexMesh@Gu@physx@@QEAA@PEAVMeshFactory@12@AEAUConvexHullInitData@12@@Z 00000001800a1bb0 f   GuConvexMesh.obj
 0001:000a0ce0       ??_EConvexMesh@Gu@physx@@UEAAPEAXI@Z 00000001800a1ce0 f i GuConvexMesh.obj
 0001:000a0ce0       ??_GConvexMesh@Gu@physx@@UEAAPEAXI@Z 00000001800a1ce0 f i GuConvexMesh.obj
 0001:000a0df0       ??_EPxBVH@physx@@MEAAPEAXI@Z 00000001800a1df0 f i GuBVH.obj
 0001:000a0df0       ??_EPxBase@physx@@MEAAPEAXI@Z 00000001800a1df0 f i GuConvexMesh.obj
 0001:000a0df0       ??_GPxBVH@physx@@MEAAPEAXI@Z 00000001800a1df0 f i GuBVH.obj
 0001:000a0df0       ??_GPxBase@physx@@MEAAPEAXI@Z 00000001800a1df0 f i GuConvexMesh.obj
 0001:000a0e20       ?acquireReference@ConvexMesh@Gu@physx@@UEAAXXZ 00000001800a1e20 f   GuConvexMesh.obj
 0001:000a0e20       ?acquireReference@HeightField@Gu@physx@@UEAAXXZ 00000001800a1e20 f   GuHeightField.obj
 0001:000a0e20       ?acquireReference@SoftBodyAuxData@Gu@physx@@UEAAXXZ 00000001800a1e20 f   GuTetrahedronMesh.obj
 0001:000a0e20       ?acquireReference@SoftBodyMesh@Gu@physx@@UEAAXXZ 00000001800a1e20 f   GuTetrahedronMesh.obj
 0001:000a0e20       ?acquireReference@TetrahedronMesh@Gu@physx@@UEAAXXZ 00000001800a1e20 f   GuTetrahedronMesh.obj
 0001:000a0e20       ?acquireReference@TriangleMesh@Gu@physx@@UEAAXXZ 00000001800a1e20 f   GuTriangleMesh.obj
 0001:000a12e0       ?createObject@ConvexMesh@Gu@physx@@SAPEAV123@AEAPEAEAEAVPxDeserializationContext@3@@Z 00000001800a22e0 f   GuConvexMesh.obj
 0001:000a1400       ?exportExtraData@ConvexMesh@Gu@physx@@UEAAXAEAVPxSerializationContext@3@@Z 00000001800a2400 f   GuConvexMesh.obj
 0001:000a1500       ?getConcreteTypeName@PxConvexMesh@physx@@UEBAPEBDXZ 00000001800a2500 f i GuConvexMesh.obj
 0001:000a1510       ?getIndexBuffer@ConvexMesh@Gu@physx@@UEBAPEBEXZ 00000001800a2510 f i GuConvexMesh.obj
 0001:000a1550       ?getLocalBounds@ConvexMesh@Gu@physx@@UEBA?AVPxBounds3@3@XZ 00000001800a2550 f   GuConvexMesh.obj
 0001:000a15e0       ?getMassInformation@ConvexMesh@Gu@physx@@UEBAXAEAMAEAV?$PxMat33T@M@3@AEAV?$PxVec3T@M@3@@Z 00000001800a25e0 f   GuConvexMesh.obj
 0001:000a1650       ?getNbPolygons@ConvexMesh@Gu@physx@@UEBAIXZ 00000001800a2650 f i GuConvexMesh.obj
 0001:000a1660       ?getNbVertices@ConvexMesh@Gu@physx@@UEBAIXZ 00000001800a2660 f i GuConvexMesh.obj
 0001:000a1670       ?getPolygonData@ConvexMesh@Gu@physx@@UEBA_NIAEAUPxHullPolygon@3@@Z 00000001800a2670 f   GuConvexMesh.obj
 0001:000a16c0       ?getReferenceCount@ConvexMesh@Gu@physx@@UEBAIXZ 00000001800a26c0 f   GuConvexMesh.obj
 0001:000a16c0       ?getReferenceCount@HeightField@Gu@physx@@UEBAIXZ 00000001800a26c0 f   GuHeightField.obj
 0001:000a16c0       ?getReferenceCount@SoftBodyAuxData@Gu@physx@@UEBAIXZ 00000001800a26c0 f   GuTetrahedronMesh.obj
 0001:000a16c0       ?getReferenceCount@SoftBodyMesh@Gu@physx@@UEBAIXZ 00000001800a26c0 f   GuTetrahedronMesh.obj
 0001:000a16c0       ?getReferenceCount@TetrahedronMesh@Gu@physx@@UEBAIXZ 00000001800a26c0 f   GuTetrahedronMesh.obj
 0001:000a16c0       ?getReferenceCount@TriangleMesh@Gu@physx@@UEBAIXZ 00000001800a26c0 f   GuTriangleMesh.obj
 0001:000a16c0       ?length@DNameStatusNode@@UEBAHXZ 00000001800a26c0 f   libvcruntime:undname.obj
 0001:000a16c0       ?raw_length@DNameStatusNode@@UEBAHXZ 00000001800a26c0 f   libvcruntime:undname.obj
 0001:000a16d0       ?getSDF@ConvexMesh@Gu@physx@@UEBAPEBMXZ 00000001800a26d0 f   GuConvexMesh.obj
 0001:000a16e0       ?getVertices@ConvexMesh@Gu@physx@@UEBAPEBV?$PxVec3T@M@3@XZ 00000001800a26e0 f i GuConvexMesh.obj
 0001:000a1700       ?isGpuCompatible@ConvexMesh@Gu@physx@@UEBA_NXZ 00000001800a2700 f   GuConvexMesh.obj
 0001:000a1740       ?isKindOf@PxBase@physx@@MEBA_NPEBD@Z 00000001800a2740 f i GuConvexMesh.obj
 0001:000a1760       ?isKindOf@PxConvexMesh@physx@@MEBA_NPEBD@Z 00000001800a2760 f i GuConvexMesh.obj
 0001:000a17f0       ?isReleasable@PxBase@physx@@UEBA_NXZ 00000001800a27f0 f i GuConvexMesh.obj
 0001:000a1800       ?load@ConvexMesh@Gu@physx@@QEAA_NAEAVPxInputStream@3@@Z 00000001800a2800 f   GuConvexMesh.obj
 0001:000a1d90       ?onRefCountZero@ConvexMesh@Gu@physx@@UEAAXXZ 00000001800a2d90 f   GuConvexMesh.obj
 0001:000a1ec0       ?release@ConvexMesh@Gu@physx@@UEAAXXZ 00000001800a2ec0 f   GuConvexMesh.obj
 0001:000a1ec0       ?release@HeightField@Gu@physx@@UEAAXXZ 00000001800a2ec0 f   GuHeightField.obj
 0001:000a1ec0       ?release@SoftBodyAuxData@Gu@physx@@UEAAXXZ 00000001800a2ec0 f   GuTetrahedronMesh.obj
 0001:000a1ec0       ?release@SoftBodyMesh@Gu@physx@@UEAAXXZ 00000001800a2ec0 f   GuTetrahedronMesh.obj
 0001:000a1ec0       ?release@TetrahedronMesh@Gu@physx@@UEAAXXZ 00000001800a2ec0 f   GuTetrahedronMesh.obj
 0001:000a1ec0       ?release@TriangleMesh@Gu@physx@@UEAAXXZ 00000001800a2ec0 f   GuTriangleMesh.obj
 0001:000a1ef0       ??Dphysx@@YA?AV?$PxMat34T@M@0@AEBVPxMeshScale@0@AEBV10@@Z 00000001800a2ef0 f i GuConvexUtilsInternal.obj
 0001:000a2460       ?computeHullOBB@Gu@physx@@YAXAEAVBox@12@AEBVPxBounds3@2@MAEBV?$PxMat34T@M@2@2AEBVFastVertex2ShapeScaling@Cm@2@_N@Z 00000001800a3460 f   GuConvexUtilsInternal.obj
 0001:000a2910       ?computeOBBAroundConvex@Gu@physx@@YAXAEAVBox@12@AEBVPxConvexMeshGeometry@2@PEBVPxConvexMesh@2@AEBV?$PxTransformT@M@2@@Z 00000001800a3910 f   GuConvexUtilsInternal.obj
 0001:000a3160       ?computeVertexSpaceOBB@Gu@physx@@YAXAEAVBox@12@AEBV312@AEBV?$PxTransformT@M@2@AEBVPxMeshScale@2@@Z 00000001800a4160 f   GuConvexUtilsInternal.obj
 0001:000a3490       ?transform@physx@@YA?AVBox@Gu@1@AEBV?$PxMat34T@M@1@AEBV231@@Z 00000001800a4490 f i GuConvexUtilsInternal.obj
 0001:000a36e0       ?localSearch@physx@@YAXAEAIAEBV?$PxVec3T@M@1@PEBV21@PEBUBigConvexRawData@Gu@1@@Z 00000001800a46e0 f   GuHillClimbing.obj
 0001:000a3820       ??0PCMPolygonalBox@Gu@physx@@QEAA@AEBV?$PxVec3T@M@2@@Z 00000001800a4820 f   GuPCMShapeConvex.obj
 0001:000a3820       ??0PolygonalBox@Gu@physx@@QEAA@AEBV?$PxVec3T@M@2@@Z 00000001800a4820 f   GuShapeConvex.obj
 0001:000a4ce0       ?getPolygonalData@PolygonalBox@Gu@physx@@QEBAXPEIAUPolygonalData@23@@Z 00000001800a5ce0 f   GuShapeConvex.obj
 0001:000a4d50       ?getPolygonalData_Convex@Gu@physx@@YAXPEIAUPolygonalData@12@PEIBUConvexHullData@12@AEBVFastVertex2ShapeScaling@Cm@2@@Z 00000001800a5d50 f   GuShapeConvex.obj
 0001:000a4eb0       ?distancePointBoxSquared@Gu@physx@@YAMAEBV?$PxVec3T@M@2@00AEBV?$PxMat33T@M@2@PEAV32@@Z 00000001800a5eb0 f   GuDistancePointBox.obj
 0001:000a5000       ?closestPtPointTriangle@Gu@physx@@YA?AV?$PxVec3T@M@2@AEBV32@000AEAM1@Z 00000001800a6000 f   GuDistancePointTriangle.obj
 0001:000a5520       ?distancePointTriangleSquared2UnitBox@Gu@physx@@YA?AT__m128@@AEBT3@000AEAT3@11@Z 00000001800a6520 f   GuDistancePointTriangle.obj
 0001:000a5640       ?distancePointTriangleSquared@Gu@physx@@YA?AT__m128@@AEBT3@000AEAT3@11@Z 00000001800a6640 f   GuDistancePointTriangle.obj
 0001:000a6390       ?distanceSegmentBoxSquared@Gu@physx@@YAMAEBV?$PxVec3T@M@2@000AEBV?$PxMat33T@M@2@PEAMPEAV32@@Z 00000001800a7390 f   GuDistanceSegmentBox.obj
 0001:000a6c10       ?distanceSegmentSegmentSquared4@Gu@physx@@YA?AT__m128@@AEBT3@000000000AEAT3@1@Z 00000001800a7c10 f   GuDistanceSegmentSegment.obj
 0001:000a6f20       ?distanceSegmentSegmentSquared@Gu@physx@@YA?AT__m128@@AEBT3@000AEAT3@1@Z 00000001800a7f20 f   GuDistanceSegmentSegment.obj
 0001:000a70e0       ?distanceSegmentSegmentSquared@Gu@physx@@YAMAEBV?$PxVec3T@M@2@000PEAM1@Z 00000001800a80e0 f   GuDistanceSegmentSegment.obj
 0001:000a7370       ?distanceSegmentSegmentSquared@Gu@physx@@YAMAEBV?$PxVec3T@M@2@0M00MPEAM1@Z 00000001800a8370 f   GuDistanceSegmentSegment.obj
 0001:000a7ab0       ?distanceSegmentTriangleSquared@Gu@physx@@YA?AT__m128@@AEBT3@0000AEAT3@1@Z 00000001800a8ab0 f   GuDistanceSegmentTriangle.obj
 0001:000a81f0       ?distanceSegmentTriangleSquared@Gu@physx@@YAMAEBV?$PxVec3T@M@2@0000PEAM11@Z 00000001800a91f0 f   GuDistanceSegmentTriangle.obj
 0001:000a9860       ?distanceTriangleTriangleSquared@Gu@physx@@YAMAEAV?$PxVec3T@M@2@0QEBVPxVec3Padded@2@1@Z 00000001800aa860 f   GuDistanceTriangleTriangle.obj
 0001:000aa390       ?PointOutsideOfPlane4@Gu@physx@@YA?AV?$PxVec4T@M@2@AEBV?$PxVec3T@M@2@0000@Z 00000001800ab390 f   GuDistancePointTetrahedron.obj
 0001:000aa800       ?closestPtPointTetrahedron@Gu@physx@@YA?AV?$PxVec3T@M@2@AEBV32@0000AEBV?$PxVec4T@M@2@@Z 00000001800ab800 f   GuDistancePointTetrahedron.obj
 0001:000ab8f0       ?PenetrationDepth@EPA@Gu@physx@@QEAA?AW4GjkStatus@23@AEBUGjkConvex@23@0PEIBT__m128@@1E_NT6@AEAUGjkOutput@23@@Z 00000001800ac8f0 f   GuEPA.obj
 0001:000ac3b0       ?addFacet@EPA@Gu@physx@@QEAAPEAVFacet@23@IIIAEBT__m128@@@Z 00000001800ad3b0 f   GuEPA.obj
 0001:000ac7e0       ?epaPenetration@Gu@physx@@YA?AW4GjkStatus@12@AEBUGjkConvex@12@0PEIBE1E_NT__m128@@AEAUGjkOutput@12@@Z 00000001800ad7e0 f   GuEPA.obj
 0001:000ac950       ?epaPenetration@Gu@physx@@YA?AW4GjkStatus@12@AEBUGjkConvex@12@0PEIBT__m128@@1E_NT5@AEAUGjkOutput@12@@Z 00000001800ad950 f   GuEPA.obj
 0001:000aca00       ?silhouette@Facet@Gu@physx@@QEAAXAEBT__m128@@PEIBT4@1AEAVEdgeBuffer@23@AEAV?$InlineDeferredIDPool@$0EA@@Cm@3@@Z 00000001800ada00 f   GuEPA.obj
 0001:000acbd0       ?closestPtPointTetrahedron@Gu@physx@@YA?AT__m128@@PEIAT3@00AEAI@Z 00000001800adbd0 f   GuGJKSimplex.obj
 0001:000ad340       ?closestPtPointTetrahedron@Gu@physx@@YA?AT__m128@@PEIAT3@00PEIAH1AEAI@Z 00000001800ae340 f   GuGJKSimplex.obj
 0001:000aedc0       ??$gjk@UGjkConvex@Gu@physx@@U123@@Gu@physx@@YA?AW4GjkStatus@01@AEBUGjkConvex@01@0AEBT__m128@@1AEAT4@222@Z 00000001800afdc0 f i GuGJKTest.obj
 0001:000af9e0       ??$gjkPenetration@UGjkConvex@Gu@physx@@U123@@Gu@physx@@YA?AW4GjkStatus@01@AEBUGjkConvex@01@0AEBT__m128@@1_NPEIAE3AEAEAEAUGjkOutput@01@@Z 00000001800b09e0 f i GuGJKTest.obj
 0001:000afa50       ??$gjkPenetration@UGjkConvex@Gu@physx@@U123@@Gu@physx@@YA?AW4GjkStatus@01@AEBUGjkConvex@01@0AEBT__m128@@1_NPEIAE3PEIAT4@4AEAEAEAUGjkOutput@01@@Z 00000001800b0a50 f i GuGJKTest.obj
 0001:000b0ea0       ?testEpaPenetration@Gu@physx@@YA?AW4GjkStatus@12@AEBUGjkConvex@12@0PEBE1EAEAUGjkOutput@12@@Z 00000001800b1ea0 f   GuGJKTest.obj
 0001:000b0ef0       ?testGjk@Gu@physx@@YA?AW4GjkStatus@12@AEBUGjkConvex@12@0AEBT__m128@@1AEAT5@222@Z 00000001800b1ef0 f   GuGJKTest.obj
 0001:000b0f00       ?testGjkPenetration@Gu@physx@@YA?AW4GjkStatus@12@AEBUGjkConvex@12@0AEBT__m128@@1PEAE2AEAEAEAUGjkOutput@12@@Z 00000001800b1f00 f   GuGJKTest.obj
 0001:000b0f50       ??0HeightField@Gu@physx@@QEAA@PEAVMeshFactory@12@@Z 00000001800b1f50 f   GuHeightField.obj
 0001:000b0fa0       ??0HeightField@Gu@physx@@QEAA@PEAVMeshFactory@12@AEAUHeightFieldData@12@@Z 00000001800b1fa0 f   GuHeightField.obj
 0001:000b1050       ??1HeightField@Gu@physx@@UEAA@XZ 00000001800b2050 f   GuHeightField.obj
 0001:000b10d0       ??_EHeightField@Gu@physx@@UEAAPEAXI@Z 00000001800b20d0 f i GuHeightField.obj
 0001:000b10d0       ??_GHeightField@Gu@physx@@UEAAPEAXI@Z 00000001800b20d0 f i GuHeightField.obj
 0001:000b1180       ?computeCellCoordinates@HeightField@Gu@physx@@QEBAIMMAEAM0@Z 00000001800b2180 f   GuHeightField.obj
 0001:000b12a0       ?createObject@HeightField@Gu@physx@@SAPEAV123@AEAPEAEAEAVPxDeserializationContext@3@@Z 00000001800b22a0 f   GuHeightField.obj
 0001:000b12f0       ?exportExtraData@HeightField@Gu@physx@@UEAAXAEAVPxSerializationContext@3@@Z 00000001800b22f0 f   GuHeightField.obj
 0001:000b1340       ?getConcreteTypeName@PxHeightField@physx@@UEBAPEBDXZ 00000001800b2340 f i GuHeightField.obj
 0001:000b1350       ?getConvexEdgeThreshold@HeightField@Gu@physx@@UEBAMXZ 00000001800b2350 f i GuHeightField.obj
 0001:000b1360       ?getFlags@HeightField@Gu@physx@@UEBA?AV?$PxFlags@W4Enum@PxHeightFieldFlag@physx@@G@3@XZ 00000001800b2360 f i GuHeightField.obj
 0001:000b1370       ?getFormat@HeightField@Gu@physx@@UEBA?AW4Enum@PxHeightFieldFormat@3@XZ 00000001800b2370 f i GuHeightField.obj
 0001:000b1380       ?getHeight@HeightField@Gu@physx@@UEBAMMM@Z 00000001800b2380 f i GuHeightField.obj
 0001:000b14a0       ?getNbColumns@HeightField@Gu@physx@@UEBAIXZ 00000001800b24a0 f i GuHeightField.obj
 0001:000b14b0       ?getNbBounds@BVH@Gu@physx@@UEBAIXZ 00000001800b24b0 f i GuBVH.obj
 0001:000b14b0       ?getNbPrimitives@SourceMesh@Gu@physx@@UEBAIXZ 00000001800b24b0 f i GuBV4.obj
 0001:000b14b0       ?getNbPrimitives@TetrahedronSourceMesh@Gu@physx@@UEBAIXZ 00000001800b24b0 f i GuBV4.obj
 0001:000b14b0       ?getNbRows@HeightField@Gu@physx@@UEBAIXZ 00000001800b24b0 f i GuHeightField.obj
 0001:000b14c0       ?getSample@HeightField@Gu@physx@@UEBAAEBUPxHeightFieldSample@3@II@Z 00000001800b24c0 f i GuHeightField.obj
 0001:000b14d0       ?getSampleStride@HeightField@Gu@physx@@UEBAIXZ 00000001800b24d0 f i GuHeightField.obj
 0001:000b14e0       ?getTimestamp@HeightField@Gu@physx@@UEBAIXZ 00000001800b24e0 f i GuHeightField.obj
 0001:000b14f0       ?getTriangleMaterialIndex@HeightField@Gu@physx@@UEBAGI@Z 00000001800b24f0 f i GuHeightField.obj
 0001:000b1520       ?getTriangleNormal@HeightField@Gu@physx@@UEBA?AV?$PxVec3T@M@3@I@Z 00000001800b2520 f i GuHeightField.obj
 0001:000b1540       ?getTriangleNormalInternal@HeightField@Gu@physx@@QEBA?AV?$PxVec3T@M@3@I@Z 00000001800b2540 f i GuHeightField.obj
 0001:000b1870       ?isCollisionVertexPreca@HeightField@Gu@physx@@QEBA_NIIIG@Z 00000001800b2870 f   GuHeightField.obj
 0001:000b1910       ?isConvexVertex@HeightField@Gu@physx@@QEBA_NIII@Z 00000001800b2910 f i GuHeightField.obj
 0001:000b19e0       ?isKindOf@PxHeightField@physx@@MEBA_NPEBD@Z 00000001800b29e0 f i GuHeightField.obj
 0001:000b1a70       ?isSolidVertex@HeightField@Gu@physx@@QEBA_NIIIGAEA_N@Z 00000001800b2a70 f   GuHeightField.obj
 0001:000b1d10       ?load@HeightField@Gu@physx@@QEAA_NAEAVPxInputStream@3@@Z 00000001800b2d10 f   GuHeightField.obj
 0001:000b2070       ?loadFromDesc@HeightField@Gu@physx@@QEAA_NAEBVPxHeightFieldDesc@3@@Z 00000001800b3070 f   GuHeightField.obj
 0001:000b22f0       ?modifySamples@HeightField@Gu@physx@@UEAA_NHHAEBVPxHeightFieldDesc@3@_N@Z 00000001800b32f0 f   GuHeightField.obj
 0001:000b26a0       ?onRefCountZero@HeightField@Gu@physx@@UEAAXXZ 00000001800b36a0 f   GuHeightField.obj
 0001:000b2770       ?parseTrianglesForCollisionVertices@HeightField@Gu@physx@@QEAAXG@Z 00000001800b3770 f   GuHeightField.obj
 0001:000b2c80       ?releaseMemory@HeightField@Gu@physx@@QEAAXXZ 00000001800b3c80 f   GuHeightField.obj
 0001:000b2cd0       ?resizeAndClear@?$PxBitMapBase@VPxAllocator@physx@@@physx@@QEAAXI@Z 00000001800b3cd0 f i GuHeightField.obj
 0001:000b2d80       ?save@HeightField@Gu@physx@@QEAA_NAEAVPxOutputStream@3@_N@Z 00000001800b3d80 f   GuHeightField.obj
 0001:000b2fc0       ?saveCells@HeightField@Gu@physx@@UEBAIPEAXI@Z 00000001800b3fc0 f   GuHeightField.obj
 0001:000b3000       ?computeLocalBounds@HeightFieldUtil@Gu@physx@@QEBAXAEAVPxBounds3@3@@Z 00000001800b4000 f   GuHeightFieldUtil.obj
 0001:000b34c0       ?getTriangle@HeightFieldUtil@Gu@physx@@QEBAIAEBV?$PxTransformT@M@3@AEAVPxTriangle@3@PEAI2I_N3@Z 00000001800b44c0 f   GuHeightFieldUtil.obj
 0001:000b3dc0       ?getTriangleAdjacencyIndices@HeightField@Gu@physx@@QEBAXIIIIAEAI00@Z 00000001800b4dc0 f i GuHeightFieldUtil.obj
 0001:000b3f70       ?getTriangleVertexIndices@HeightField@Gu@physx@@QEBAXIAEAI00@Z 00000001800b4f70 f i GuHeightFieldUtil.obj
 0001:000b4030       ?overlapAABBTriangles@HeightFieldUtil@Gu@physx@@QEBAXAEBVPxBounds3@3@AEAVOverlapReport@23@I@Z 00000001800b5030 f   GuHeightFieldUtil.obj
 0001:000b4490       ??$gjk@U?$RelativeConvex@VTriangleV@Gu@physx@@@Gu@physx@@U?$LocalConvex@VConvexHullV@Gu@physx@@@23@@Gu@physx@@YA?AW4GjkStatus@01@AEBU?$RelativeConvex@VTriangleV@Gu@physx@@@01@AEBU?$LocalConvex@VConvexHullV@Gu@physx@@@01@AEBT__m128@@2AEAT5@333@Z 00000001800b5490 f i GuOverlapTestsHF.obj
 0001:000b53d0       ?GeomOverlapCallback_BoxHeightfield@@YA_NAEBVPxGeometry@physx@@AEBV?$PxTransformT@M@2@01PEAUTriggerCache@Gu@2@PEAUPxQueryThreadContext@2@@Z 00000001800b63d0 f   GuOverlapTestsHF.obj
 0001:000b5930       ?GeomOverlapCallback_CapsuleHeightfield@@YA_NAEBVPxGeometry@physx@@AEBV?$PxTransformT@M@2@01PEAUTriggerCache@Gu@2@PEAUPxQueryThreadContext@2@@Z 00000001800b6930 f   GuOverlapTestsHF.obj
 0001:000b5f30       ?GeomOverlapCallback_ConvexHeightfield@@YA_NAEBVPxGeometry@physx@@AEBV?$PxTransformT@M@2@01PEAUTriggerCache@Gu@2@PEAUPxQueryThreadContext@2@@Z 00000001800b6f30 f   GuOverlapTestsHF.obj
 0001:000b6970       ?GeomOverlapCallback_SphereHeightfield@@YA_NAEBVPxGeometry@physx@@AEBV?$PxTransformT@M@2@01PEAUTriggerCache@Gu@2@PEAUPxQueryThreadContext@2@@Z 00000001800b7970 f   GuOverlapTestsHF.obj
 0001:000b7530       ??$gjkRaycast@U?$LocalConvex@VTriangleV@Gu@physx@@@Gu@physx@@U?$LocalConvex@VConvexHullV@Gu@physx@@@23@@Gu@physx@@YA_NAEBU?$LocalConvex@VTriangleV@Gu@physx@@@01@AEBU?$LocalConvex@VConvexHullV@Gu@physx@@@01@AEBT__m128@@222AEAT4@33M@Z 00000001800b8530 f i GuSweepsHF.obj
 0001:000b8330       ??$traceSegment@VBoxTraceSegmentReport@@$0A@$00@HeightFieldTraceUtil@Gu@physx@@QEBAXAEBV?$PxVec3T@M@2@0MPEAVBoxTraceSegmentReport@@AEBVPxBounds3@2@_NPEBV32@@Z 00000001800b9330 f i GuSweepsHF.obj
 0001:000b8330       ??$traceSegment@VCapsuleTraceSegmentReport@@$0A@$00@HeightFieldTraceUtil@Gu@physx@@QEBAXAEBV?$PxVec3T@M@2@0MPEAVCapsuleTraceSegmentReport@@AEBVPxBounds3@2@_NPEBV32@@Z 00000001800b9330 f i GuSweepsHF.obj
 0001:000b8330       ??$traceSegment@VConvexTraceSegmentReport@@$0A@$00@HeightFieldTraceUtil@Gu@physx@@QEBAXAEBV?$PxVec3T@M@2@0MPEAVConvexTraceSegmentReport@@AEBVPxBounds3@2@_NPEBV32@@Z 00000001800b9330 f i GuSweepsHF.obj
 0001:000b8b00       ??0ConvexTraceSegmentReport@@QEAA@AEBVHeightFieldUtil@Gu@physx@@AEBUConvexHullData@23@AEBVPxMeshScale@3@AEBV?$PxTransformT@M@3@3AEBV?$PxVec3T@M@3@MV?$PxFlags@W4Enum@PxHitFlag@physx@@G@3@M@Z 00000001800b9b00 f i GuSweepsHF.obj
 0001:000b9480       ??_EBoxTraceSegmentReport@@UEAAPEAXI@Z 00000001800ba480 f i GuSweepsHF.obj
 0001:000b9480       ??_GBoxTraceSegmentReport@@UEAAPEAXI@Z 00000001800ba480 f i GuSweepsHF.obj
 0001:000b94b0       ??_ECapsuleTraceSegmentReport@@UEAAPEAXI@Z 00000001800ba4b0 f i GuSweepsHF.obj
 0001:000b94b0       ??_GCapsuleTraceSegmentReport@@UEAAPEAXI@Z 00000001800ba4b0 f i GuSweepsHF.obj
 0001:000b94e0       ??_EConvexTraceSegmentReport@@UEAAPEAXI@Z 00000001800ba4e0 f i GuSweepsHF.obj
 0001:000b94e0       ??_GConvexTraceSegmentReport@@UEAAPEAXI@Z 00000001800ba4e0 f i GuSweepsHF.obj
 0001:000b9510       ??_EHeightFieldTraceSegmentReport@@UEAAPEAXI@Z 00000001800ba510 f i GuSweepsHF.obj
 0001:000b9510       ??_GHeightFieldTraceSegmentReport@@UEAAPEAXI@Z 00000001800ba510 f i GuSweepsHF.obj
 0001:000b9540       ?finalizeHit@ConvexTraceSegmentReport@@QEAA_NAEAUPxGeomSweepHit@physx@@AEBVPxHeightFieldGeometry@3@AEBV?$PxTransformT@M@3@AEBVPxConvexMeshGeometry@3@2AEBV?$PxVec3T@M@3@M@Z 00000001800ba540 f i GuSweepsHF.obj
 0001:000b9760       ?onEvent@BoxTraceSegmentReport@@UEAA_NIPEBI@Z 00000001800ba760 f i GuSweepsHF.obj
 0001:000b9bb0       ?onEvent@CapsuleTraceSegmentReport@@UEAA_NIPEBI@Z 00000001800babb0 f i GuSweepsHF.obj
 0001:000b9dd0       ?onEvent@ConvexTraceSegmentReport@@UEAA_NIPEBI@Z 00000001800badd0 f i GuSweepsHF.obj
 0001:000ba390       ?prepare@?$OverlapTraceSegment@VBoxTraceSegmentReport@@@HeightFieldTraceUtil@Gu@physx@@QEAAXAEBV?$PxVec3T@M@4@00AEAM1@Z 00000001800bb390 f i GuSweepsHF.obj
 0001:000ba390       ?prepare@?$OverlapTraceSegment@VCapsuleTraceSegmentReport@@@HeightFieldTraceUtil@Gu@physx@@QEAAXAEBV?$PxVec3T@M@4@00AEAM1@Z 00000001800bb390 f i GuSweepsHF.obj
 0001:000ba390       ?prepare@?$OverlapTraceSegment@VConvexTraceSegmentReport@@@HeightFieldTraceUtil@Gu@physx@@QEAAXAEBV?$PxVec3T@M@4@00AEAM1@Z 00000001800bb390 f i GuSweepsHF.obj
 0001:000ba650       ?sweepBox_HeightFieldGeom@@YA_NAEBVPxGeometry@physx@@AEBV?$PxTransformT@M@2@AEBVPxBoxGeometry@2@1AEBVBox@Gu@2@AEBV?$PxVec3T@M@2@MAEAUPxGeomSweepHit@2@V?$PxFlags@W4Enum@PxHitFlag@physx@@G@2@MPEAUPxQueryThreadContext@2@@Z 00000001800bb650 f   GuSweepsHF.obj
 0001:000bb490       ?sweepCapsule_HeightFieldGeom@@YA_NAEBVPxGeometry@physx@@AEBV?$PxTransformT@M@2@AEBVPxCapsuleGeometry@2@1AEBVCapsule@Gu@2@AEBV?$PxVec3T@M@2@MAEAUPxGeomSweepHit@2@V?$PxFlags@W4Enum@PxHitFlag@physx@@G@2@MPEAUPxQueryThreadContext@2@@Z 00000001800bc490 f   GuSweepsHF.obj
 0001:000bbde0       ?sweepConvex_HeightFieldGeom@@YA_NAEBVPxGeometry@physx@@AEBV?$PxTransformT@M@2@AEBVPxConvexMeshGeometry@2@1AEBV?$PxVec3T@M@2@MAEAUPxGeomSweepHit@2@V?$PxFlags@W4Enum@PxHitFlag@physx@@G@2@MPEAUPxQueryThreadContext@2@@Z 00000001800bcde0 f   GuSweepsHF.obj
 0001:000bc7a0       ?testVertexIndex@?$OverlapTraceSegment@VBoxTraceSegmentReport@@@HeightFieldTraceUtil@Gu@physx@@QEAA_NI@Z 00000001800bd7a0 f i GuSweepsHF.obj
 0001:000bc7a0       ?testVertexIndex@?$OverlapTraceSegment@VCapsuleTraceSegmentReport@@@HeightFieldTraceUtil@Gu@physx@@QEAA_NI@Z 00000001800bd7a0 f i GuSweepsHF.obj
 0001:000bc7a0       ?testVertexIndex@?$OverlapTraceSegment@VConvexTraceSegmentReport@@@HeightFieldTraceUtil@Gu@physx@@QEAA_NI@Z 00000001800bd7a0 f i GuSweepsHF.obj
 0001:000bc900       ?transformFast@PxBounds3@physx@@SA?AV12@AEBV?$PxTransformT@M@2@AEBV12@@Z 00000001800bd900 f i GuSweepsHF.obj
 0001:000bcce0       ?visitCells@?$OverlapTraceSegment@VBoxTraceSegmentReport@@@HeightFieldTraceUtil@Gu@physx@@QEAA_NAEBUOverlapRectangle@1234@@Z 00000001800bdce0 f i GuSweepsHF.obj
 0001:000bcce0       ?visitCells@?$OverlapTraceSegment@VCapsuleTraceSegmentReport@@@HeightFieldTraceUtil@Gu@physx@@QEAA_NAEBUOverlapRectangle@1234@@Z 00000001800bdce0 f i GuSweepsHF.obj
 0001:000bcce0       ?visitCells@?$OverlapTraceSegment@VConvexTraceSegmentReport@@@HeightFieldTraceUtil@Gu@physx@@QEAA_NAEBUOverlapRectangle@1234@@Z 00000001800bdce0 f i GuSweepsHF.obj
 0001:000bced0       ?intersectOBBOBB@Gu@physx@@YA_NAEBV?$PxVec3T@M@2@0AEBV?$PxMat33T@M@2@001_N@Z 00000001800bded0 f   GuIntersectionBoxBox.obj
 0001:000bd520       ?intersectCapsuleTriangle@Gu@physx@@YA_NAEBV?$PxVec3T@M@2@000AEBVCapsule@12@AEBUCapsuleTriangleOverlapData@12@@Z 00000001800be520 f   GuIntersectionCapsuleTriangle.obj
 0001:000be110       ?intersectEdgeEdge@Gu@physx@@YA_NAEBV?$PxVec3T@M@2@0000AEAMAEAV32@@Z 00000001800bf110 f   GuIntersectionEdgeEdge.obj
 0001:000be440       ?intersectRayAABB2@Gu@physx@@YA_NAEBT__m128@@0000AEAT3@1@Z 00000001800bf440 f   GuIntersectionRayBox.obj
 0001:000be500       ?intersectRayAABB2@Gu@physx@@YA_NAEBV?$PxVec3T@M@2@000MAEAM1@Z 00000001800bf500 f   GuIntersectionRayBox.obj
 0001:000be6b0       ?intersectRayAABB@Gu@physx@@YAHAEBV?$PxVec3T@M@2@000AEAM1@Z 00000001800bf6b0 f   GuIntersectionRayBox.obj
 0001:000be7c0       ?rayAABBIntersect2@Gu@physx@@YAIAEBV?$PxVec3T@M@2@000AEAV32@AEAM@Z 00000001800bf7c0 f   GuIntersectionRayBox.obj
 0001:000be9c0       ?intersectRayCapsuleInternal@Gu@physx@@YAIAEBV?$PxVec3T@M@2@000MQEAM@Z 00000001800bf9c0 f   GuIntersectionRayCapsule.obj
 0001:000bee80       ?intersectRaySphere@Gu@physx@@YA_NAEBV?$PxVec3T@M@2@0M0MAEAMPEAV32@@Z 00000001800bfe80 f   GuIntersectionRaySphere.obj
 0001:000bef70       ?intersectRaySphereBasic@Gu@physx@@YA_NAEBV?$PxVec3T@M@2@0M0MAEAMPEAV32@@Z 00000001800bff70 f   GuIntersectionRaySphere.obj
 0001:000bf0d0       ?intersectSphereBox@Gu@physx@@YA_NAEBVSphere@12@AEBVBox@12@@Z 00000001800c00d0 f   GuIntersectionSphereBox.obj
 0001:000bf300       ?intersectTetrahedronBox@Gu@physx@@YA_NAEBV?$PxVec3T@M@2@000AEBVPxBounds3@2@@Z 00000001800c0300 f   GuIntersectionTetrahedronBox.obj
 0001:000bf6d0       ?intersectTriangleBox@Gu@physx@@YAHAEBVBoxPadded@12@AEBV?$PxVec3T@M@2@11@Z 00000001800c06d0 f   GuIntersectionTriangleBox.obj
 0001:000bfca0       ?intersectTriangleBoxBV4@@YAHAEBV?$PxVec3T@M@physx@@00AEBV?$PxMat33T@M@2@00@Z 00000001800c0ca0 f   GuIntersectionTriangleBox.obj
 0001:000c00e0       ?intersectTriangleBox_ReferenceCode@Gu@physx@@YAHAEBV?$PxVec3T@M@2@0000@Z 00000001800c10e0 f   GuIntersectionTriangleBox.obj
 0001:000c08b0       ?intersectTriangleBox_Unsafe@Gu@physx@@YAHAEBV?$PxVec3T@M@2@0000@Z 00000001800c18b0 f   GuIntersectionTriangleBox.obj
 0001:000c0c70       ?trianglesIntersect@Gu@physx@@YA_NAEBV?$PxVec3T@M@2@00000_N@Z 00000001800c1c70 f   GuIntersectionTriangleTriangle.obj
 0001:000c2090       ??0BV4Tree@Gu@physx@@QEAA@W4PxEMPTY@2@@Z 00000001800c3090 f   GuBV4.obj
 0001:000c20a0       ??0BV4Tree@Gu@physx@@QEAA@XZ 00000001800c30a0 f   GuBV4.obj
 0001:000c20d0       ??0SourceMesh@Gu@physx@@QEAA@XZ 00000001800c30d0 f   GuBV4.obj
 0001:000c2100       ??0TetrahedronSourceMesh@Gu@physx@@QEAA@XZ 00000001800c3100 f   GuBV4.obj
 0001:000c2130       ??1BV4Tree@Gu@physx@@QEAA@XZ 00000001800c3130 f   GuBV4.obj
 0001:000c2190       ??1SourceMesh@Gu@physx@@UEAA@XZ 00000001800c3190 f   GuBV4.obj
 0001:000c2190       ??1TetrahedronSourceMesh@Gu@physx@@UEAA@XZ 00000001800c3190 f   GuBV4.obj
 0001:000c21e0       ??4BV4Tree@Gu@physx@@QEAAXAEAV012@@Z 00000001800c31e0 f   GuBV4.obj
 0001:000c2270       ??4SourceMesh@Gu@physx@@QEAAXAEAV012@@Z 00000001800c3270 f   GuBV4.obj
 0001:000c22c0       ??_ESourceMesh@Gu@physx@@UEAAPEAXI@Z 00000001800c32c0 f i GuBV4.obj
 0001:000c22c0       ??_ETetrahedronSourceMesh@Gu@physx@@UEAAPEAXI@Z 00000001800c32c0 f i GuBV4.obj
 0001:000c22c0       ??_GSourceMesh@Gu@physx@@UEAAPEAXI@Z 00000001800c32c0 f i GuBV4.obj
 0001:000c22c0       ??_GTetrahedronSourceMesh@Gu@physx@@UEAAPEAXI@Z 00000001800c32c0 f i GuBV4.obj
 0001:000c2360       ??_ESourceMeshBase@Gu@physx@@UEAAPEAXI@Z 00000001800c3360 f i GuBV4.obj
 0001:000c2360       ??_GSourceMeshBase@Gu@physx@@UEAAPEAXI@Z 00000001800c3360 f i GuBV4.obj
 0001:000c2400       ?exportExtraData@BV4Tree@Gu@physx@@QEAAXAEAVPxSerializationContext@3@@Z 00000001800c3400 f   GuBV4.obj
 0001:000c2460       ?getPrimitiveBox@SourceMesh@Gu@physx@@UEAAXIAEAT__m128@@0@Z 00000001800c3460 f   GuBV4.obj
 0001:000c2500       ?getPrimitiveBox@TetrahedronSourceMesh@Gu@physx@@UEAAXIAEAT__m128@@0@Z 00000001800c3500 f   GuBV4.obj
 0001:000c25c0       ?importExtraData@BV4Tree@Gu@physx@@QEAAXAEAVPxDeserializationContext@3@@Z 00000001800c35c0 f   GuBV4.obj
 0001:000c2610       ?init@BV32Tree@Gu@physx@@QEAA_NPEAVSourceMeshBase@23@AEBVPxBounds3@3@@Z 00000001800c3610 f   GuBV32.obj
 0001:000c2610       ?init@BV4Tree@Gu@physx@@QEAA_NPEAVSourceMeshBase@23@AEBVPxBounds3@3@@Z 00000001800c3610 f   GuBV4.obj
 0001:000c26b0       ?load@BV4Tree@Gu@physx@@QEAA_NAEAVPxInputStream@3@_N@Z 00000001800c36b0 f   GuBV4.obj
 0001:000c28f0       ?refit@BV4Tree@Gu@physx@@QEAA_NAEAVPxBounds3@3@M@Z 00000001800c38f0 f   GuBV4.obj
 0001:000c2f70       ?refit@SourceMesh@Gu@physx@@UEAAXIAEAVPxBounds3@3@@Z 00000001800c3f70 f   GuBV4.obj
 0001:000c3110       ?refit@TetrahedronSourceMesh@Gu@physx@@UEAAXIAEAVPxBounds3@3@@Z 00000001800c4110 f   GuBV4.obj
 0001:000c3330       ?remapTopology@SourceMesh@Gu@physx@@UEAAXPEBI@Z 00000001800c4330 f   GuBV4.obj
 0001:000c35c0       ?remapTopology@TetrahedronSourceMesh@Gu@physx@@UEAAXPEBI@Z 00000001800c45c0 f   GuBV4.obj
 0001:000c3840       ??0BV4_AABBTree@Gu@physx@@QEAA@XZ 00000001800c4840 f   GuBV4Build.obj
 0001:000c3850       ??0BVData@@QEAA@XZ         00000001800c4850 f   GuBV4Build.obj
 0001:000c3880       ??0BuildStats@Gu@physx@@QEAA@XZ 00000001800c4880 f i GuBV4Build.obj
 0001:000c3890       ??1BV4_AABBTree@Gu@physx@@QEAA@XZ 00000001800c4890 f   GuBV4Build.obj
 0001:000c38a0       ??4BuildStats@Gu@physx@@QEAAAEAU012@$$QEAU012@@Z 00000001800c48a0 f i GuBV4Build.obj
 0001:000c38b0       ??4BuildStats@Gu@physx@@QEAAAEAU012@AEBU012@@Z 00000001800c48b0 f i GuBV4Build.obj
 0001:000c38c0       ?BuildBV4Ex@Gu@physx@@YA_NAEAVBV4Tree@12@AEAVSourceMeshBase@12@MI_NW4BV4_BuildStrategy@12@@Z 00000001800c48c0 f   GuBV4Build.obj
 0001:000c4790       ?allocateNode@BV4BuildParams@@QEAAPEAUBV4Node@@XZ 00000001800c5790 f   GuBV4Build.obj
 0001:000c4c00       ?buildFromMesh@BV4_AABBTree@Gu@physx@@QEAA_NAEAVSourceMeshBase@23@IW4BV4_BuildStrategy@23@@Z 00000001800c5c00 f   GuBV4Build.obj
 0001:000c5b30       ?increaseCount@BuildStats@Gu@physx@@QEAAXI@Z 00000001800c6b30 f i GuBV4Build.obj
 0001:000c6580       ?release@BV4_AABBTree@Gu@physx@@QEAAXXZ 00000001800c7580 f   GuBV4Build.obj
 0001:000c6630       ?releaseNodes@BV4BuildParams@@QEAAXXZ 00000001800c7630 f   GuBV4Build.obj
 0001:000c66a0       ?reset@BuildStats@Gu@physx@@QEAAXXZ 00000001800c76a0 f i GuBV4Build.obj
 0001:000c66b0       ?setCount@BuildStats@Gu@physx@@QEAAXI@Z 00000001800c76b0 f i GuBV4Build.obj
 0001:000c6d10       ?walk@BV4_AABBTree@Gu@physx@@QEBAIP6A_NPEBVAABBTreeNode@23@IPEAX@Z1@Z 00000001800c7d10 f   GuBV4Build.obj
 0001:000c6dd0       ?walkDistance@BV4_AABBTree@Gu@physx@@QEBAIP6A_NPEBVAABBTreeNode@23@IPEAX@ZP6A_N01@Z1@Z 00000001800c7dd0 f   GuBV4Build.obj
 0001:000cae00       ?GenericSweep_AABB_CB@@YAXAEBVBox@Gu@physx@@AEBV?$PxVec3T@M@3@MAEBVBV4Tree@23@P6A_NPEAX111IAEAM@Z3I@Z 00000001800cbe00 f   GuBV4_AABBSweep.obj
 0001:000caf60       ?Sweep_AABB_BV4@@YAHAEBVBox@Gu@physx@@AEBV?$PxVec3T@M@3@MAEBVBV4Tree@23@PEIAVSweepHit@23@I@Z 00000001800cbf60 f   GuBV4_AABBSweep.obj
 0001:000d3ce0       ?BV4_OverlapBoxAll@@YAIAEBVBox@Gu@physx@@AEBVBV4Tree@23@PEIBV?$PxMat44T@M@3@PEAIIAEA_N@Z 00000001800d4ce0 f   GuBV4_BoxOverlap.obj
 0001:000d44f0       ?BV4_OverlapBoxAny@@YAHAEBVBox@Gu@physx@@AEBVBV4Tree@23@PEIBV?$PxMat44T@M@3@@Z 00000001800d54f0 f   GuBV4_BoxOverlap.obj
 0001:000d4cf0       ?BV4_OverlapBoxCB@@YAXAEBVBox@Gu@physx@@AEBVBV4Tree@23@P6A_NPEAXAEBV?$PxVec3T@M@3@333IPEBI@Z2@Z 00000001800d5cf0 f   GuBV4_BoxOverlap.obj
 0001:000d53a0       ?BV4_OverlapBoxCB@@YAXAEBVBox@Gu@physx@@AEBVBV4Tree@23@P6A_NPEAXAEBV?$PxVec3T@M@3@33IPEBI@Z2@Z 00000001800d63a0 f   GuBV4_BoxOverlap.obj
 0001:000d5850       ?BV4_OverlapCapsuleAll@@YAIAEBVCapsule@Gu@physx@@AEBVBV4Tree@23@PEIBV?$PxMat44T@M@3@PEAIIAEA_N@Z 00000001800d6850 f   GuBV4_BoxOverlap.obj
 0001:000d5f70       ?BV4_OverlapCapsuleAny@@YAHAEBVCapsule@Gu@physx@@AEBVBV4Tree@23@PEIBV?$PxMat44T@M@3@@Z 00000001800d6f70 f   GuBV4_BoxOverlap.obj
 0001:000d8e20       ?BV4_CapsuleSweepSingle@@YAHAEBVCapsule@Gu@physx@@AEBV?$PxVec3T@M@3@MAEBVBV4Tree@23@PEIAVSweepHit@23@I@Z 00000001800d9e20 f   GuBV4_CapsuleSweep.obj
 0001:000dcec0       ?BV4_CapsuleSweepSingleAA@@YAHAEBVCapsule@Gu@physx@@AEBV?$PxVec3T@M@3@MAEBVBV4Tree@23@PEIAVSweepHit@23@I@Z 00000001800ddec0 f   GuBV4_CapsuleSweepAA.obj
 0001:000ed280       ?BV4_OverlapMeshVsMesh@@YA_NAEAV?$PxReportCallback@UPxGeomIndexPair@physx@@@physx@@AEBVBV4Tree@Gu@2@1PEBV?$PxMat44T@M@2@2AEBV?$PxTransformT@M@2@3AEBVPxMeshScale@2@4V?$PxFlags@W4Enum@PxMeshMeshQueryFlag@physx@@I@2@M@Z 00000001800ee280 f   GuBV4_MeshMeshOverlap.obj
 0001:000ed4c0       ?BV4_OverlapMeshVsMesh@@YA_NAEAV?$PxReportCallback@UPxGeomIndexPair@physx@@@physx@@AEBVBV4Tree@Gu@2@1PEBV?$PxMat44T@M@2@2V?$PxFlags@W4Enum@PxMeshMeshQueryFlag@physx@@I@2@M@Z 00000001800ee4c0 f   GuBV4_MeshMeshOverlap.obj
 0001:000f6c70       ??D?$PxMat33T@M@physx@@QEBA?BV?$PxVec3T@M@1@AEBV21@@Z 00000001800f7c70 f i GuBV4_OBBSweep.obj
 0001:000f6d00       ?BV4_BoxSweepSingle@@YAHAEBVBox@Gu@physx@@AEBV?$PxVec3T@M@3@MAEBVBV4Tree@23@PEIBV?$PxMat44T@M@3@PEIAVSweepHit@23@I@Z 00000001800f7d00 f   GuBV4_OBBSweep.obj
 0001:000f7430       ?BV4_GenericSweepCB@@YAXAEBVBox@Gu@physx@@AEBV?$PxVec3T@M@3@MAEBVBV4Tree@23@P6A_NPEAX111IAEAM@Z3_N@Z 00000001800f8430 f   GuBV4_OBBSweep.obj
 0001:000f7660       ?Sweep_OBB_BV4@@YAHAEBVBox@Gu@physx@@AEBV?$PxVec3T@M@3@MAEBVBV4Tree@23@PEIAVSweepHit@23@I@Z 00000001800f8660 f   GuBV4_OBBSweep.obj
 0001:000fa1c0       ?BV4_RaycastCB@@YAXAEBV?$PxVec3T@M@physx@@0AEBVBV4Tree@Gu@2@PEIBV?$PxMat44T@M@2@MMIP6A?AW4HitCode@42@PEAX000IMMM@Z3@Z 00000001800fb1c0 f   GuBV4_Raycast.obj
 0001:000fa600       ?BV4_RaycastSingle@@YAHAEBV?$PxVec3T@M@physx@@0AEBVBV4Tree@Gu@2@PEIBV?$PxMat44T@M@2@PEIAUPxGeomRaycastHit@2@MMIV?$PxFlags@W4Enum@PxHitFlag@physx@@G@2@@Z 00000001800fb600 f   GuBV4_Raycast.obj
 0001:000fcb30       ?BV4_OverlapSphereAll@@YAIAEBVSphere@Gu@physx@@AEBVBV4Tree@23@PEIBV?$PxMat44T@M@3@PEAIIAEA_N@Z 00000001800fdb30 f   GuBV4_SphereOverlap.obj
 0001:000fce50       ?BV4_OverlapSphereAny@@YAHAEBVSphere@Gu@physx@@AEBVBV4Tree@23@PEIBV?$PxMat44T@M@3@@Z 00000001800fde50 f   GuBV4_SphereOverlap.obj
 0001:000fd130       ?BV4_PointDistance@@YAXAEBV?$PxVec3T@M@physx@@AEBVBV4Tree@Gu@2@MAEAIAEAMAEAV12@@Z 00000001800fe130 f   GuBV4_SphereOverlap.obj
 0001:00103ae0       ?BV4_GenericSweepCB_Old@@YAXAEBV?$PxVec3T@M@physx@@00MAEBVBV4Tree@Gu@2@PEIBV?$PxMat44T@M@2@P6A_NPEAX000IAEAM@Z3@Z 0000000180104ae0 f   GuBV4_SphereSweep.obj
 0001:00103ee0       ?BV4_SphereSweepSingle@@YAHAEBVSphere@Gu@physx@@AEBV?$PxVec3T@M@3@MAEBVBV4Tree@23@PEIBV?$PxMat44T@M@3@PEIAVSweepHit@23@I@Z 0000000180104ee0 f   GuBV4_SphereSweep.obj
 0001:001051e0       ?computeSweepData@physx@@YAMAEBVPxTriangleMeshGeometry@1@AEAV?$PxVec3T@M@1@11M@Z 00000001801061e0 f i GuMidphaseBV4.obj
 0001:00106600       ?intersectBoxVsMesh_BV4@Gu@physx@@YA_NAEBVBox@12@AEBVTriangleMesh@12@AEBV?$PxTransformT@M@2@AEBVPxMeshScale@2@PEAULimitedResults@12@@Z 0000000180107600 f   GuMidphaseBV4.obj
 0001:00107100       ?intersectCapsuleVsMesh_BV4@Gu@physx@@YA_NAEBVCapsule@12@AEBVTriangleMesh@12@AEBV?$PxTransformT@M@2@AEBVPxMeshScale@2@PEAULimitedResults@12@@Z 0000000180108100 f   GuMidphaseBV4.obj
 0001:00107940       ?intersectMeshVsMesh_BV4@Gu@physx@@YA_NAEAV?$PxReportCallback@UPxGeomIndexPair@physx@@@2@AEBVTriangleMesh@12@AEBV?$PxTransformT@M@2@AEBVPxMeshScale@2@123V?$PxFlags@W4Enum@PxMeshMeshQueryFlag@physx@@I@2@M@Z 0000000180108940 f   GuMidphaseBV4.obj
 0001:00108240       ?intersectOBB_BV4@Gu@physx@@YAXPEBVTetrahedronMesh@12@AEBVBox@12@AEAU?$TetMeshHitCallback@UPxGeomRaycastHit@physx@@@12@@Z 0000000180109240 f   GuMidphaseBV4.obj
 0001:00108260       ?intersectOBB_BV4@Gu@physx@@YAXPEBVTriangleMesh@12@AEBVBox@12@AEAU?$MeshHitCallback@UPxGeomRaycastHit@physx@@@12@_N3@Z 0000000180109260 f   GuMidphaseBV4.obj
 0001:00108280       ?intersectSphereVsMesh_BV4@Gu@physx@@YA_NAEBVSphere@12@AEBVTriangleMesh@12@AEBV?$PxTransformT@M@2@AEBVPxMeshScale@2@PEAULimitedResults@12@@Z 0000000180109280 f   GuMidphaseBV4.obj
 0001:001089b0       ?pointMeshDistance_BV4@Gu@physx@@YAXPEBVTriangleMesh@12@AEBVPxTriangleMeshGeometry@2@AEBV?$PxTransformT@M@2@AEBV?$PxVec3T@M@2@MAEAIAEAMAEAV62@@Z 00000001801099b0 f   GuMidphaseBV4.obj
 0001:00109060       ?raycast_triangleMesh_BV4@Gu@physx@@YAIPEBVTriangleMesh@12@AEBVPxTriangleMeshGeometry@2@AEBV?$PxTransformT@M@2@AEBV?$PxVec3T@M@2@3MV?$PxFlags@W4Enum@PxHitFlag@physx@@G@2@IPEIAUPxGeomRaycastHit@2@I@Z 000000018010a060 f   GuMidphaseBV4.obj
 0001:00109e70       ?sweepBox_MeshGeom_BV4@Gu@physx@@YA_NPEBVTriangleMesh@12@AEBVPxTriangleMeshGeometry@2@AEBV?$PxTransformT@M@2@AEBVBox@12@AEBV?$PxVec3T@M@2@MAEAUPxGeomSweepHit@2@V?$PxFlags@W4Enum@PxHitFlag@physx@@G@2@M@Z 000000018010ae70 f   GuMidphaseBV4.obj
 0001:0010b4d0       ?sweepCapsule_MeshGeom_BV4@Gu@physx@@YA_NPEBVTriangleMesh@12@AEBVPxTriangleMeshGeometry@2@AEBV?$PxTransformT@M@2@AEBVCapsule@12@AEBV?$PxVec3T@M@2@MAEAUPxGeomSweepHit@2@V?$PxFlags@W4Enum@PxHitFlag@physx@@G@2@M@Z 000000018010c4d0 f   GuMidphaseBV4.obj
 0001:0010bfe0       ?sweepConvex_MeshGeom_BV4@Gu@physx@@YAXPEBVTriangleMesh@12@AEBVBox@12@AEBV?$PxVec3T@M@2@MAEAUSweepConvexMeshHitCallback@12@_N@Z 000000018010cfe0 f   GuMidphaseBV4.obj
 0001:0010c020       ?transform@PxMeshScale@physx@@QEBA?AV?$PxVec3T@M@2@AEBV32@@Z 000000018010d020 f i GuMidphaseBV4.obj
 0001:0010c260       ?findOverlapHeightField@PxMeshQuery@physx@@SAIAEBVPxGeometry@2@AEBV?$PxTransformT@M@2@AEBVPxHeightFieldGeometry@2@1PEAIIIAEA_NV?$PxFlags@W4Enum@PxGeometryQueryFlag@physx@@I@2@@Z 000000018010d260 f   GuMeshQuery.obj
 0001:0010c9d0       ?findOverlapTriangleMesh@PxMeshQuery@physx@@SAIAEBVPxGeometry@2@AEBV?$PxTransformT@M@2@AEBVPxTriangleMeshGeometry@2@1PEAIIIAEA_NV?$PxFlags@W4Enum@PxGeometryQueryFlag@physx@@I@2@@Z 000000018010d9d0 f   GuMeshQuery.obj
 0001:0010cd20       ?findOverlapTriangleMesh@PxMeshQuery@physx@@SA_NAEAV?$PxReportCallback@UPxGeomIndexPair@physx@@@2@AEBVPxTriangleMeshGeometry@2@AEBV?$PxTransformT@M@2@12V?$PxFlags@W4Enum@PxGeometryQueryFlag@physx@@I@2@V?$PxFlags@W4Enum@PxMeshMeshQueryFlag@physx@@I@2@M@Z 000000018010dd20 f   GuMeshQuery.obj
 0001:0010ce50       ?getTriangle@PxMeshQuery@physx@@SAXAEBVPxHeightFieldGeometry@2@AEBV?$PxTransformT@M@2@IAEAVPxTriangle@2@PEAI3@Z 000000018010de50 f   GuMeshQuery.obj
 0001:0010ced0       ?getTriangle@PxMeshQuery@physx@@SAXAEBVPxTriangleMeshGeometry@2@AEBV?$PxTransformT@M@2@IAEAVPxTriangle@2@PEAI3@Z 000000018010ded0 f   GuMeshQuery.obj
 0001:0010d440       ?sweep@PxMeshQuery@physx@@SA_NAEBV?$PxVec3T@M@2@MAEBVPxGeometry@2@AEBV?$PxTransformT@M@2@IPEBVPxTriangle@2@AEAUPxGeomSweepHit@2@V?$PxFlags@W4Enum@PxHitFlag@physx@@G@2@PEBIM_NV?$PxFlags@W4Enum@PxGeometryQueryFlag@physx@@I@2@@Z 000000018010e440 f   GuMeshQuery.obj
 0001:0010d8a0       ??$collide@$00$00@MeshRayCollider@@SAXAEBV?$PxVec3T@M@physx@@0M_NPEBVRTreeTriangleMesh@Gu@2@AEAU?$MeshHitCallback@UPxGeomRaycastHit@physx@@@42@PEBV12@@Z 000000018010e8a0 f i GuMidphaseRTree.obj
 0001:0010dc10       ??$collide@$00$0A@@MeshRayCollider@@SAXAEBV?$PxVec3T@M@physx@@0M_NPEBVRTreeTriangleMesh@Gu@2@AEAU?$MeshHitCallback@UPxGeomRaycastHit@physx@@@42@PEBV12@@Z 000000018010ec10 f i GuMidphaseRTree.obj
 0001:0010de50       ??$collide@$0A@$00@MeshRayCollider@@SAXAEBV?$PxVec3T@M@physx@@0M_NPEBVRTreeTriangleMesh@Gu@2@AEAU?$MeshHitCallback@UPxGeomRaycastHit@physx@@@42@PEBV12@@Z 000000018010ee50 f i GuMidphaseRTree.obj
 0001:001101b0       ??0?$RayRTreeCallback@$00$0A@@@QEAA@MAEAU?$MeshHitCallback@UPxGeomRaycastHit@physx@@@Gu@physx@@HPEBXPEBV?$PxVec3T@M@3@AEBV43@3M_N2@Z 00000001801111b0 f i GuMidphaseRTree.obj
 0001:001102d0       ??1?$RayRTreeCallback@$00$00@@UEAA@XZ 00000001801112d0 f i GuMidphaseRTree.obj
 0001:00110360       ??1?$RayRTreeCallback@$00$0A@@@UEAA@XZ 0000000180111360 f i GuMidphaseRTree.obj
 0001:00110360       ??1?$RayRTreeCallback@$0A@$0A@@@UEAA@XZ 0000000180111360 f i GuMidphaseRTree.obj
 0001:001103f0       ??1?$RayRTreeCallback@$0A@$00@@UEAA@XZ 00000001801113f0 f i GuMidphaseRTree.obj
 0001:00110478       ??_E?$RayRTreeCallback@$00$00@@W7EAAPEAXI@Z 0000000180111478 f i GuMidphaseRTree.obj
 0001:00110484       ??_E?$RayRTreeCallback@$00$0A@@@W7EAAPEAXI@Z 0000000180111484 f i GuMidphaseRTree.obj
 0001:00110484       ??_E?$RayRTreeCallback@$0A@$0A@@@W7EAAPEAXI@Z 0000000180111484 f i GuMidphaseRTree.obj
 0001:00110490       ??_E?$RayRTreeCallback@$0A@$00@@W7EAAPEAXI@Z 0000000180111490 f i GuMidphaseRTree.obj
 0001:00110500       ??_E?$RayRTreeCallback@$00$00@@UEAAPEAXI@Z 0000000180111500 f i GuMidphaseRTree.obj
 0001:00110500       ??_G?$RayRTreeCallback@$00$00@@UEAAPEAXI@Z 0000000180111500 f i GuMidphaseRTree.obj
 0001:00110540       ??_E?$RayRTreeCallback@$00$0A@@@UEAAPEAXI@Z 0000000180111540 f i GuMidphaseRTree.obj
 0001:00110540       ??_E?$RayRTreeCallback@$0A@$0A@@@UEAAPEAXI@Z 0000000180111540 f i GuMidphaseRTree.obj
 0001:00110540       ??_G?$RayRTreeCallback@$00$0A@@@UEAAPEAXI@Z 0000000180111540 f i GuMidphaseRTree.obj
 0001:00110540       ??_G?$RayRTreeCallback@$0A@$0A@@@UEAAPEAXI@Z 0000000180111540 f i GuMidphaseRTree.obj
 0001:00110580       ??_E?$RayRTreeCallback@$0A@$00@@UEAAPEAXI@Z 0000000180111580 f i GuMidphaseRTree.obj
 0001:00110580       ??_G?$RayRTreeCallback@$0A@$00@@UEAAPEAXI@Z 0000000180111580 f i GuMidphaseRTree.obj
 0001:001105c0       ??_ECallback@RTree@Gu@physx@@UEAAPEAXI@Z 00000001801115c0 f i GuMidphaseRTree.obj
 0001:001105c0       ??_GCallback@RTree@Gu@physx@@UEAAPEAXI@Z 00000001801115c0 f i GuMidphaseRTree.obj
 0001:001105f0       ??_ERayMeshColliderCallback@@UEAAPEAXI@Z 00000001801115f0 f i GuMidphaseRTree.obj
 0001:001105f0       ??_ESweepCapsuleMeshHitCallback@Gu@physx@@UEAAPEAXI@Z 00000001801115f0 f i GuSweepsMesh.obj
 0001:001105f0       ??_GRayMeshColliderCallback@@UEAAPEAXI@Z 00000001801115f0 f i GuMidphaseRTree.obj
 0001:001105f0       ??_GSweepCapsuleMeshHitCallback@Gu@physx@@UEAAPEAXI@Z 00000001801115f0 f i GuSweepsMesh.obj
 0001:00110620       ?collideOBB@MeshRayCollider@@SAXAEBVBox@Gu@physx@@_NPEBVRTreeTriangleMesh@34@AEAU?$MeshHitCallback@UPxGeomRaycastHit@physx@@@34@1@Z 0000000180111620 f   GuMidphaseRTree.obj
 0001:00110af0       ?intersectBoxVsMesh_RTREE@Gu@physx@@YA_NAEBVBox@12@AEBVTriangleMesh@12@AEBV?$PxTransformT@M@2@AEBVPxMeshScale@2@PEAULimitedResults@12@@Z 0000000180111af0 f   GuMidphaseRTree.obj
 0001:00110b60       ?intersectCapsuleVsMesh_RTREE@Gu@physx@@YA_NAEBVCapsule@12@AEBVTriangleMesh@12@AEBV?$PxTransformT@M@2@AEBVPxMeshScale@2@PEAULimitedResults@12@@Z 0000000180111b60 f   GuMidphaseRTree.obj
 0001:00110be0       ?intersectOBB_RTREE@Gu@physx@@YAXPEBVTriangleMesh@12@AEBVBox@12@AEAU?$MeshHitCallback@UPxGeomRaycastHit@physx@@@12@_N3@Z 0000000180111be0 f   GuMidphaseRTree.obj
 0001:00110c10       ?intersectSphereVsMesh_RTREE@Gu@physx@@YA_NAEBVSphere@12@AEBVTriangleMesh@12@AEBV?$PxTransformT@M@2@AEBVPxMeshScale@2@PEAULimitedResults@12@@Z 0000000180111c10 f   GuMidphaseRTree.obj
 0001:00110c40       ?pointMeshDistance_RTREE@Gu@physx@@YAXPEBVTriangleMesh@12@AEBVPxTriangleMeshGeometry@2@AEBV?$PxTransformT@M@2@AEBV?$PxVec3T@M@2@MAEAIAEAMAEAV62@@Z 0000000180111c40 f   GuMidphaseRTree.obj
 0001:00111a30       ?processHit@RayMeshColliderCallback@@UEAA_NAEBUPxGeomRaycastHit@physx@@AEBV?$PxVec3T@M@3@11AEAMPEBI@Z 0000000180112a30 f i GuMidphaseRTree.obj
 0001:001121d0       ?processResults@?$RayRTreeCallback@$00$00@@UEAA_NIPEAI@Z 00000001801131d0 f i GuMidphaseRTree.obj
 0001:00112550       ?processResults@?$RayRTreeCallback@$00$00@@UEAA_NIPEAIAEAM@Z 0000000180113550 f i GuMidphaseRTree.obj
 0001:001128f0       ?processResults@?$RayRTreeCallback@$00$0A@@@UEAA_NIPEAI@Z 00000001801138f0 f i GuMidphaseRTree.obj
 0001:001128f0       ?processResults@?$RayRTreeCallback@$0A@$0A@@@UEAA_NIPEAI@Z 00000001801138f0 f i GuMidphaseRTree.obj
 0001:00112b50       ?processResults@?$RayRTreeCallback@$00$0A@@@UEAA_NIPEAIAEAM@Z 0000000180113b50 f i GuMidphaseRTree.obj
 0001:00112b50       ?processResults@?$RayRTreeCallback@$0A@$0A@@@UEAA_NIPEAIAEAM@Z 0000000180113b50 f i GuMidphaseRTree.obj
 0001:00112de0       ?processResults@?$RayRTreeCallback@$0A@$00@@UEAA_NIPEAI@Z 0000000180113de0 f i GuMidphaseRTree.obj
 0001:00113420       ?processResults@?$RayRTreeCallback@$0A@$00@@UEAA_NIPEAIAEAM@Z 0000000180114420 f i GuMidphaseRTree.obj
 0001:00113a70       ?raycast_triangleMesh_RTREE@Gu@physx@@YAIPEBVTriangleMesh@12@AEBVPxTriangleMeshGeometry@2@AEBV?$PxTransformT@M@2@AEBV?$PxVec3T@M@2@3MV?$PxFlags@W4Enum@PxHitFlag@physx@@G@2@IPEIAUPxGeomRaycastHit@2@I@Z 0000000180114a70 f   GuMidphaseRTree.obj
 0001:001141f0       ?sweepBox_MeshGeom_RTREE@Gu@physx@@YA_NPEBVTriangleMesh@12@AEBVPxTriangleMeshGeometry@2@AEBV?$PxTransformT@M@2@AEBVBox@12@AEBV?$PxVec3T@M@2@MAEAUPxGeomSweepHit@2@V?$PxFlags@W4Enum@PxHitFlag@physx@@G@2@M@Z 00000001801151f0 f   GuMidphaseRTree.obj
 0001:00115680       ?sweepCapsule_MeshGeom_RTREE@Gu@physx@@YA_NPEBVTriangleMesh@12@AEBVPxTriangleMeshGeometry@2@AEBV?$PxTransformT@M@2@AEBVCapsule@12@AEBV?$PxVec3T@M@2@MAEAUPxGeomSweepHit@2@V?$PxFlags@W4Enum@PxHitFlag@physx@@G@2@M@Z 0000000180116680 f   GuMidphaseRTree.obj
 0001:00115e30       ?sweepConvex_MeshGeom_RTREE@Gu@physx@@YAXPEBVTriangleMesh@12@AEBVBox@12@AEBV?$PxVec3T@M@2@MAEAUSweepConvexMeshHitCallback@12@_N@Z 0000000180116e30 f   GuMidphaseRTree.obj
 0001:001167e0       ??_E?$PxReportCallback@UPxGeomIndexPair@physx@@@physx@@UEAAPEAXI@Z 00000001801177e0 f i GuOverlapTestsMesh.obj
 0001:001167e0       ??_G?$PxReportCallback@UPxGeomIndexPair@physx@@@physx@@UEAAPEAXI@Z 00000001801177e0 f i GuOverlapTestsMesh.obj
 0001:00116870       ?GeomOverlapCallback_BoxMesh@@YA_NAEBVPxGeometry@physx@@AEBV?$PxTransformT@M@2@01PEAUTriggerCache@Gu@2@PEAUPxQueryThreadContext@2@@Z 0000000180117870 f   GuOverlapTestsMesh.obj
 0001:00116980       ?GeomOverlapCallback_CapsuleMesh@@YA_NAEBVPxGeometry@physx@@AEBV?$PxTransformT@M@2@01PEAUTriggerCache@Gu@2@PEAUPxQueryThreadContext@2@@Z 0000000180117980 f   GuOverlapTestsMesh.obj
 0001:00116a90       ?GeomOverlapCallback_ConvexMesh@@YA_NAEBVPxGeometry@physx@@AEBV?$PxTransformT@M@2@01PEAUTriggerCache@Gu@2@PEAUPxQueryThreadContext@2@@Z 0000000180117a90 f   GuOverlapTestsMesh.obj
 0001:00116f90       ?GeomOverlapCallback_MeshMesh@@YA_NAEBVPxGeometry@physx@@AEBV?$PxTransformT@M@2@01PEAUTriggerCache@Gu@2@PEAUPxQueryThreadContext@2@@Z 0000000180117f90 f   GuOverlapTestsMesh.obj
 0001:00117060       ?GeomOverlapCallback_SphereMesh@@YA_NAEBVPxGeometry@physx@@AEBV?$PxTransformT@M@2@01PEAUTriggerCache@Gu@2@PEAUPxQueryThreadContext@2@@Z 0000000180118060 f   GuOverlapTestsMesh.obj
 0001:00117450       ??0RTree@Gu@physx@@QEAA@W4PxEMPTY@2@@Z 0000000180118450 f   GuRTree.obj
 0001:00117460       ?exportExtraData@RTree@Gu@physx@@QEAAXAEAVPxSerializationContext@3@@Z 0000000180118460 f   GuRTree.obj
 0001:001174a0       ?importExtraData@RTree@Gu@physx@@QEAAXAEAVPxDeserializationContext@3@@Z 00000001801184a0 f   GuRTree.obj
 0001:001174d0       ?load@RTree@Gu@physx@@QEAA_NAEAVPxInputStream@3@I_N@Z 00000001801184d0 f   GuRTree.obj
 0001:001177e0       ?refitAllStaticTree@RTree@Gu@physx@@QEAAXAEAUCallbackRefit@123@PEAVPxBounds3@3@@Z 00000001801187e0 f   GuRTree.obj
 0001:00117d40       ?validate@RTree@Gu@physx@@QEAAXPEAUCallbackRefit@123@@Z 0000000180118d40 f   GuRTree.obj
 0001:00117f80       ?validateRecursive@RTree@Gu@physx@@IEAAXIURTreeNodeQ@23@PEAURTreePage@23@PEAUCallbackRefit@123@@Z 0000000180118f80 f   GuRTree.obj
 0001:00118140       ??$traverseRay@$00@RTree@Gu@physx@@QEBAXAEBV?$PxVec3T@M@2@0IPEAIPEAUCallbackRaycast@012@PEBV32@M@Z 0000000180119140 f i GuRTreeQueries.obj
 0001:001184e0       ??$traverseRay@$0A@@RTree@Gu@physx@@QEBAXAEBV?$PxVec3T@M@2@0IPEAIPEAUCallbackRaycast@012@PEBV32@M@Z 00000001801194e0 f i GuRTreeQueries.obj
 0001:00118820       ?traverseAABB@RTree@Gu@physx@@QEBAXAEBV?$PxVec3T@M@3@0IPEAIPEAUCallback@123@@Z 0000000180119820 f   GuRTreeQueries.obj
 0001:001189e0       ?traverseOBB@RTree@Gu@physx@@QEBAXAEBVBox@23@IPEAIPEAUCallback@123@@Z 00000001801199e0 f   GuRTreeQueries.obj
 0001:001192b0       ??0SweepBoxMeshHitCallback@Gu@physx@@QEAA@W4Enum@CallbackMode@12@AEBVPxMat34Padded@2@M_NAEBVBox@12@AEBV?$PxVec3T@M@2@44AEBV?$PxFlags@W4Enum@PxHitFlag@physx@@G@2@M2M@Z 000000018011a2b0 f   GuSweepsMesh.obj
 0001:001193c0       ??0SweepCapsuleMeshHitCallback@Gu@physx@@QEAA@AEAUPxGeomSweepHit@2@AEBV?$PxMat34T@M@2@M_NAEBVCapsule@12@AEBV?$PxVec3T@M@2@AEBV?$PxFlags@W4Enum@PxHitFlag@physx@@G@2@2M@Z 000000018011a3c0 f   GuSweepsMesh.obj
 0001:00119490       ??0SweepConvexMeshHitCallback@Gu@physx@@QEAA@AEBUConvexHullData@12@AEBVPxMeshScale@2@AEBVFastVertex2ShapeScaling@Cm@2@AEBV?$PxTransformT@M@2@3AEBV?$PxVec3T@M@2@MV?$PxFlags@W4Enum@PxHitFlag@physx@@G@2@_NM6M@Z 000000018011a490 f   GuSweepsMesh.obj
 0001:00119df0       ??_ESweepBoxMeshHitCallback@Gu@physx@@UEAAPEAXI@Z 000000018011adf0 f i GuSweepsMesh.obj
 0001:00119df0       ??_GSweepBoxMeshHitCallback@Gu@physx@@UEAAPEAXI@Z 000000018011adf0 f i GuSweepsMesh.obj
 0001:00119e20       ??_ESweepConvexMeshHitCallback@Gu@physx@@UEAAPEAXI@Z 000000018011ae20 f i GuSweepsMesh.obj
 0001:00119e20       ??_GSweepConvexMeshHitCallback@Gu@physx@@UEAAPEAXI@Z 000000018011ae20 f i GuSweepsMesh.obj
 0001:00119e50       ??_ESweepShapeMeshHitCallback@Gu@physx@@UEAAPEAXI@Z 000000018011ae50 f i GuSweepsMesh.obj
 0001:00119e50       ??_GSweepShapeMeshHitCallback@Gu@physx@@UEAAPEAXI@Z 000000018011ae50 f i GuSweepsMesh.obj
 0001:00119e80       ?finalizeHit@SweepBoxMeshHitCallback@Gu@physx@@QEBA_NAEAUPxGeomSweepHit@3@AEBVPxTriangleMeshGeometry@3@AEBV?$PxTransformT@M@3@2AEBV?$PxVec3T@M@3@_N4@Z 000000018011ae80 f   GuSweepsMesh.obj
 0001:0011a540       ?finalizeHit@SweepCapsuleMeshHitCallback@Gu@physx@@QEBA_NAEAUPxGeomSweepHit@3@AEBVCapsule@23@AEBVPxTriangleMeshGeometry@3@AEBV?$PxTransformT@M@3@_N@Z 000000018011b540 f   GuSweepsMesh.obj
 0001:0011a6f0       ?finalizeHit@SweepConvexMeshHitCallback@Gu@physx@@QEAA_NAEAUPxGeomSweepHit@3@AEBVPxTriangleMeshGeometry@3@AEBV?$PxTransformT@M@3@AEBVPxConvexMeshGeometry@3@2AEBV?$PxVec3T@M@3@M_N555@Z 000000018011b6f0 f   GuSweepsMesh.obj
 0001:0011abc0       ?processHit@SweepBoxMeshHitCallback@Gu@physx@@UEAA_NAEBUPxGeomRaycastHit@3@AEBV?$PxVec3T@M@3@11AEAMPEBI@Z 000000018011bbc0 f   GuSweepsMesh.obj
 0001:0011b3a0       ?processHit@SweepCapsuleMeshHitCallback@Gu@physx@@UEAA_NAEBUPxGeomRaycastHit@3@AEBV?$PxVec3T@M@3@11AEAMPEBI@Z 000000018011c3a0 f   GuSweepsMesh.obj
 0001:0011b900       ?processHit@SweepConvexMeshHitCallback@Gu@physx@@UEAA_NAEBUPxGeomRaycastHit@3@AEBV?$PxVec3T@M@3@11AEAMPEBI@Z 000000018011c900 f   GuSweepsMesh.obj
 0001:0011c050       ?sweepBox_MeshGeom@@YA_NAEBVPxGeometry@physx@@AEBV?$PxTransformT@M@2@AEBVPxBoxGeometry@2@1AEBVBox@Gu@2@AEBV?$PxVec3T@M@2@MAEAUPxGeomSweepHit@2@V?$PxFlags@W4Enum@PxHitFlag@physx@@G@2@MPEAUPxQueryThreadContext@2@@Z 000000018011d050 f   GuSweepsMesh.obj
 0001:0011c0e0       ?sweepCapsule_MeshGeom@@YA_NAEBVPxGeometry@physx@@AEBV?$PxTransformT@M@2@AEBVPxCapsuleGeometry@2@1AEBVCapsule@Gu@2@AEBV?$PxVec3T@M@2@MAEAUPxGeomSweepHit@2@V?$PxFlags@W4Enum@PxHitFlag@physx@@G@2@MPEAUPxQueryThreadContext@2@@Z 000000018011d0e0 f   GuSweepsMesh.obj
 0001:0011c170       ?sweepConvex_MeshGeom@@YA_NAEBVPxGeometry@physx@@AEBV?$PxTransformT@M@2@AEBVPxConvexMeshGeometry@2@1AEBV?$PxVec3T@M@2@MAEAUPxGeomSweepHit@2@V?$PxFlags@W4Enum@PxHitFlag@physx@@G@2@MPEAUPxQueryThreadContext@2@@Z 000000018011d170 f   GuSweepsMesh.obj
 0001:0011ccb0       ??0TriangleMesh@Gu@physx@@QEAA@AEBUPxTriangleMeshInternalData@2@@Z 000000018011dcb0 f   GuTriangleMesh.obj
 0001:0011cd90       ??0TriangleMesh@Gu@physx@@QEAA@PEAVMeshFactory@12@AEAVTriangleMeshData@12@@Z 000000018011dd90 f   GuTriangleMesh.obj
 0001:0011d110       ??1TriangleMesh@Gu@physx@@UEAA@XZ 000000018011e110 f   GuTriangleMesh.obj
 0001:0011d380       ??_ETriangleMesh@Gu@physx@@UEAAPEAXI@Z 000000018011e380 f i GuTriangleMesh.obj
 0001:0011d380       ??_GTriangleMesh@Gu@physx@@UEAAPEAXI@Z 000000018011e380 f i GuTriangleMesh.obj
 0001:0011d3f0       ?exportExtraData@TriangleMesh@Gu@physx@@UEAAXAEAVPxSerializationContext@3@@Z 000000018011e3f0 f   GuTriangleMesh.obj
 0001:0011d650       ?getLocalBounds@TriangleMesh@Gu@physx@@UEBA?AVPxBounds3@3@XZ 000000018011e650 f i GuTriangleMesh.obj
 0001:0011d6e0       ?getMassInformation@TriangleMesh@Gu@physx@@UEBAXAEAMAEAV?$PxMat33T@M@3@AEAV?$PxVec3T@M@3@@Z 000000018011e6e0 f i GuTriangleMesh.obj
 0001:0011d760       ?getNbTriangles@TriangleMesh@Gu@physx@@UEBAIXZ 000000018011e760 f i GuTriangleMesh.obj
 0001:0011d770       ?getPreferSDFProjection@TriangleMesh@Gu@physx@@UEBA_NXZ 000000018011e770 f i GuTriangleMesh.obj
 0001:0011d780       ?getSDF@TriangleMesh@Gu@physx@@UEBAPEBMXZ 000000018011e780 f i GuTriangleMesh.obj
 0001:0011d790       ?getSDFDimensions@TriangleMesh@Gu@physx@@UEBAXAEAI00@Z 000000018011e790 f i GuTriangleMesh.obj
 0001:0011d7c0       ?getTriangleMaterialIndex@TriangleMesh@Gu@physx@@UEBAGI@Z 000000018011e7c0 f i GuTriangleMesh.obj
 0001:0011d7e0       ?getTriangleMeshFlags@TriangleMesh@Gu@physx@@UEBA?AV?$PxFlags@W4Enum@PxTriangleMeshFlag@physx@@E@3@XZ 000000018011e7e0 f i GuTriangleMesh.obj
 0001:0011d7f0       ?getTrianglesRemap@TriangleMesh@Gu@physx@@UEBAPEBIXZ 000000018011e7f0 f i GuTriangleMesh.obj
 0001:0011d800       ?getVerticesForModification@TriangleMesh@Gu@physx@@UEAAPEAV?$PxVec3T@M@3@XZ 000000018011e800 f   GuTriangleMesh.obj
 0001:0011d840       ?importExtraData@TriangleMesh@Gu@physx@@QEAAXAEAVPxDeserializationContext@3@@Z 000000018011e840 f   GuTriangleMesh.obj
 0001:0011da50       ?isKindOf@PxTriangleMesh@physx@@MEBA_NPEBD@Z 000000018011ea50 f i GuTriangleMesh.obj
 0001:0011dae0       ?onRefCountZero@TriangleMesh@Gu@physx@@UEAAXXZ 000000018011eae0 f   GuTriangleMesh.obj
 0001:0011dbb0       ?refitBVH@TriangleMesh@Gu@physx@@UEAA?AVPxBounds3@3@XZ 000000018011ebb0 f   GuTriangleMesh.obj
 0001:0011dc80       ?requestEdgeList@TriangleMesh@Gu@physx@@QEBAPEBVEdgeList@23@XZ 000000018011ec80 f   GuTriangleMesh.obj
 0001:0011dd60       ?setAllEdgesActive@TriangleMesh@Gu@physx@@QEAAXXZ 000000018011ed60 f   GuTriangleMesh.obj
 0001:0011de50       ?setPreferSDFProjection@TriangleMesh@Gu@physx@@UEAAX_N@Z 000000018011ee50 f i GuTriangleMesh.obj
 0001:0011de80       ??0BV4TriangleMesh@Gu@physx@@QEAA@AEBUPxTriangleMeshInternalData@2@@Z 000000018011ee80 f   GuTriangleMeshBV4.obj
 0001:0011dfe0       ??0BV4TriangleMesh@Gu@physx@@QEAA@PEAVMeshFactory@12@AEAVTriangleMeshData@12@@Z 000000018011efe0 f   GuTriangleMeshBV4.obj
 0001:0011e070       ??_EBV4TriangleMesh@Gu@physx@@UEAAPEAXI@Z 000000018011f070 f i GuTriangleMeshBV4.obj
 0001:0011e070       ??_GBV4TriangleMesh@Gu@physx@@UEAAPEAXI@Z 000000018011f070 f i GuTriangleMeshBV4.obj
 0001:0011e100       ?createObject@BV4TriangleMesh@Gu@physx@@SAPEAVTriangleMesh@23@AEAPEAEAEAVPxDeserializationContext@3@@Z 000000018011f100 f   GuTriangleMeshBV4.obj
 0001:0011e1d0       ?exportExtraData@BV4TriangleMesh@Gu@physx@@UEAAXAEAVPxSerializationContext@3@@Z 000000018011f1d0 f   GuTriangleMeshBV4.obj
 0001:0011e210       ?getConcreteTypeName@BV4TriangleMesh@Gu@physx@@UEBAPEBDXZ 000000018011f210 f i GuTriangleMeshBV4.obj
 0001:0011e220       ?getInternalData@BV4TriangleMesh@Gu@physx@@UEBA_NAEAUPxTriangleMeshInternalData@3@_N@Z 000000018011f220 f   GuTriangleMeshBV4.obj
 0001:0011e310       ?getMidphaseID@BV4TriangleMesh@Gu@physx@@UEBA?AW4Enum@PxMeshMidPhase@3@XZ 000000018011f310 f i GuTriangleMeshBV4.obj
 0001:0011e310       ?getMidphaseID@BV4TriangleMeshBuilder@physx@@UEBA?AW4Enum@PxMeshMidPhase@2@XZ 000000018011f310 f i GuCookingTriangleMesh.obj
 0001:0011e310       ?length@charNode@@UEBAHXZ  000000018011f310 f i libvcruntime:undname.obj
 0001:0011e310       ?raw_length@charNode@@UEBAHXZ 000000018011f310 f i libvcruntime:undname.obj
 0001:0011e310       DllMain                    000000018011f310 f i LIBCMT:dll_dllmain_stub.obj
 0001:0011e310       _get_startup_argv_mode     000000018011f310 f i LIBCMT:argv_mode.obj
 0001:0011e320       ?getVerticesForModification@BV4TriangleMesh@Gu@physx@@UEAAPEAV?$PxVec3T@M@3@XZ 000000018011f320 f   GuTriangleMeshBV4.obj
 0001:0011e320       ?getVerticesForModification@RTreeTriangleMesh@Gu@physx@@UEAAPEAV?$PxVec3T@M@3@XZ 000000018011f320 f   GuTriangleMeshRTree.obj
 0001:0011e330       ?refitBVH@BV4TriangleMesh@Gu@physx@@UEAA?AVPxBounds3@3@XZ 000000018011f330 f   GuTriangleMeshBV4.obj
 0001:0011e4a0       PxGetTriangleMeshInternalData 000000018011f4a0 f   GuTriangleMeshBV4.obj
 0001:0011e4c0       ??0RTreeTriangleMesh@Gu@physx@@QEAA@PEAVMeshFactory@12@AEAVTriangleMeshData@12@@Z 000000018011f4c0 f   GuTriangleMeshRTree.obj
 0001:0011e630       ??_E?$RefitCallback@G@physx@@UEAAPEAXI@Z 000000018011f630 f i GuTriangleMeshRTree.obj
 0001:0011e630       ??_E?$RefitCallback@I@physx@@UEAAPEAXI@Z 000000018011f630 f i GuTriangleMeshRTree.obj
 0001:0011e630       ??_G?$RefitCallback@G@physx@@UEAAPEAXI@Z 000000018011f630 f i GuTriangleMeshRTree.obj
 0001:0011e630       ??_G?$RefitCallback@I@physx@@UEAAPEAXI@Z 000000018011f630 f i GuTriangleMeshRTree.obj
 0001:0011e660       ??_ERTreeTriangleMesh@Gu@physx@@UEAAPEAXI@Z 000000018011f660 f i GuTriangleMeshRTree.obj
 0001:0011e660       ??_GRTreeTriangleMesh@Gu@physx@@UEAAPEAXI@Z 000000018011f660 f i GuTriangleMeshRTree.obj
 0001:0011e710       ?createObject@RTreeTriangleMesh@Gu@physx@@SAPEAVTriangleMesh@23@AEAPEAEAEAVPxDeserializationContext@3@@Z 000000018011f710 f   GuTriangleMeshRTree.obj
 0001:0011e790       ?exportExtraData@RTreeTriangleMesh@Gu@physx@@UEAAXAEAVPxSerializationContext@3@@Z 000000018011f790 f   GuTriangleMeshRTree.obj
 0001:0011e7d0       ?getConcreteTypeName@RTreeTriangleMesh@Gu@physx@@UEBAPEBDXZ 000000018011f7d0 f i GuTriangleMeshRTree.obj
 0001:0011e7e0       ?recomputeBounds@?$RefitCallback@G@physx@@UEAAXIAEAT__m128@@0@Z 000000018011f7e0 f i GuTriangleMeshRTree.obj
 0001:0011eb10       ?recomputeBounds@?$RefitCallback@I@physx@@UEAAXIAEAT__m128@@0@Z 000000018011fb10 f i GuTriangleMeshRTree.obj
 0001:0011ee30       ?refitBVH@RTreeTriangleMesh@Gu@physx@@UEAA?AVPxBounds3@3@XZ 000000018011fe30 f   GuTriangleMeshRTree.obj
 0001:0011ef50       ??0BV32Tree@Gu@physx@@QEAA@W4PxEMPTY@2@@Z 000000018011ff50 f   GuBV32.obj
 0001:0011ef70       ??0BV32Tree@Gu@physx@@QEAA@XZ 000000018011ff70 f   GuBV32.obj
 0001:0011efa0       ??1BV32Tree@Gu@physx@@QEAA@XZ 000000018011ffa0 f   GuBV32.obj
 0001:0011efb0       ?createSOAformatNode@BV32Tree@Gu@physx@@QEAAXAEAUBV32DataPacked@23@AEBUBV32Data@23@IAEAI2@Z 000000018011ffb0 f   GuBV32.obj
 0001:0011f410       ?exportExtraData@BV32Tree@Gu@physx@@QEAAXAEAVPxSerializationContext@3@@Z 0000000180120410 f   GuBV32.obj
 0001:0011f450       ?importExtraData@BV32Tree@Gu@physx@@QEAAXAEAVPxDeserializationContext@3@@Z 0000000180120450 f   GuBV32.obj
 0001:0011f480       ?load@BV32Tree@Gu@physx@@QEAA_NAEAVPxInputStream@3@_N@Z 0000000180120480 f   GuBV32.obj
 0001:0011f7d0       ?release@BV32Tree@Gu@physx@@QEAAXXZ 00000001801207d0 f   GuBV32.obj
 0001:0011f890       ??0BV32Node@@QEAA@XZ       0000000180120890 f i GuBV32Build.obj
 0001:0011fd10       ?BuildBV32Ex@Gu@physx@@YA_NAEAVBV32Tree@12@AEAVSourceMeshBase@12@MI@Z 0000000180120d10 f   GuBV32Build.obj
 0001:00120d00       ??0BVTetrahedronMesh@Gu@physx@@QEAA@AEAVTetrahedronMeshData@12@AEAVSoftBodyCollisionData@12@PEAVMeshFactory@12@@Z 0000000180121d00 f   GuTetrahedronMesh.obj
 0001:00120f60       ??0SoftBodyMesh@Gu@physx@@QEAA@PEAVMeshFactory@12@AEAVSoftBodyMeshData@12@@Z 0000000180121f60 f   GuTetrahedronMesh.obj
 0001:00121300       ??0TetrahedronMesh@Gu@physx@@QEAA@PEAVMeshFactory@12@AEAVTetrahedronMeshData@12@@Z 0000000180122300 f   GuTetrahedronMesh.obj
 0001:001213f0       ??1SoftBodyAuxData@Gu@physx@@UEAA@XZ 00000001801223f0 f   GuTetrahedronMesh.obj
 0001:00121670       ??1TetrahedronMesh@Gu@physx@@UEAA@XZ 0000000180122670 f   GuTetrahedronMesh.obj
 0001:00121710       ??_EBVTetrahedronMesh@Gu@physx@@UEAAPEAXI@Z 0000000180122710 f i GuTetrahedronMesh.obj
 0001:00121710       ??_GBVTetrahedronMesh@Gu@physx@@UEAAPEAXI@Z 0000000180122710 f i GuTetrahedronMesh.obj
 0001:00121890       ??_ESoftBodyAuxData@Gu@physx@@UEAAPEAXI@Z 0000000180122890 f i GuTetrahedronMesh.obj
 0001:00121890       ??_GSoftBodyAuxData@Gu@physx@@UEAAPEAXI@Z 0000000180122890 f i GuTetrahedronMesh.obj
 0001:00121900       ??_ESoftBodyMesh@Gu@physx@@UEAAPEAXI@Z 0000000180122900 f i GuTetrahedronMesh.obj
 0001:00121900       ??_GSoftBodyMesh@Gu@physx@@UEAAPEAXI@Z 0000000180122900 f i GuTetrahedronMesh.obj
 0001:001219d0       ??_ETetrahedronMesh@Gu@physx@@UEAAPEAXI@Z 00000001801229d0 f i GuTetrahedronMesh.obj
 0001:001219d0       ??_GTetrahedronMesh@Gu@physx@@UEAAPEAXI@Z 00000001801229d0 f i GuTetrahedronMesh.obj
 0001:00121a40       ?exportExtraData@SoftBodyMesh@Gu@physx@@UEAAXAEAVPxSerializationContext@3@@Z 0000000180122a40 f   GuTetrahedronMesh.obj
 0001:00121b30       ?getConcreteTypeName@SoftBodyAuxData@Gu@physx@@UEBAPEBDXZ 0000000180122b30 f i GuTetrahedronMesh.obj
 0001:00121b40       ?getConcreteTypeName@SoftBodyMesh@Gu@physx@@UEBAPEBDXZ 0000000180122b40 f i GuTetrahedronMesh.obj
 0001:00121b50       ?getConcreteTypeName@TetrahedronMesh@Gu@physx@@UEBAPEBDXZ 0000000180122b50 f i GuTetrahedronMesh.obj
 0001:00121b60       ?getLocalBounds@TetrahedronMesh@Gu@physx@@UEBA?AVPxBounds3@3@XZ 0000000180122b60 f i GuTetrahedronMesh.obj
 0001:00121bf0       ?getNbTetrahedrons@TetrahedronMesh@Gu@physx@@UEBAIXZ 0000000180122bf0 f i GuTetrahedronMesh.obj
 0001:00121c00       ?getBounds@BVH@Gu@physx@@UEBAPEBVPxBounds3@3@XZ 0000000180122c00 f i GuBVH.obj
 0001:00121c00       ?getTetrahedraRemap@BVTetrahedronMesh@Gu@physx@@UEBAPEBIXZ 0000000180122c00 f i GuTetrahedronMesh.obj
 0001:00121c10       ?getTetrahedronMeshFlags@TetrahedronMesh@Gu@physx@@UEBA?AV?$PxFlags@W4Enum@PxTetrahedronMeshFlag@physx@@E@3@XZ 0000000180122c10 f i GuTetrahedronMesh.obj
 0001:00121c20       ?getTetrahedrons@TetrahedronMesh@Gu@physx@@UEBAPEBXXZ 0000000180122c20 f i GuTetrahedronMesh.obj
 0001:00121c30       ?isKindOf@PxSoftBodyAuxData@physx@@MEBA_NPEBD@Z 0000000180122c30 f i GuTetrahedronMesh.obj
 0001:00121cc0       ?isKindOf@PxSoftBodyMesh@physx@@MEBA_NPEBD@Z 0000000180122cc0 f i GuTetrahedronMesh.obj
 0001:00121d50       ?isKindOf@PxTetrahedronMesh@physx@@MEBA_NPEBD@Z 0000000180122d50 f i GuTetrahedronMesh.obj
 0001:00121de0       ?onRefCountZero@SoftBodyAuxData@Gu@physx@@UEAAXXZ 0000000180122de0 f i GuTetrahedronMesh.obj
 0001:00121de0       ?release@SimulationTetrahedronMeshData@Gu@physx@@UEAAXXZ 0000000180122de0 f i GuCookingTetrahedronMesh.obj
 0001:00121e00       ?onRefCountZero@SoftBodyMesh@Gu@physx@@UEAAXXZ 0000000180122e00 f   GuTetrahedronMesh.obj
 0001:00121ea0       ?onRefCountZero@TetrahedronMesh@Gu@physx@@UEAAXXZ 0000000180122ea0 f   GuTetrahedronMesh.obj
 0001:00121f40       ?addAxisToSimMeshBarycentric@Gu@physx@@YA?AV?$PxVec4T@M@2@AEBVPxTetrahedronMesh@2@IAEBV32@AEBV?$PxVec3T@M@2@@Z 0000000180122f40 f   GuTetrahedronMeshUtils.obj
 0001:00122200       ?closestPtPointTetrahedron@Gu@physx@@YA?AV?$PxVec3T@M@2@AEBV32@0000@Z 0000000180123200 f i GuTetrahedronMeshUtils.obj
 0001:00123340       ?computeBarycentric@physx@@YAXAEBV?$PxVec3T@M@1@0000AEAV?$PxVec4T@M@1@@Z 0000000180124340 f i GuTetrahedronMeshUtils.obj
 0001:001235f0       ?convertSoftbodyCollisionToSimMeshTets@Gu@physx@@YAXAEBVPxTetrahedronMesh@2@AEBVSoftBodyAuxData@12@AEBVBVTetrahedronMesh@12@IAEBV?$PxVec4T@M@2@AEAIAEAV62@@Z 00000001801245f0 f   GuTetrahedronMeshUtils.obj
 0001:001261d0       ?pcmContactBoxBox@Gu@physx@@YA_NAEBVPxGeometry@2@0AEBUPxTransformPadded@2@1AEBUNarrowPhaseParams@12@AEAUCache@12@AEAVPxContactBuffer@2@PEAVPxRenderOutput@2@@Z 00000001801271d0 f   GuPCMContactBoxBox.obj
 0001:00127070       ??$gjkPenetration@U?$RelativeConvex@VBoxV@Gu@physx@@@Gu@physx@@U?$LocalConvex@VConvexHullNoScaleV@Gu@physx@@@23@@Gu@physx@@YA?AW4GjkStatus@01@AEBU?$RelativeConvex@VBoxV@Gu@physx@@@01@AEBU?$LocalConvex@VConvexHullNoScaleV@Gu@physx@@@01@AEBT__m128@@2_NPEIAE4AEAEAEAUGjkOutput@01@@Z 0000000180128070 f i GuPCMContactBoxConvex.obj
 0001:001270e0       ??$gjkPenetration@U?$RelativeConvex@VBoxV@Gu@physx@@@Gu@physx@@U?$LocalConvex@VConvexHullNoScaleV@Gu@physx@@@23@@Gu@physx@@YA?AW4GjkStatus@01@AEBU?$RelativeConvex@VBoxV@Gu@physx@@@01@AEBU?$LocalConvex@VConvexHullNoScaleV@Gu@physx@@@01@AEBT__m128@@2_NPEIAE4PEIAT5@5AEAEAEAUGjkOutput@01@@Z 00000001801280e0 f i GuPCMContactBoxConvex.obj
 0001:00128cc0       ?pcmContactBoxConvex@Gu@physx@@YA_NAEBVPxGeometry@2@0AEBUPxTransformPadded@2@1AEBUNarrowPhaseParams@12@AEAUCache@12@AEAVPxContactBuffer@2@PEAVPxRenderOutput@2@@Z 0000000180129cc0 f   GuPCMContactBoxConvex.obj
 0001:00129ac0       ?support@?$LocalConvex@VConvexHullNoScaleV@Gu@physx@@@Gu@physx@@UEBA?AT__m128@@AEBT4@@Z 000000018012aac0 f i GuPCMContactBoxConvex.obj
 0001:00129b10       ?support@?$LocalConvex@VConvexHullNoScaleV@Gu@physx@@@Gu@physx@@UEBA?AT__m128@@AEBT4@AEAH@Z 000000018012ab10 f i GuPCMContactBoxConvex.obj
 0001:00129b70       ?supportPoint@?$LocalConvex@VConvexHullNoScaleV@Gu@physx@@@Gu@physx@@UEBA?AT__m128@@H@Z 000000018012ab70 f i GuPCMContactBoxConvex.obj
 0001:00129ba0       ?pcmContactCapsuleBox@Gu@physx@@YA_NAEBVPxGeometry@2@0AEBUPxTransformPadded@2@1AEBUNarrowPhaseParams@12@AEAUCache@12@AEAVPxContactBuffer@2@PEAVPxRenderOutput@2@@Z 000000018012aba0 f   GuPCMContactCapsuleBox.obj
 0001:0012ab00       ?pcmContactCapsuleCapsule@Gu@physx@@YA_NAEBVPxGeometry@2@0AEBUPxTransformPadded@2@1AEBUNarrowPhaseParams@12@AEAUCache@12@AEAVPxContactBuffer@2@PEAVPxRenderOutput@2@@Z 000000018012bb00 f   GuPCMContactCapsuleCapsule.obj
 0001:0012b2a0       ??$gjkPenetration@U?$LocalConvex@VCapsuleV@Gu@physx@@@Gu@physx@@U?$LocalConvex@VConvexHullNoScaleV@Gu@physx@@@23@@Gu@physx@@YA?AW4GjkStatus@01@AEBU?$LocalConvex@VCapsuleV@Gu@physx@@@01@AEBU?$LocalConvex@VConvexHullNoScaleV@Gu@physx@@@01@AEBT__m128@@2_NPEIAE4AEAEAEAUGjkOutput@01@@Z 000000018012c2a0 f i GuPCMContactCapsuleConvex.obj
 0001:0012b310       ??$gjkPenetration@U?$LocalConvex@VCapsuleV@Gu@physx@@@Gu@physx@@U?$LocalConvex@VConvexHullNoScaleV@Gu@physx@@@23@@Gu@physx@@YA?AW4GjkStatus@01@AEBU?$LocalConvex@VCapsuleV@Gu@physx@@@01@AEBU?$LocalConvex@VConvexHullNoScaleV@Gu@physx@@@01@AEBT__m128@@2_NPEIAE4PEIAT5@5AEAEAEAUGjkOutput@01@@Z 000000018012c310 f i GuPCMContactCapsuleConvex.obj
 0001:0012c9d0       ?pcmContactCapsuleConvex@Gu@physx@@YA_NAEBVPxGeometry@2@0AEBUPxTransformPadded@2@1AEBUNarrowPhaseParams@12@AEAUCache@12@AEAVPxContactBuffer@2@PEAVPxRenderOutput@2@@Z 000000018012d9d0 f   GuPCMContactCapsuleConvex.obj
 0001:0012dbc0       ??_EPCMCapsuleVsHeightfieldContactGenerationCallback@@UEAAPEAXI@Z 000000018012ebc0 f i GuPCMContactCapsuleHeightField.obj
 0001:0012dbc0       ??_GPCMCapsuleVsHeightfieldContactGenerationCallback@@UEAAPEAXI@Z 000000018012ebc0 f i GuPCMContactCapsuleHeightField.obj
 0001:0012dbf0       ?pcmContactCapsuleHeightField@Gu@physx@@YA_NAEBVPxGeometry@2@0AEBUPxTransformPadded@2@1AEBUNarrowPhaseParams@12@AEAUCache@12@AEAVPxContactBuffer@2@PEAVPxRenderOutput@2@@Z 000000018012ebf0 f   GuPCMContactCapsuleHeightField.obj
 0001:0012eb00       ?reportTouchedTris@?$PCMHeightfieldContactGenerationCallback@UPCMCapsuleVsHeightfieldContactGenerationCallback@@@Gu@physx@@UEAA_NIPEBI@Z 000000018012fb00 f i GuPCMContactCapsuleHeightField.obj
 0001:0012f170       ?generateContacts@PCMCapsuleVsMeshContactGeneration@Gu@physx@@SAXAEBT__m128@@0000I000PEAVMeshPersistentContact@23@AEAI@Z 0000000180130170 f   GuPCMContactCapsuleMesh.obj
 0001:0012f590       ?generateEE@PCMCapsuleVsMeshContactGeneration@Gu@physx@@QEAAXAEBT__m128@@000I00PEAVMeshPersistentContact@23@AEAI@Z 0000000180130590 f   GuPCMContactCapsuleMesh.obj
 0001:0012f800       ?generateEEMTD@PCMCapsuleVsMeshContactGeneration@Gu@physx@@SAXAEBT__m128@@000I00PEAVMeshPersistentContact@23@AEAI@Z 0000000180130800 f   GuPCMContactCapsuleMesh.obj
 0001:0012fa30       ?pcmContactCapsuleMesh@Gu@physx@@YA_NAEBVPxGeometry@2@0AEBUPxTransformPadded@2@1AEBUNarrowPhaseParams@12@AEAUCache@12@AEAVPxContactBuffer@2@PEAVPxRenderOutput@2@@Z 0000000180130a30 f   GuPCMContactCapsuleMesh.obj
 0001:001312a0       ?pcmDistanceSegmentTriangleSquaredExported@@YA?AT__m128@@AEBT1@0000AEAT1@11@Z 00000001801322a0 f   GuPCMContactCapsuleMesh.obj
 0001:00131700       ?processTriangle@PCMCapsuleVsMeshContactGeneration@Gu@physx@@QEAA_NPEBV?$PxVec3T@M@3@IEPEBI@Z 0000000180132700 f   GuPCMContactCapsuleMesh.obj
 0001:00132300       ?processTriangle@PCMCapsuleVsMeshContactGeneration@Gu@physx@@SA_NAEBVTriangleV@23@IAEBVCapsuleV@23@AEBT__m128@@EPEAVMeshPersistentContact@23@AEAI@Z 0000000180133300 f   GuPCMContactCapsuleMesh.obj
 0001:00132630       ?addContactsToPatch@PCMConvexVsMeshContactGeneration@Gu@physx@@QEAAXAEBT__m128@@I@Z 0000000180133630 f   GuPCMContactConvexCommon.obj
 0001:00132f70       ?doSupport@?$SupportLocalImpl@VTriangleV@Gu@physx@@@Gu@physx@@UEBA?AT__m128@@AEBT4@@Z 0000000180133f70 f i GuPCMContactConvexCommon.obj
 0001:00133000       ?doSupport@?$SupportLocalImpl@VTriangleV@Gu@physx@@@Gu@physx@@UEBAXAEBT__m128@@AEAT4@1@Z 0000000180134000 f i GuPCMContactConvexCommon.obj
 0001:00133070       ?generateLastContacts@PCMConvexVsMeshContactGeneration@Gu@physx@@QEAAXXZ 0000000180134070 f   GuPCMContactConvexCommon.obj
 0001:001335d0       ?populateVerts@?$SupportLocalImpl@VTriangleV@Gu@physx@@@Gu@physx@@UEBAXPEBEIPEBV?$PxVec3T@M@3@PEAT__m128@@@Z 00000001801345d0 f i GuPCMContactConvexCommon.obj
 0001:00133710       ?processTriangle@PCMConvexVsMeshContactGeneration@Gu@physx@@QEAA_NPEBV?$PxVec3T@M@3@IEPEBI@Z 0000000180134710 f   GuPCMContactConvexCommon.obj
 0001:00133c60       ?processTriangle@PCMConvexVsMeshContactGeneration@Gu@physx@@SA_NAEBUPolygonalData@23@PEBVSupportLocal@23@PEBV?$PxVec3T@M@3@IEAEBT__m128@@_NAEBVPxTransformV@aos@3@AEBVPxMatTransformV@93@PEAVMeshPersistentContact@23@AEAI@Z 0000000180134c60 f   GuPCMContactConvexCommon.obj
 0001:00133ee0       ??$gjkPenetration@U?$RelativeConvex@VConvexHullNoScaleV@Gu@physx@@@Gu@physx@@U?$LocalConvex@VConvexHullNoScaleV@Gu@physx@@@23@@Gu@physx@@YA?AW4GjkStatus@01@AEBU?$RelativeConvex@VConvexHullNoScaleV@Gu@physx@@@01@AEBU?$LocalConvex@VConvexHullNoScaleV@Gu@physx@@@01@AEBT__m128@@2_NPEIAE4AEAEAEAUGjkOutput@01@@Z 0000000180134ee0 f i GuPCMContactConvexConvex.obj
 0001:00133f50       ??$gjkPenetration@U?$RelativeConvex@VConvexHullNoScaleV@Gu@physx@@@Gu@physx@@U?$LocalConvex@VConvexHullNoScaleV@Gu@physx@@@23@@Gu@physx@@YA?AW4GjkStatus@01@AEBU?$RelativeConvex@VConvexHullNoScaleV@Gu@physx@@@01@AEBU?$LocalConvex@VConvexHullNoScaleV@Gu@physx@@@01@AEBT__m128@@2_NPEIAE4PEIAT5@5AEAEAEAUGjkOutput@01@@Z 0000000180134f50 f i GuPCMContactConvexConvex.obj
 0001:00135460       ??$gjkPenetration@U?$RelativeConvex@VConvexHullNoScaleV@Gu@physx@@@Gu@physx@@U?$LocalConvex@VConvexHullV@Gu@physx@@@23@@Gu@physx@@YA?AW4GjkStatus@01@AEBU?$RelativeConvex@VConvexHullNoScaleV@Gu@physx@@@01@AEBU?$LocalConvex@VConvexHullV@Gu@physx@@@01@AEBT__m128@@2_NPEIAE4AEAEAEAUGjkOutput@01@@Z 0000000180136460 f i GuPCMContactConvexConvex.obj
 0001:001354d0       ??$gjkPenetration@U?$RelativeConvex@VConvexHullNoScaleV@Gu@physx@@@Gu@physx@@U?$LocalConvex@VConvexHullV@Gu@physx@@@23@@Gu@physx@@YA?AW4GjkStatus@01@AEBU?$RelativeConvex@VConvexHullNoScaleV@Gu@physx@@@01@AEBU?$LocalConvex@VConvexHullV@Gu@physx@@@01@AEBT__m128@@2_NPEIAE4PEIAT5@5AEAEAEAUGjkOutput@01@@Z 00000001801364d0 f i GuPCMContactConvexConvex.obj
 0001:00136a70       ??$gjkPenetration@U?$RelativeConvex@VConvexHullV@Gu@physx@@@Gu@physx@@U?$LocalConvex@VConvexHullNoScaleV@Gu@physx@@@23@@Gu@physx@@YA?AW4GjkStatus@01@AEBU?$RelativeConvex@VConvexHullV@Gu@physx@@@01@AEBU?$LocalConvex@VConvexHullNoScaleV@Gu@physx@@@01@AEBT__m128@@2_NPEIAE4AEAEAEAUGjkOutput@01@@Z 0000000180137a70 f i GuPCMContactConvexConvex.obj
 0001:00136ae0       ??$gjkPenetration@U?$RelativeConvex@VConvexHullV@Gu@physx@@@Gu@physx@@U?$LocalConvex@VConvexHullNoScaleV@Gu@physx@@@23@@Gu@physx@@YA?AW4GjkStatus@01@AEBU?$RelativeConvex@VConvexHullV@Gu@physx@@@01@AEBU?$LocalConvex@VConvexHullNoScaleV@Gu@physx@@@01@AEBT__m128@@2_NPEIAE4PEIAT5@5AEAEAEAUGjkOutput@01@@Z 0000000180137ae0 f i GuPCMContactConvexConvex.obj
 0001:00138ad0       ?pcmContactConvexConvex@Gu@physx@@YA_NAEBVPxGeometry@2@0AEBUPxTransformPadded@2@1AEBUNarrowPhaseParams@12@AEAUCache@12@AEAVPxContactBuffer@2@PEAVPxRenderOutput@2@@Z 0000000180139ad0 f   GuPCMContactConvexConvex.obj
 0001:00139be0       ?support@?$RelativeConvex@VConvexHullNoScaleV@Gu@physx@@@Gu@physx@@UEBA?AT__m128@@AEBT4@@Z 000000018013abe0 f i GuPCMContactConvexConvex.obj
 0001:00139c90       ?support@?$RelativeConvex@VConvexHullNoScaleV@Gu@physx@@@Gu@physx@@UEBA?AT__m128@@AEBT4@AEAH@Z 000000018013ac90 f i GuPCMContactConvexConvex.obj
 0001:00139d50       ?supportPoint@?$RelativeConvex@VConvexHullNoScaleV@Gu@physx@@@Gu@physx@@UEBA?AT__m128@@H@Z 000000018013ad50 f i GuPCMContactConvexConvex.obj
 0001:00139de0       ?PCMContactConvexHeightfield@Gu@physx@@YA_NAEBUPolygonalData@12@PEBVSupportLocal@12@AEBT__m128@@AEBVPxBounds3@2@AEBVPxHeightFieldGeometry@2@AEBV?$PxTransformT@M@2@5MAEAVPxContactBuffer@2@AEBVFastVertex2ShapeScaling@Cm@2@_NAEAVMultiplePersistentContactManifold@12@PEAVPxRenderOutput@2@@Z 000000018013ade0 f   GuPCMContactConvexHeightField.obj
 0001:0013ac70       ?pcmContactBoxHeightField@Gu@physx@@YA_NAEBVPxGeometry@2@0AEBUPxTransformPadded@2@1AEBUNarrowPhaseParams@12@AEAUCache@12@AEAVPxContactBuffer@2@PEAVPxRenderOutput@2@@Z 000000018013bc70 f   GuPCMContactConvexHeightField.obj
 0001:0013af10       ?pcmContactConvexHeightField@Gu@physx@@YA_NAEBVPxGeometry@2@0AEBUPxTransformPadded@2@1AEBUNarrowPhaseParams@12@AEAUCache@12@AEAVPxContactBuffer@2@PEAVPxRenderOutput@2@@Z 000000018013bf10 f   GuPCMContactConvexHeightField.obj
 0001:0013bc60       ?PCMContactConvexMesh@Gu@physx@@YA_NAEBUPolygonalData@12@PEBVSupportLocal@12@AEBT__m128@@AEBVPxBounds3@2@AEBVPxTriangleMeshGeometry@2@AEBV?$PxTransformT@M@2@5MAEAVPxContactBuffer@2@AEBVFastVertex2ShapeScaling@Cm@2@7_N8AEAVMultiplePersistentContactManifold@12@PEAVPxRenderOutput@2@@Z 000000018013cc60 f   GuPCMContactConvexMesh.obj
 0001:0013c780       ?pcmContactBoxMesh@Gu@physx@@YA_NAEBVPxGeometry@2@0AEBUPxTransformPadded@2@1AEBUNarrowPhaseParams@12@AEAUCache@12@AEAVPxContactBuffer@2@PEAVPxRenderOutput@2@@Z 000000018013d780 f   GuPCMContactConvexMesh.obj
 0001:0013cac0       ?pcmContactConvexMesh@Gu@physx@@YA_NAEBVPxGeometry@2@0AEBUPxTransformPadded@2@1AEBUNarrowPhaseParams@12@AEAUCache@12@AEAVPxContactBuffer@2@PEAVPxRenderOutput@2@@Z 000000018013dac0 f   GuPCMContactConvexMesh.obj
 0001:0013d6d0       ?addGJKEPAContacts@Gu@physx@@YA_NPEBUGjkConvex@12@0AEBVPxMatTransformV@aos@2@W4GjkStatus@12@PEAVPersistentContact@12@T__m128@@4AEAUGjkOutput@12@AEAVPersistentContactManifold@12@@Z 000000018013e6d0 f   GuPCMContactGenBoxConvex.obj
 0001:0013db80       ?computeMTD@Gu@physx@@YA_NAEBUPolygonalData@12@0PEBVSupportLocal@12@1AEAT__m128@@2@Z 000000018013eb80 f   GuPCMContactGenBoxConvex.obj
 0001:0013e1b0       ?generateFullContactManifold@Gu@physx@@YA_NAEBUPolygonalData@12@0PEBVSupportLocal@12@1PEAVPersistentContact@12@AEAIAEBT__m128@@444MM_NPEAVPxRenderOutput@2@M@Z 000000018013f1b0 f   GuPCMContactGenBoxConvex.obj
 0001:00140120       ?computeMTD@Gu@physx@@YA_NAEBVCapsuleV@12@AEBUPolygonalData@12@PEBVSupportLocal@12@AEAT__m128@@3@Z 0000000180141120 f   GuPCMContactGenSphereCapsule.obj
 0001:00140210       ?generateCapsuleBoxFullContactManifold@Gu@physx@@YA_NAEBVCapsuleV@12@AEBUPolygonalData@12@PEBVSupportLocal@12@AEBVPxMatTransformV@aos@2@PEAVPersistentContact@12@AEAIAEBT__m128@@AEAT9@6M_NMPEAVPxRenderOutput@2@@Z 0000000180141210 f   GuPCMContactGenSphereCapsule.obj
 0001:001403b0       ?generateFullContactManifold@Gu@physx@@YA_NAEBVCapsuleV@12@AEBUPolygonalData@12@PEBVSupportLocal@12@AEBVPxMatTransformV@aos@2@PEAVPersistentContact@12@AEAIAEBT__m128@@AEAT9@6M_NM@Z 00000001801413b0 f   GuPCMContactGenSphereCapsule.obj
 0001:001405a0       ?generateSphereFullContactManifold@Gu@physx@@YA_NAEBVCapsuleV@12@AEBUPolygonalData@12@PEBVSupportLocal@12@PEAVPersistentContact@12@AEAIAEBT__m128@@AEAT7@_N@Z 00000001801415a0 f   GuPCMContactGenSphereCapsule.obj
 0001:00141aa0       ?pcmContactPlaneBox@Gu@physx@@YA_NAEBVPxGeometry@2@0AEBUPxTransformPadded@2@1AEBUNarrowPhaseParams@12@AEAUCache@12@AEAVPxContactBuffer@2@PEAVPxRenderOutput@2@@Z 0000000180142aa0 f   GuPCMContactPlaneBox.obj
 0001:00142660       ?pcmContactPlaneCapsule@Gu@physx@@YA_NAEBVPxGeometry@2@0AEBUPxTransformPadded@2@1AEBUNarrowPhaseParams@12@AEAUCache@12@AEAVPxContactBuffer@2@PEAVPxRenderOutput@2@@Z 0000000180143660 f   GuPCMContactPlaneCapsule.obj
 0001:00142de0       ?pcmContactPlaneConvex@Gu@physx@@YA_NAEBVPxGeometry@2@0AEBUPxTransformPadded@2@1AEBUNarrowPhaseParams@12@AEAUCache@12@AEAVPxContactBuffer@2@PEAVPxRenderOutput@2@@Z 0000000180143de0 f   GuPCMContactPlaneConvex.obj
 0001:00143a60       ?pcmContactSphereBox@Gu@physx@@YA_NAEBVPxGeometry@2@0AEBUPxTransformPadded@2@1AEBUNarrowPhaseParams@12@AEAUCache@12@AEAVPxContactBuffer@2@PEAVPxRenderOutput@2@@Z 0000000180144a60 f   GuPCMContactSphereBox.obj
 0001:00143ec0       ?pcmContactSphereCapsule@Gu@physx@@YA_NAEBVPxGeometry@2@0AEBUPxTransformPadded@2@1AEBUNarrowPhaseParams@12@AEAUCache@12@AEAVPxContactBuffer@2@PEAVPxRenderOutput@2@@Z 0000000180144ec0 f   GuPCMContactSphereCapsule.obj
 0001:00144330       ?pcmContactSphereConvex@Gu@physx@@YA_NAEBVPxGeometry@2@0AEBUPxTransformPadded@2@1AEBUNarrowPhaseParams@12@AEAUCache@12@AEAVPxContactBuffer@2@PEAVPxRenderOutput@2@@Z 0000000180145330 f   GuPCMContactSphereConvex.obj
 0001:00145000       ??1?$PxArray@USortedTriangle@Gu@physx@@V?$PxInlineAllocator@$0IAA@V?$PxReflectionAllocator@USortedTriangle@Gu@physx@@@physx@@@3@@physx@@QEAA@XZ 0000000180146000 f i GuPCMContactSphereHeightField.obj
 0001:001450c0       ?pcmContactSphereHeightField@Gu@physx@@YA_NAEBVPxGeometry@2@0AEBUPxTransformPadded@2@1AEBUNarrowPhaseParams@12@AEAUCache@12@AEAVPxContactBuffer@2@PEAVPxRenderOutput@2@@Z 00000001801460c0 f   GuPCMContactSphereHeightField.obj
 0001:00146160       ??$PxSort@USortedTriangle@Gu@physx@@U?$PxLess@USortedTriangle@Gu@physx@@@3@V?$PxReflectionAllocator@USortedTriangle@Gu@physx@@@3@@physx@@YAXPEAUSortedTriangle@Gu@0@IAEBU?$PxLess@USortedTriangle@Gu@physx@@@0@AEBV?$PxReflectionAllocator@USortedTriangle@Gu@physx@@@0@I@Z 0000000180147160 f i GuPCMContactSphereMesh.obj
 0001:00146680       ??$processTriangleCache@$0BA@VPCMSphereVsMeshContactGeneration@Gu@physx@@@PCMMeshContactGeneration@Gu@physx@@QEAA_NAEAU?$TriangleCache@$0BA@@12@@Z 0000000180147680 f i GuPCMContactSphereMesh.obj
 0001:00146b50       ?addToPatch@PCMSphereVsMeshContactGeneration@Gu@physx@@QEAAXAEBT__m128@@0T4@I@Z 0000000180147b50 f   GuPCMContactSphereMesh.obj
 0001:00147210       ?allocate@?$PxArray@IV?$PxInlineAllocator@$0PAA@V?$PxReflectionAllocator@I@physx@@@physx@@@physx@@IEAAPEAII@Z 0000000180148210 f i GuPCMContactSphereMesh.obj
 0001:001472d0       ?allocate@?$PxArray@USortedTriangle@Gu@physx@@V?$PxInlineAllocator@$0IAA@V?$PxReflectionAllocator@USortedTriangle@Gu@physx@@@physx@@@3@@physx@@IEAAPEAUSortedTriangle@Gu@2@I@Z 00000001801482d0 f i GuPCMContactSphereMesh.obj
 0001:00147390       ?generateLastContacts@PCMSphereVsMeshContactGeneration@Gu@physx@@QEAAXXZ 0000000180148390 f   GuPCMContactSphereMesh.obj
 0001:001479c0       ?growAndPushBack@?$PxArray@USortedTriangle@Gu@physx@@V?$PxInlineAllocator@$0IAA@V?$PxReflectionAllocator@USortedTriangle@Gu@physx@@@physx@@@3@@physx@@IEAAAEAUSortedTriangle@Gu@2@AEBU342@@Z 00000001801489c0 f i GuPCMContactSphereMesh.obj
 0001:00147ad0       ?pcmContactSphereMesh@Gu@physx@@YA_NAEBVPxGeometry@2@0AEBUPxTransformPadded@2@1AEBUNarrowPhaseParams@12@AEAUCache@12@AEAVPxContactBuffer@2@PEAVPxRenderOutput@2@@Z 0000000180148ad0 f   GuPCMContactSphereMesh.obj
 0001:00149070       ?processTriangle@PCMSphereVsMeshContactGeneration@Gu@physx@@QEAA_NPEBV?$PxVec3T@M@3@IEPEBI@Z 000000018014a070 f   GuPCMContactSphereMesh.obj
 0001:00149460       ?recreate@?$PxArray@IV?$PxInlineAllocator@$0PAA@V?$PxReflectionAllocator@I@physx@@@physx@@@physx@@IEAAXI@Z 000000018014a460 f i GuPCMContactSphereMesh.obj
 0001:00149520       ?pcmContactSpherePlane@Gu@physx@@YA_NAEBVPxGeometry@2@0AEBUPxTransformPadded@2@1AEBUNarrowPhaseParams@12@AEAUCache@12@AEAVPxContactBuffer@2@PEAVPxRenderOutput@2@@Z 000000018014a520 f   GuPCMContactSpherePlane.obj
 0001:001496a0       ?pcmContactSphereSphere@Gu@physx@@YA_NAEBVPxGeometry@2@0AEBUPxTransformPadded@2@1AEBUNarrowPhaseParams@12@AEAUCache@12@AEAVPxContactBuffer@2@PEAVPxRenderOutput@2@@Z 000000018014a6a0 f   GuPCMContactSphereSphere.obj
 0001:00149f70       ?pcmContactGeometryCustomGeometry@Gu@physx@@YA_NAEBVPxGeometry@2@0AEBUPxTransformPadded@2@1AEBUNarrowPhaseParams@12@AEAUCache@12@AEAVPxContactBuffer@2@PEAVPxRenderOutput@2@@Z 000000018014af70 f   GuPCMContactCustomGeometry.obj
 0001:0014a020       ?getPCMConvexData@Gu@physx@@YAXAEBVConvexHullV@12@_NAEAUPolygonalData@12@@Z 000000018014b020 f   GuPCMShapeConvex.obj
 0001:0014a060       ?getPCMConvexData@Gu@physx@@YA_NAEBVPxConvexMeshGeometry@2@AEAVFastVertex2ShapeScaling@Cm@2@AEAVPxBounds3@2@AEAUPolygonalData@12@@Z 000000018014b060 f   GuPCMShapeConvex.obj
 0001:0014a5b0       ?getPolygonalData@PCMPolygonalBox@Gu@physx@@QEBAXPEIAUPolygonalData@23@@Z 000000018014b5b0 f   GuPCMShapeConvex.obj
 0001:0014a630       ?generatePolyDataContactManifold@PCMConvexVsMeshContactGeneration@Gu@physx@@QEAA_NAEBVTriangleV@23@IIEPEAVMeshPersistentContact@23@AEAIAEBT__m128@@AEAT6@@Z 000000018014b630 f   GuPCMTriangleContactGen.obj
 0001:0014a750       ?generateTriangleFullContactManifold@PCMConvexVsMeshContactGeneration@Gu@physx@@QEAA_NAEBVTriangleV@23@IPEBIEAEBUPolygonalData@23@PEBV?$SupportLocalImpl@VTriangleV@Gu@physx@@@23@PEBVSupportLocal@23@PEAVMeshPersistentContact@23@AEAIAEBT__m128@@AEAT9@@Z 000000018014b750 f   GuPCMTriangleContactGen.obj
 0001:0014ac80       ?generateTriangleFullContactManifold@PCMConvexVsMeshContactGeneration@Gu@physx@@SA_NAEBVTriangleV@23@IEAEBUPolygonalData@23@PEBV?$SupportLocalImpl@VTriangleV@Gu@physx@@@23@PEBVSupportLocal@23@PEAVMeshPersistentContact@23@AEAIAEBT__m128@@AEAT9@PEAVPxRenderOutput@3@@Z 000000018014bc80 f   GuPCMTriangleContactGen.obj
 0001:0014cd00       ?addBatchManifoldContacts2@PersistentContactManifold@Gu@physx@@QEAAXPEBVPersistentContact@23@I@Z 000000018014dd00 f   GuPersistentContactManifold.obj
 0001:0014cd70       ?addBatchManifoldContacts@PersistentContactManifold@Gu@physx@@QEAAXPEBVPersistentContact@23@IM@Z 000000018014dd70 f   GuPersistentContactManifold.obj
 0001:0014cdf0       ?addBatchManifoldContactsCluster@PersistentContactManifold@Gu@physx@@QEAAXPEBVPersistentContact@23@I@Z 000000018014ddf0 f   GuPersistentContactManifold.obj
 0001:0014d070       ?addManifoldContactPoints@MultiplePersistentContactManifold@Gu@physx@@QEAAXPEAVMeshPersistentContact@23@IPEAPEAUPCMContactPatch@23@IAEBT__m128@@2E@Z 000000018014e070 f   GuPersistentContactManifold.obj
 0001:0014d460       ?addManifoldContactsToContactBuffer@MultiplePersistentContactManifold@Gu@physx@@QEAA_NAEAVPxContactBuffer@3@AEBVPxTransformV@aos@3@1AEBT__m128@@@Z 000000018014e460 f   GuPersistentContactManifold.obj
 0001:0014d720       ?addManifoldContactsToContactBuffer@MultiplePersistentContactManifold@Gu@physx@@QEAA_NAEAVPxContactBuffer@3@AEBVPxTransformV@aos@3@@Z 000000018014e720 f   GuPersistentContactManifold.obj
 0001:0014d9b0       ?addManifoldContactsToContactBuffer@PersistentContactManifold@Gu@physx@@QEAAXAEAVPxContactBuffer@3@AEBT__m128@@1AEBVPxTransformV@aos@3@11@Z 000000018014e9b0 f   GuPersistentContactManifold.obj
 0001:0014db40       ?addManifoldContactsToContactBuffer@PersistentContactManifold@Gu@physx@@QEAAXAEAVPxContactBuffer@3@AEBT__m128@@AEBVPxMatTransformV@aos@3@@Z 000000018014eb40 f   GuPersistentContactManifold.obj
 0001:0014dbf0       ?addManifoldContactsToContactBuffer@PersistentContactManifold@Gu@physx@@QEAAXAEAVPxContactBuffer@3@AEBT__m128@@AEBVPxTransformV@aos@3@1@Z 000000018014ebf0 f   GuPersistentContactManifold.obj
 0001:0014dd50       ?addManifoldPoint2@PersistentContactManifold@Gu@physx@@QEAAIAEBT__m128@@000@Z 000000018014ed50 f   GuPersistentContactManifold.obj
 0001:0014de80       ?addManifoldPoint@Gu@physx@@YAXPEAVPersistentContact@12@AEAVPersistentContactManifold@12@AEAUGjkOutput@12@AEBVPxMatTransformV@aos@2@T__m128@@@Z 000000018014ee80 f   GuPersistentContactManifold.obj
 0001:0014e030       ?addManifoldPoint@PersistentContactManifold@Gu@physx@@QEAAIAEBT__m128@@000@Z 000000018014f030 f   GuPersistentContactManifold.obj
 0001:0014e470       ?drawLine@MultiplePersistentContactManifold@Gu@physx@@SAXAEAVPxRenderOutput@3@AEBT__m128@@1I@Z 000000018014f470 f   GuPersistentContactManifold.obj
 0001:0014e520       ?drawLine@MultiplePersistentContactManifold@Gu@physx@@SAXAEAVPxRenderOutput@3@V?$PxVec3T@M@3@1I@Z 000000018014f520 f   GuPersistentContactManifold.obj
 0001:0014e590       ?drawManifold@MultiplePersistentContactManifold@Gu@physx@@QEBAXAEAVPxRenderOutput@3@AEBVPxTransformV@aos@3@1@Z 000000018014f590 f   GuPersistentContactManifold.obj
 0001:0014ec20       ?drawPoint@MultiplePersistentContactManifold@Gu@physx@@SAXAEAVPxRenderOutput@3@AEBT__m128@@MI@Z 000000018014fc20 f   GuPersistentContactManifold.obj
 0001:0014ee30       ?drawPolygon@MultiplePersistentContactManifold@Gu@physx@@SAXAEAVPxRenderOutput@3@AEBVPxTransformV@aos@3@PEAT__m128@@II@Z 000000018014fe30 f   GuPersistentContactManifold.obj
 0001:0014f0b0       ?findRotationMatrixFromZAxis@Gu@physx@@YA?AUMat33V@aos@2@AEBT__m128@@@Z 00000001801500b0 f   GuPersistentContactManifold.obj
 0001:0014f330       ?fromBuffer@MultiplePersistentContactManifold@Gu@physx@@QEAAXPEIAE@Z 0000000180150330 f   GuPersistentContactManifold.obj
 0001:0014f490       ?reduceBatchContacts2@PersistentContactManifold@Gu@physx@@QEAAXPEBVPersistentContact@23@I@Z 0000000180150490 f   GuPersistentContactManifold.obj
 0001:0014f690       ?reduceBatchContacts@PersistentContactManifold@Gu@physx@@QEAAXPEBVPersistentContact@23@IM@Z 0000000180150690 f   GuPersistentContactManifold.obj
 0001:0014fb50       ?reduceBatchContactsCapsule@SinglePersistentContactManifold@Gu@physx@@QEAA?AT__m128@@PEBVMeshPersistentContact@23@IAEAUPCMContactPatch@23@@Z 0000000180150b50 f   GuPersistentContactManifold.obj
 0001:0014fde0       ?reduceBatchContactsCluster@PersistentContactManifold@Gu@physx@@QEAAXPEBVPersistentContact@23@I@Z 0000000180150de0 f   GuPersistentContactManifold.obj
 0001:00150270       ?reduceBatchContactsConvex@SinglePersistentContactManifold@Gu@physx@@QEAA?AT__m128@@PEBVMeshPersistentContact@23@IAEAUPCMContactPatch@23@@Z 0000000180151270 f   GuPersistentContactManifold.obj
 0001:00150860       ?reduceContacts@SinglePersistentContactManifold@Gu@physx@@SAIPEAVMeshPersistentContact@23@I@Z 0000000180151860 f   GuPersistentContactManifold.obj
 0001:00150de0       ?reduceContactsForPCM@PersistentContactManifold@Gu@physx@@QEAAIAEBT__m128@@00@Z 0000000180151de0 f   GuPersistentContactManifold.obj
 0001:00151380       ?refreshContactPoints@SinglePersistentContactManifold@Gu@physx@@QEAA?AT__m128@@AEBVPxMatTransformV@aos@3@AEBT4@1@Z 0000000180152380 f   GuPersistentContactManifold.obj
 0001:001514d0       ?replaceManifoldPoint@PersistentContactManifold@Gu@physx@@QEAA_NAEBT__m128@@000@Z 00000001801524d0 f   GuPersistentContactManifold.obj
 0001:00151590       ?toBuffer@MultiplePersistentContactManifold@Gu@physx@@QEBAXPEIAE@Z 0000000180152590 f   GuPersistentContactManifold.obj
 0001:00151670       ?contains@Gu@physx@@YA_NPEAT__m128@@IAEBT3@11@Z 0000000180152670 f   GuPCMContactGenUtil.obj
 0001:00151830       ?getPolygonIndex@Gu@physx@@YAHAEBUPolygonalData@12@PEBVSupportLocal@12@AEBT__m128@@AEAH@Z 0000000180152830 f   GuPCMContactGenUtil.obj
 0001:00151ad0       ?getWitnessPolygonIndex@Gu@physx@@YAIAEBUPolygonalData@12@PEBVSupportLocal@12@AEBT__m128@@2M@Z 0000000180152ad0 f   GuPCMContactGenUtil.obj
 0001:00152020       ?sweepBoxBox@Gu@physx@@YA_NAEBVBox@12@0AEBV?$PxVec3T@M@2@MV?$PxFlags@W4Enum@PxHitFlag@physx@@G@2@AEAUPxGeomSweepHit@2@@Z 0000000180153020 f   GuSweepBoxBox.obj
 0001:00153660       ?sweepBoxSphere@Gu@physx@@YA_NAEBVBox@12@MAEBV?$PxVec3T@M@2@1MAEAMAEAV42@V?$PxFlags@W4Enum@PxHitFlag@physx@@G@2@@Z 0000000180154660 f   GuSweepBoxSphere.obj
 0001:00154310       ?sweepBoxTriangle@Gu@physx@@YA_NAEBVPxTriangle@2@AEBVPxBounds3@2@AEBV?$PxVec3T@M@2@2AEAV52@3AEAM_N@Z 0000000180155310 f   GuSweepBoxTriangle_FeatureBased.obj
 0001:00155a30       ?triBoxSweepTestBoxSpace@Gu@physx@@YAHAEBVPxTriangle@2@AEBV?$PxVec3T@M@2@11MAEAM_N@Z 0000000180156a30 f   GuSweepBoxTriangle_SAT.obj
 0001:00157350       ?sweepCapsuleBox@Gu@physx@@YA_NAEBVCapsule@12@AEBV?$PxTransformT@M@2@AEBV?$PxVec3T@M@2@2MAEAV52@AEAM3V?$PxFlags@W4Enum@PxHitFlag@physx@@G@2@@Z 0000000180158350 f   GuSweepCapsuleBox.obj
 0001:001576a0       ?distancePointSegmentSquared@Gu@physx@@YAMAEBVSegment@12@AEBV?$PxVec3T@M@2@PEAM@Z 00000001801586a0 f i GuSweepCapsuleCapsule.obj
 0001:001577b0       ?edgeEdgeDist@@YAXAEAV?$PxVec3T@M@physx@@0AEBV12@111@Z 00000001801587b0 f   GuSweepCapsuleCapsule.obj
 0001:00157a20       ?sweepCapsuleCapsule@Gu@physx@@YA_NAEBVCapsule@12@0AEBV?$PxVec3T@M@2@MAEAMAEAV42@3IAEAG@Z 0000000180158a20 f   GuSweepCapsuleCapsule.obj
 0001:00158830       ?sweepCapsuleTriangles_Precise@Gu@physx@@YA_NIPEIBVPxTriangle@2@AEBVCapsule@12@AEBV?$PxVec3T@M@2@MPEIBIAEAUPxGeomSweepHit@2@AEAV52@V?$PxFlags@W4Enum@PxHitFlag@physx@@G@2@_NPEBVBoxPadded@12@@Z 0000000180159830 f   GuSweepCapsuleTriangle.obj
 0001:0015a990       ?sweepSphereCapsule@Gu@physx@@YA_NAEBVSphere@12@AEBVCapsule@12@AEBV?$PxVec3T@M@2@MAEAMAEAV52@4V?$PxFlags@W4Enum@PxHitFlag@physx@@G@2@@Z 000000018015b990 f   GuSweepSphereCapsule.obj
 0001:0015b030       ?sweepSphereSphere@Gu@physx@@YA_NAEBV?$PxVec3T@M@2@M0M0AEAMAEAV32@@Z 000000018015c030 f   GuSweepSphereSphere.obj
 0001:0015b2a0       ?sweepSphereTriangles@Gu@physx@@YA_NIPEIBVPxTriangle@2@AEBV?$PxVec3T@M@2@M1MPEIBIAEAUPxGeomSweepHit@2@AEAV42@_N555@Z 000000018015c2a0 f   GuSweepSphereTriangle.obj
 0001:0015bb70       ?sweepSphereVSQuad@Gu@physx@@YA_NPEIBV?$PxVec3T@M@2@AEBV32@1M1AEAM@Z 000000018015cb70 f   GuSweepSphereTriangle.obj
 0001:0015cb50       ?sweepSphereVSTri@Gu@physx@@YA_NPEIBV?$PxVec3T@M@2@AEBV32@1M1AEAMAEA_N_N@Z 000000018015db50 f   GuSweepSphereTriangle.obj
 0001:0015d860       ??$gjk@U?$LocalConvex@VTriangleV@Gu@physx@@@Gu@physx@@U?$LocalConvex@VBoxV@Gu@physx@@@23@@Gu@physx@@YA?AW4GjkStatus@01@AEBU?$LocalConvex@VTriangleV@Gu@physx@@@01@AEBU?$LocalConvex@VBoxV@Gu@physx@@@01@AEBT__m128@@2AEAT5@333@Z 000000018015e860 f i GuSweepTriangleUtils.obj
 0001:0015e540       ?computeBoxTriImpactData@Gu@physx@@YAXAEAV?$PxVec3T@M@2@0AEBV32@1AEBVPxTriangle@2@M@Z 000000018015f540 f   GuSweepTriangleUtils.obj
 0001:0015e7c0       ?computeEdgeEdgeNormal@Gu@physx@@YAXAEAV?$PxVec3T@M@2@AEBV32@1111M@Z 000000018015f7c0 f   GuSweepTriangleUtils.obj
 0001:0015ea70       ?computeSphereTriImpactData@Gu@physx@@YAXAEAV?$PxVec3T@M@2@0AEBV32@1MAEBVPxTriangle@2@@Z 000000018015fa70 f   GuSweepTriangleUtils.obj
 0001:0015ef50       ??0ShapeData@Gu@physx@@QEAA@AEBVPxGeometry@2@AEBV?$PxTransformT@M@2@M@Z 000000018015ff50 f   GuBounds.obj
 0001:0015f4c0       ?computeBounds@Gu@physx@@YAXAEAVPxBounds3@2@AEBVPxGeometry@2@AEBV?$PxTransformT@M@2@MM@Z 00000001801604c0 f   GuBounds.obj
 0001:00160050       ?computeBoundsAroundVertices@Gu@physx@@YAXAEAVPxBounds3@2@IPEIBV?$PxVec3T@M@2@@Z 0000000180161050 f   GuBounds.obj
 0001:001600e0       ?computeGlobalBox@Gu@physx@@YAXAEAVPxBounds3@2@IPEIBV32@PEIBI@Z 00000001801610e0 f   GuBounds.obj
 0001:00160150       ?computeLocalBoundsAndGeomEpsilon@Gu@physx@@YAXPEBV?$PxVec3T@M@2@IAEAVPxBounds3@2@AEAM@Z 0000000180161150 f   GuBounds.obj
 0001:00161280       ?computeTightBounds@Gu@physx@@YAXAEAVPxBounds3@2@IPEIBV?$PxVec3T@M@2@AEBV?$PxTransformT@M@2@AEBVPxMeshScale@2@MM@Z 0000000180162280 f   GuBounds.obj
 0001:00161640       ??0AABBTree@Gu@physx@@QEAA@XZ 0000000180162640 f   GuAABBTree.obj
 0001:00161670       ??0BVHPartialRefitData@Gu@physx@@QEAA@XZ 0000000180162670 f   GuAABBTree.obj
 0001:001616a0       ??0NodeAllocator@Gu@physx@@QEAA@XZ 00000001801626a0 f   GuAABBTree.obj
 0001:001616c0       ??1AABBTree@Gu@physx@@QEAA@XZ 00000001801626c0 f   GuAABBTree.obj
 0001:001616e0       ??1BVHPartialRefitData@Gu@physx@@QEAA@XZ 00000001801626e0 f   GuAABBTree.obj
 0001:00161780       ??1NodeAllocator@Gu@physx@@QEAA@XZ 0000000180162780 f   GuAABBTree.obj
 0001:001617d0       ?_buildHierarchy@AABBTreeBuildNode@Gu@physx@@QEAAXAEBVAABBTreeBuildParams@23@AEAUBuildStats@23@AEAVNodeAllocator@23@QEAI@Z 00000001801627d0 f   GuAABBTree.obj
 0001:00161860       ?_buildHierarchySAH@AABBTreeBuildNode@Gu@physx@@QEAAXAEBVAABBTreeBuildParams@23@AEAUSAH_Buffers@23@AEAUBuildStats@23@AEAVNodeAllocator@23@QEAI@Z 0000000180162860 f   GuAABBTree.obj
 0001:00161910       ?addRuntimeChilds@AABBTree@Gu@physx@@AEAAXAEAIAEBVAABBTreeMergeData@23@@Z 0000000180162910 f   GuAABBTree.obj
 0001:00161a10       ?build@AABBTree@Gu@physx@@QEAA_NAEBVAABBTreeBuildParams@23@AEAVNodeAllocator@23@@Z 0000000180162a10 f   GuAABBTree.obj
 0001:00161c30       ?buildAABBTree@Gu@physx@@YAPEAIAEBVAABBTreeBuildParams@12@AEAVNodeAllocator@12@AEAUBuildStats@12@@Z 0000000180162c30 f   GuAABBTree.obj
 0001:00161cd0       ?buildAABBTree@Gu@physx@@YAXIAEBVAABBTreeBounds@12@AEAV?$PxArray@UBVHNode@Gu@physx@@V?$PxReflectionAllocator@UBVHNode@Gu@physx@@@3@@2@@Z 0000000180162cd0 f   GuAABBTree.obj
 0001:001620a0       ?buildEnd@AABBTree@Gu@physx@@AEAAXAEBVAABBTreeBuildParams@23@AEAVNodeAllocator@23@AEBUBuildStats@23@@Z 00000001801630a0 f   GuAABBTree.obj
 0001:001622c0       ?createUpdateMap@BVHPartialRefitData@Gu@physx@@QEAAXI@Z 00000001801632c0 f   GuAABBTree.obj
 0001:001623e0       ?flattenTree@Gu@physx@@YAXAEBVNodeAllocator@12@PEAUBVHNode@12@PEBI@Z 00000001801633e0 f   GuAABBTree.obj
 0001:001625d0       ?fullRefit@BVHCoreData@Gu@physx@@QEAAXPEBVPxBounds3@3@@Z 00000001801635d0 f   GuAABBTree.obj
 0001:00162790       ?getBiNode@NodeAllocator@Gu@physx@@QEAAPEAVAABBTreeBuildNode@23@XZ 0000000180163790 f   GuAABBTree.obj
 0001:001628c0       ?getParentIndices@BVHPartialRefitData@Gu@physx@@IEAAPEAIXZ 00000001801638c0 f   GuAABBTree.obj
 0001:00162950       ?growAndPushBack@?$PxArray@PEAVAABBTreeBuildNode@Gu@physx@@V?$PxReflectionAllocator@PEAVAABBTreeBuildNode@Gu@physx@@@3@@physx@@IEAAAEAPEAVAABBTreeBuildNode@Gu@2@AEBQEAV342@@Z 0000000180163950 f i GuAABBTree.obj
 0001:00162a80       ?growAndPushBack@?$PxArray@USlab@NodeAllocator@Gu@physx@@V?$PxReflectionAllocator@USlab@NodeAllocator@Gu@physx@@@4@@physx@@IEAAAEAUSlab@NodeAllocator@Gu@2@AEBU3452@@Z 0000000180163a80 f i GuAABBTree.obj
 0001:00162b40       ?init@AABBTreeBounds@Gu@physx@@QEAAXIPEBVPxBounds3@3@@Z 0000000180163b40 f   GuAABBTree.obj
 0001:00162c00       ?init@NodeAllocator@Gu@physx@@QEAAXII@Z 0000000180163c00 f   GuAABBTree.obj
 0001:00162f40       ?initTree@AABBTree@Gu@physx@@QEAAXAEBVAABBTreeMergeData@23@@Z 0000000180163f40 f   GuAABBTree.obj
 0001:00163070       ?markNodeForRefit@BVHPartialRefitData@Gu@physx@@QEAAXI@Z 0000000180164070 f   GuAABBTree.obj
 0001:00163180       ?mergeRuntimeLeaf@AABBTree@Gu@physx@@AEAAXAEAUBVHNode@23@AEBVAABBTreeMergeData@23@I@Z 0000000180164180 f   GuAABBTree.obj
 0001:001633d0       ?mergeRuntimeNode@AABBTree@Gu@physx@@AEAAXAEAUBVHNode@23@AEBVAABBTreeMergeData@23@I@Z 00000001801643d0 f   GuAABBTree.obj
 0001:001636f0       ?mergeTree@AABBTree@Gu@physx@@QEAAXAEBVAABBTreeMergeData@23@@Z 00000001801646f0 f   GuAABBTree.obj
 0001:00163980       ?progressiveBuild@AABBTree@Gu@physx@@QEAAIAEBVAABBTreeBuildParams@23@AEAVNodeAllocator@23@AEAUBuildStats@23@II@Z 0000000180164980 f   GuAABBTree.obj
 0001:00163c30       ?refitMarkedNodes@BVHPartialRefitData@Gu@physx@@QEAAXPEBVPxBounds3@3@@Z 0000000180164c30 f   GuAABBTree.obj
 0001:00163da0       ?release@AABBTree@Gu@physx@@QEAAX_N@Z 0000000180164da0 f   GuAABBTree.obj
 0001:00163e90       ?release@AABBTreeBounds@Gu@physx@@QEAAXXZ 0000000180164e90 f   GuAABBTree.obj
 0001:00163ee0       ?release@NodeAllocator@Gu@physx@@QEAAXXZ 0000000180164ee0 f   GuAABBTree.obj
 0001:00163f90       ?releasePartialRefitData@BVHPartialRefitData@Gu@physx@@QEAAX_N@Z 0000000180164f90 f   GuAABBTree.obj
 0001:00164020       ?reshuffle@Gu@physx@@YAIIQEIAIPEIBV?$PxVec3T@M@2@MI@Z 0000000180165020 f   GuAABBTree.obj
 0001:00164160       ?resize@?$PxArray@USlab@NodeAllocator@Gu@physx@@V?$PxReflectionAllocator@USlab@NodeAllocator@Gu@physx@@@4@@physx@@QEAAXIAEBUSlab@NodeAllocator@Gu@2@@Z 0000000180165160 f i GuAABBTree.obj
 0001:001641e0       ?resize@AABBTreeBounds@Gu@physx@@QEAAXII@Z 00000001801651e0 f   GuAABBTree.obj
 0001:00164280       ?shiftIndices@AABBTree@Gu@physx@@QEAAXI@Z 0000000180165280 f   GuAABBTree.obj
 0001:001642a0       ?shiftOrigin@AABBTree@Gu@physx@@QEAAXAEBV?$PxVec3T@M@3@@Z 00000001801652a0 f   GuAABBTree.obj
 0001:00164530       ?subdivide@AABBTreeBuildNode@Gu@physx@@QEAAXAEBVAABBTreeBuildParams@23@AEAUBuildStats@23@AEAVNodeAllocator@23@QEAI@Z 0000000180165530 f   GuAABBTree.obj
 0001:00164720       ?subdivideSAH@AABBTreeBuildNode@Gu@physx@@QEAAXAEBVAABBTreeBuildParams@23@AEAUSAH_Buffers@23@AEAUBuildStats@23@AEAVNodeAllocator@23@QEAI@Z 0000000180165720 f   GuAABBTree.obj
 0001:00164810       ?traverseRuntimeNode@AABBTree@Gu@physx@@AEAAXAEAUBVHNode@23@AEBVAABBTreeMergeData@23@I@Z 0000000180165810 f   GuAABBTree.obj
 0001:00164950       ?initMap@AABBTreeUpdateMap@Gu@physx@@QEAAXIAEBVAABBTree@23@@Z 0000000180165950 f   GuAABBTreeUpdateMap.obj
 0001:00164ae0       ?invalidate@AABBTreeUpdateMap@Gu@physx@@QEAAXIIAEAVAABBTree@23@@Z 0000000180165ae0 f   GuAABBTreeUpdateMap.obj
 0001:00164d80       ?visualizeTree@@YAXAEAVPxRenderOutput@physx@@IPEBVAABBTree@Gu@2@@Z 0000000180165d80 f   GuSqInternal.obj
 0001:00164df0       ?visualizeTree@@YAXAEAVPxRenderOutput@physx@@IPEBVBVH@Gu@2@@Z 0000000180165df0 f   GuSqInternal.obj
 0001:00164e60       ?visualizeTree@@YAXAEAVPxRenderOutput@physx@@IPEBVIncrementalAABBTree@Gu@2@PEAVDebugVizCallback@2@@Z 0000000180165e60 f   GuSqInternal.obj
 0001:00164ee0       ??$PxSort@PEAXU?$PxLess@PEAX@physx@@V?$PxReflectionAllocator@UAABBTreeIndices@Gu@physx@@@2@@physx@@YAXPEAPEAXIAEBU?$PxLess@PEAX@0@AEBV?$PxReflectionAllocator@UAABBTreeIndices@Gu@physx@@@0@I@Z 0000000180165ee0 f i GuIncrementalAABBTree.obj
 0001:00165340       ??$PxSort@PEAXU?$PxLess@PEAX@physx@@V?$PxReflectionAllocator@UIncrementalAABBTreeNodePair@Gu@physx@@@2@@physx@@YAXPEAPEAXIAEBU?$PxLess@PEAX@0@AEBV?$PxReflectionAllocator@UIncrementalAABBTreeNodePair@Gu@physx@@@0@I@Z 0000000180166340 f i GuIncrementalAABBTree.obj
 0001:001657a0       ??0IncrementalAABBTree@Gu@physx@@QEAA@XZ 00000001801667a0 f   GuIncrementalAABBTree.obj
 0001:00165820       ??1?$PxPoolBase@UAABBTreeIndices@Gu@physx@@V?$PxReflectionAllocator@UAABBTreeIndices@Gu@physx@@@3@@physx@@QEAA@XZ 0000000180166820 f i GuIncrementalAABBTree.obj
 0001:00165980       ??1?$PxPoolBase@UIncrementalAABBTreeNodePair@Gu@physx@@V?$PxReflectionAllocator@UIncrementalAABBTreeNodePair@Gu@physx@@@3@@physx@@QEAA@XZ 0000000180166980 f i GuIncrementalAABBTree.obj
 0001:00165ae0       ??1IncrementalAABBTree@Gu@physx@@QEAA@XZ 0000000180166ae0 f   GuIncrementalAABBTree.obj
 0001:00165b20       ?allocate@?$PxArray@PEAXV?$PxReflectionAllocator@UAABBTreeIndices@Gu@physx@@@physx@@@physx@@IEAAPEAPEAXI@Z 0000000180166b20 f i GuIncrementalAABBTree.obj
 0001:00165bd0       ?allocate@?$PxArray@PEAXV?$PxReflectionAllocator@UIncrementalAABBTreeNodePair@Gu@physx@@@physx@@@physx@@IEAAPEAPEAXI@Z 0000000180166bd0 f i GuIncrementalAABBTree.obj
 0001:00165c80       ?allocate@?$PxPoolBase@UAABBTreeIndices@Gu@physx@@V?$PxReflectionAllocator@UAABBTreeIndices@Gu@physx@@@3@@physx@@QEAAPEAUAABBTreeIndices@Gu@2@XZ 0000000180166c80 f i GuIncrementalAABBTree.obj
 0001:00165d80       ?allocate@?$PxPoolBase@UIncrementalAABBTreeNodePair@Gu@physx@@V?$PxReflectionAllocator@UIncrementalAABBTreeNodePair@Gu@physx@@@3@@physx@@QEAAPEAUIncrementalAABBTreeNodePair@Gu@2@XZ 0000000180166d80 f i GuIncrementalAABBTree.obj
 0001:00165ea0       ?build@IncrementalAABBTree@Gu@physx@@QEAA_NAEBVAABBTreeBuildParams@23@AEAV?$PxArray@PEAVIncrementalAABBTreeNode@Gu@physx@@V?$PxReflectionAllocator@PEAVIncrementalAABBTreeNode@Gu@physx@@@3@@3@@Z 0000000180166ea0 f   GuIncrementalAABBTree.obj
 0001:00166080       ?clone@IncrementalAABBTree@Gu@physx@@AEAAXAEAV?$PxArray@PEAVIncrementalAABBTreeNode@Gu@physx@@V?$PxReflectionAllocator@PEAVIncrementalAABBTreeNode@Gu@physx@@@3@@3@PEBIPEAPEAVIncrementalAABBTreeNode@23@@Z 0000000180167080 f   GuIncrementalAABBTree.obj
 0001:001665c0       ?copy@IncrementalAABBTree@Gu@physx@@QEAAXAEBVBVH@23@AEAV?$PxArray@PEAVIncrementalAABBTreeNode@Gu@physx@@V?$PxReflectionAllocator@PEAVIncrementalAABBTreeNode@Gu@physx@@@3@@3@@Z 00000001801675c0 f   GuIncrementalAABBTree.obj
 0001:00166670       ?copyNode@IncrementalAABBTree@Gu@physx@@AEAAXAEAVIncrementalAABBTreeNode@23@AEBUBVHNode@23@PEBU523@PEAV423@PEBIAEAV?$PxArray@PEAVIncrementalAABBTreeNode@Gu@physx@@V?$PxReflectionAllocator@PEAVIncrementalAABBTreeNode@Gu@physx@@@3@@3@@Z 0000000180167670 f   GuIncrementalAABBTree.obj
 0001:00166830       ?fixupTreeIndices@IncrementalAABBTree@Gu@physx@@QEAAXPEAVIncrementalAABBTreeNode@23@II@Z 0000000180167830 f   GuIncrementalAABBTree.obj
 0001:00166860       ?getTreeLeafDepth@IncrementalAABBTree@Gu@physx@@QEAAIPEAVIncrementalAABBTreeNode@23@@Z 0000000180167860 f   GuIncrementalAABBTree.obj
 0001:00166880       ?growAndPushBack@?$PxArray@PEAVIncrementalAABBTreeNode@Gu@physx@@V?$PxReflectionAllocator@PEAVIncrementalAABBTreeNode@Gu@physx@@@3@@physx@@IEAAAEAPEAVIncrementalAABBTreeNode@Gu@2@AEBQEAV342@@Z 0000000180167880 f i GuIncrementalAABBTree.obj
 0001:001669b0       ?growAndPushBack@?$PxArray@PEAXV?$PxReflectionAllocator@UAABBTreeIndices@Gu@physx@@@physx@@@physx@@IEAAAEAPEAXAEBQEAX@Z 00000001801679b0 f i GuIncrementalAABBTree.obj
 0001:00166a70       ?growAndPushBack@?$PxArray@PEAXV?$PxReflectionAllocator@UIncrementalAABBTreeNodePair@Gu@physx@@@physx@@@physx@@IEAAAEAPEAXAEBQEAX@Z 0000000180167a70 f i GuIncrementalAABBTree.obj
 0001:00166b30       ?hierarchyCheck@IncrementalAABBTree@Gu@physx@@QEAAXIPEBVPxBounds3@3@@Z 0000000180167b30 f   GuIncrementalAABBTree.obj
 0001:00166c80       ?hierarchyCheck@IncrementalAABBTree@Gu@physx@@QEAAXPEBVPxBounds3@3@@Z 0000000180167c80 f   GuIncrementalAABBTree.obj
 0001:00166df0       ?insert@IncrementalAABBTree@Gu@physx@@QEAAPEAVIncrementalAABBTreeNode@23@IPEBVPxBounds3@3@AEAV?$PxArray@PEAVIncrementalAABBTreeNode@Gu@physx@@V?$PxReflectionAllocator@PEAVIncrementalAABBTreeNode@Gu@physx@@@3@@3@@Z 0000000180167df0 f   GuIncrementalAABBTree.obj
 0001:001674d0       ?recreate@?$PxArray@PEAXV?$PxReflectionAllocator@UAABBTreeIndices@Gu@physx@@@physx@@@physx@@IEAAXI@Z 00000001801684d0 f i GuIncrementalAABBTree.obj
 0001:00167570       ?recreate@?$PxArray@PEAXV?$PxReflectionAllocator@UIncrementalAABBTreeNodePair@Gu@physx@@@physx@@@physx@@IEAAXI@Z 0000000180168570 f i GuIncrementalAABBTree.obj
 0001:00167610       ?release@IncrementalAABBTree@Gu@physx@@QEAAXXZ 0000000180168610 f   GuIncrementalAABBTree.obj
 0001:00167640       ?releaseNode@IncrementalAABBTree@Gu@physx@@AEAAXPEAVIncrementalAABBTreeNode@23@@Z 0000000180168640 f   GuIncrementalAABBTree.obj
 0001:001676d0       ?remove@IncrementalAABBTree@Gu@physx@@QEAAPEAVIncrementalAABBTreeNode@23@PEAV423@IPEBVPxBounds3@3@@Z 00000001801686d0 f   GuIncrementalAABBTree.obj
 0001:001679f0       ?rotateTree@IncrementalAABBTree@Gu@physx@@AEAAXPEAVIncrementalAABBTreeNode@23@AEAV?$PxArray@PEAVIncrementalAABBTreeNode@Gu@physx@@V?$PxReflectionAllocator@PEAVIncrementalAABBTreeNode@Gu@physx@@@3@@3@IPEBVPxBounds3@3@_N@Z 00000001801689f0 f   GuIncrementalAABBTree.obj
 0001:00168350       ?shiftOrigin@IncrementalAABBTree@Gu@physx@@QEAAXAEBV?$PxVec3T@M@3@@Z 0000000180169350 f   GuIncrementalAABBTree.obj
 0001:001683b0       ?splitLeafNode@IncrementalAABBTree@Gu@physx@@AEAAPEAVIncrementalAABBTreeNode@23@PEAV423@IAEBT__m128@@1PEBVPxBounds3@3@@Z 00000001801693b0 f   GuIncrementalAABBTree.obj
 0001:001686a0       ?update@IncrementalAABBTree@Gu@physx@@QEAAPEAVIncrementalAABBTreeNode@23@PEAV423@IPEBVPxBounds3@3@AEAV?$PxArray@PEAVIncrementalAABBTreeNode@Gu@physx@@V?$PxReflectionAllocator@PEAVIncrementalAABBTreeNode@Gu@physx@@@3@@3@@Z 00000001801696a0 f   GuIncrementalAABBTree.obj
 0001:00168760       ?updateFast@IncrementalAABBTree@Gu@physx@@QEAAPEAVIncrementalAABBTreeNode@23@PEAV423@IPEBVPxBounds3@3@AEAV?$PxArray@PEAVIncrementalAABBTreeNode@Gu@physx@@V?$PxReflectionAllocator@PEAVIncrementalAABBTreeNode@Gu@physx@@@3@@3@@Z 0000000180169760 f   GuIncrementalAABBTree.obj
 0001:00168980       ??0SAH_Buffers@Gu@physx@@QEAA@I@Z 0000000180169980 f   GuSAH.obj
 0001:00168a80       ??1SAH_Buffers@Gu@physx@@QEAA@XZ 0000000180169a80 f   GuSAH.obj
 0001:00168b40       ?split@SAH_Buffers@Gu@physx@@QEAA_NAEAIIPEIBIPEIBVPxBounds3@3@PEIBV?$PxVec3T@M@3@@Z 0000000180169b40 f   GuSAH.obj
 0001:00169230       ??0BVH@Gu@physx@@QEAA@AEBUPxBVHInternalData@2@@Z 000000018016a230 f   GuBVH.obj
 0001:001692f0       ??0BVH@Gu@physx@@QEAA@PEAVMeshFactory@12@@Z 000000018016a2f0 f   GuBVH.obj
 0001:00169360       ??0BVH@Gu@physx@@QEAA@PEAVMeshFactory@12@AEAVBVHData@12@@Z 000000018016a360 f   GuBVH.obj
 0001:00169410       ??1BVHData@Gu@physx@@QEAA@XZ 000000018016a410 f i GuBVH.obj
 0001:0016ccf4       ??_EBVH@Gu@physx@@WBA@EAAPEAXI@Z 000000018016dcf4 f i GuBVH.obj
 0001:0016cd00       ??_EBVH@Gu@physx@@UEAAPEAXI@Z 000000018016dd00 f i GuBVH.obj
 0001:0016cd00       ??_GBVH@Gu@physx@@UEAAPEAXI@Z 000000018016dd00 f i GuBVH.obj
 0001:0016cd90       ??_ERefCountable@Cm@physx@@UEAAPEAXI@Z 000000018016dd90 f i GuBVH.obj
 0001:0016cd90       ??_GRefCountable@Cm@physx@@UEAAPEAXI@Z 000000018016dd90 f i GuBVH.obj
 0001:0016cfc0       ?allocate@?$PxArray@PEBUBVHNode@Gu@physx@@V?$PxInlineAllocator@$0IAA@V?$PxReflectionAllocator@PEBUBVHNode@Gu@physx@@@physx@@@3@@physx@@IEAAPEAPEBUBVHNode@Gu@2@I@Z 000000018016dfc0 f i GuBVH.obj
 0001:0016d080       ?build@BVHData@Gu@physx@@QEAA_NIPEBXIMIW4BVHBuildStrategy@23@@Z 000000018016e080 f   GuBVH.obj
 0001:0016d480       ?cull@BVH@Gu@physx@@UEBA_NIPEBVPxPlane@3@AEAUOverlapCallback@PxBVH@3@V?$PxFlags@W4Enum@PxGeometryQueryFlag@physx@@I@3@@Z 000000018016e480 f   GuBVH.obj
 0001:0016dde0       ?getConcreteTypeName@PxBVH@physx@@UEBAPEBDXZ 000000018016ede0 f i GuBVH.obj
 0001:0016ddf0       ?init@BVH@Gu@physx@@QEAA_NIPEAVAABBTreeBounds@23@PEBXIW4BVHBuildStrategy@23@IM@Z 000000018016edf0 f   GuBVH.obj
 0001:0016e200       ?isKindOf@PxBVH@physx@@MEBA_NPEBD@Z 000000018016f200 f i GuBVH.obj
 0001:0016e270       ?load@BVH@Gu@physx@@QEAA_NAEAVPxInputStream@3@@Z 000000018016f270 f   GuBVH.obj
 0001:0016e400       ?onRefCountZero@BVH@Gu@physx@@UEAAXXZ 000000018016f400 f   GuBVH.obj
 0001:0016e4e0       ?onRefCountZero@RefCountable@Cm@physx@@UEAAXXZ 000000018016f4e0 f i GuBVH.obj
 0001:0016e500       ?overlap@BVH@Gu@physx@@QEBA_NAEBVShapeData@23@AEAUOverlapCallback@PxBVH@3@V?$PxFlags@W4Enum@PxGeometryQueryFlag@physx@@I@3@@Z 000000018016f500 f   GuBVH.obj
 0001:0016ed30       ?overlap@BVH@Gu@physx@@UEBA_NAEBVPxGeometry@3@AEBV?$PxTransformT@M@3@AEAUOverlapCallback@PxBVH@3@V?$PxFlags@W4Enum@PxGeometryQueryFlag@physx@@I@3@@Z 000000018016fd30 f   GuBVH.obj
 0001:0016ed90       ?partialRefit@BVH@Gu@physx@@UEAAXXZ 000000018016fd90 f   GuBVH.obj
 0001:0016eda0       ?raycast@BVH@Gu@physx@@UEBA_NAEBV?$PxVec3T@M@3@0MAEAURaycastCallback@PxBVH@3@V?$PxFlags@W4Enum@PxGeometryQueryFlag@physx@@I@3@@Z 000000018016fda0 f   GuBVH.obj
 0001:0016eed0       ?recreate@?$PxArray@PEBUBVHNode@Gu@physx@@V?$PxInlineAllocator@$0IAA@V?$PxReflectionAllocator@PEBUBVHNode@Gu@physx@@@physx@@@3@@physx@@IEAAXI@Z 000000018016fed0 f i GuBVH.obj
 0001:0016ef90       ?refit@BVH@Gu@physx@@UEAAXXZ 000000018016ff90 f   GuBVH.obj
 0001:0016efa0       ?release@BVH@Gu@physx@@UEAAXXZ 000000018016ffa0 f   GuBVH.obj
 0001:0016efd0       ?resizeUninitialized@?$PxArray@PEBUBVHNode@Gu@physx@@V?$PxInlineAllocator@$0IAA@V?$PxReflectionAllocator@PEBUBVHNode@Gu@physx@@@physx@@@3@@physx@@QEAAXI@Z 000000018016ffd0 f i GuBVH.obj
 0001:0016f020       ?save@BVHData@Gu@physx@@QEBA_NAEAVPxOutputStream@3@_N@Z 0000000180170020 f   GuBVH.obj
 0001:0016f190       ?sweep@BVH@Gu@physx@@QEBA_NAEBVShapeData@23@AEBV?$PxVec3T@M@3@MAEAURaycastCallback@PxBVH@3@V?$PxFlags@W4Enum@PxGeometryQueryFlag@physx@@I@3@@Z 0000000180170190 f   GuBVH.obj
 0001:0016f380       ?sweep@BVH@Gu@physx@@UEBA_NAEBVPxGeometry@3@AEBV?$PxTransformT@M@3@AEBV?$PxVec3T@M@3@MAEAURaycastCallback@PxBVH@3@V?$PxFlags@W4Enum@PxGeometryQueryFlag@physx@@I@3@@Z 0000000180170380 f   GuBVH.obj
 0001:0016f400       ?traverse@BVH@Gu@physx@@UEBA_NAEAUTraversalCallback@PxBVH@3@@Z 0000000180170400 f   GuBVH.obj
 0001:0016f590       ?updateBounds@BVH@Gu@physx@@UEAA_NIAEBVPxBounds3@3@@Z 0000000180170590 f   GuBVH.obj
 0001:0016f640       ?updateBoundsInternal@BVH@Gu@physx@@QEAA_NIAEBVPxBounds3@3@@Z 0000000180170640 f   GuBVH.obj
 0001:0016f6f0       PxFindOverlap              00000001801706f0 f   GuBVH.obj
 0001:0016f7e0       PxGetBVHInternalData       00000001801707e0 f   GuBVH.obj
 0001:0016f820       ??0IncrementalAABBPrunerCore@Gu@physx@@QEAA@PEBVPruningPool@12@@Z 0000000180170820 f   GuIncrementalAABBPrunerCore.obj
 0001:0016f930       ??1IncrementalAABBPrunerCore@Gu@physx@@QEAA@XZ 0000000180170930 f   GuIncrementalAABBPrunerCore.obj
 0001:0016faa0       ??R?$AABBTreeOverlap@$00U?$OBBAABBTests@$00@Gu@physx@@VIncrementalAABBTree@23@VIncrementalAABBTreeNode@23@UOverlapCallbackAdapter@23@@Gu@physx@@QEAA_NAEBVAABBTreeBounds@12@AEBVIncrementalAABBTree@12@AEBU?$OBBAABBTests@$00@12@AEAUOverlapCallbackAdapter@12@@Z 0000000180170aa0 f i GuIncrementalAABBPrunerCore.obj
 0001:00170050       ??R?$AABBTreeOverlap@$00UAABBAABBTest@Gu@physx@@VIncrementalAABBTree@23@VIncrementalAABBTreeNode@23@UOverlapCallbackAdapter@23@@Gu@physx@@QEAA_NAEBVAABBTreeBounds@12@AEBVIncrementalAABBTree@12@AEBUAABBAABBTest@12@AEAUOverlapCallbackAdapter@12@@Z 0000000180171050 f i GuIncrementalAABBPrunerCore.obj
 0001:001702d0       ??R?$AABBTreeOverlap@$00UCapsuleAABBTest@Gu@physx@@VIncrementalAABBTree@23@VIncrementalAABBTreeNode@23@UOverlapCallbackAdapter@23@@Gu@physx@@QEAA_NAEBVAABBTreeBounds@12@AEBVIncrementalAABBTree@12@AEBUCapsuleAABBTest@12@AEAUOverlapCallbackAdapter@12@@Z 00000001801712d0 f i GuIncrementalAABBPrunerCore.obj
 0001:00170630       ??R?$AABBTreeRaycast@$00$00VIncrementalAABBTree@Gu@physx@@VIncrementalAABBTreeNode@23@URaycastCallbackAdapter@23@@Gu@physx@@QEAA_NAEBVAABBTreeBounds@12@AEBVIncrementalAABBTree@12@AEBV?$PxVec3T@M@2@2AEAM2AEAURaycastCallbackAdapter@12@@Z 0000000180171630 f i GuIncrementalAABBPrunerCore.obj
 0001:00170d00       ??R?$AABBTreeRaycast@$0A@$00VIncrementalAABBTree@Gu@physx@@VIncrementalAABBTreeNode@23@URaycastCallbackAdapter@23@@Gu@physx@@QEAA_NAEBVAABBTreeBounds@12@AEBVIncrementalAABBTree@12@AEBV?$PxVec3T@M@2@2AEAM2AEAURaycastCallbackAdapter@12@@Z 0000000180171d00 f i GuIncrementalAABBPrunerCore.obj
 0001:00171350       ?addObject@IncrementalAABBPrunerCore@Gu@physx@@QEAA_NII@Z 0000000180172350 f   GuIncrementalAABBPrunerCore.obj
 0001:00171440       ?allocate@?$PxArray@PEBVIncrementalAABBTreeNode@Gu@physx@@V?$PxInlineAllocator@$0IAA@V?$PxReflectionAllocator@PEBVIncrementalAABBTreeNode@Gu@physx@@@physx@@@3@@physx@@IEAAPEAPEBVIncrementalAABBTreeNode@Gu@2@I@Z 0000000180172440 f i GuIncrementalAABBPrunerCore.obj
 0001:00171500       ?clear@?$PxHashMapBase@IPEAVIncrementalAABBTreeNode@Gu@physx@@U?$PxHash@I@3@VPxAllocator@3@@physx@@QEAAXXZ 0000000180172500 f i GuIncrementalAABBPrunerCore.obj
 0001:00171500       ?clear@?$PxHashMapBase@UPrunerPayload@Gu@physx@@UExtendedBucketPrunerData@23@UExtendedBucketPrunerHash@23@VPxAllocator@3@@physx@@QEAAXXZ 0000000180172500 f i GuExtendedBucketPruner.obj
 0001:00171590       ?create@?$PxHashBase@V?$PxPair@$$CBIPEAVIncrementalAABBTreeNode@Gu@physx@@@physx@@IU?$PxHash@I@2@UGetKey@?$PxHashMapBase@IPEAVIncrementalAABBTreeNode@Gu@physx@@U?$PxHash@I@3@VPxAllocator@3@@2@VPxAllocator@2@$00@physx@@QEAAPEAV?$PxPair@$$CBIPEAVIncrementalAABBTreeNode@Gu@physx@@@2@AEBIAEA_N@Z 0000000180172590 f i GuIncrementalAABBPrunerCore.obj
 0001:001716e0       ?erase@?$PxHashBase@V?$PxPair@$$CBIPEAVIncrementalAABBTreeNode@Gu@physx@@@physx@@IU?$PxHash@I@2@UGetKey@?$PxHashMapBase@IPEAVIncrementalAABBTreeNode@Gu@physx@@U?$PxHash@I@3@VPxAllocator@3@@2@VPxAllocator@2@$00@physx@@QEAA_NAEBIAEAV?$PxPair@$$CBIPEAVIncrementalAABBTreeNode@Gu@physx@@@2@@Z 00000001801726e0 f i GuIncrementalAABBPrunerCore.obj
 0001:00171850       ?getCurrentWorldBoxes@PruningPool@Gu@physx@@QEAAPEAVPxBounds3@3@XZ 0000000180172850 f i GuIncrementalAABBPrunerCore.obj
 0001:00171850       ?getCurrentWorldBoxes@PruningPool@Gu@physx@@QEBAPEBVPxBounds3@3@XZ 0000000180172850 f i GuIncrementalAABBPrunerCore.obj
 0001:00171850       ?getMesh@CollisionTetrahedronMeshData@Gu@physx@@UEAAPEAVPxTetrahedronMeshData@3@XZ 0000000180172850 f i GuCookingTetrahedronMesh.obj
 0001:00171850       ?getMesh@CollisionTetrahedronMeshData@Gu@physx@@UEBAPEBVPxTetrahedronMeshData@3@XZ 0000000180172850 f i GuCookingTetrahedronMesh.obj
 0001:00171850       ?getMesh@SimulationTetrahedronMeshData@Gu@physx@@UEAAPEAVPxTetrahedronMeshData@3@XZ 0000000180172850 f i GuCookingTetrahedronMesh.obj
 0001:00171860       ?getGlobalBounds@IncrementalAABBPrunerCore@Gu@physx@@QEBAXAEAVPxBounds3@3@@Z 0000000180172860 f   GuIncrementalAABBPrunerCore.obj
 0001:00171990       ?getIndex@PruningPool@Gu@physx@@QEBAII@Z 0000000180172990 f i GuIncrementalAABBPrunerCore.obj
 0001:001719a0       ?getPayloadData@PruningPool@Gu@physx@@QEBAAEBUPrunerPayload@23@IPEAUPrunerPayloadData@23@@Z 00000001801729a0 f i GuIncrementalAABBPrunerCore.obj
 0001:001719f0       ?overlap@IncrementalAABBPrunerCore@Gu@physx@@QEBA_NAEBVShapeData@23@AEAUPrunerOverlapCallback@23@@Z 00000001801729f0 f   GuIncrementalAABBPrunerCore.obj
 0001:00172540       ?raycast@IncrementalAABBPrunerCore@Gu@physx@@QEBA_NAEBV?$PxVec3T@M@3@0AEAMAEAUPrunerRaycastCallback@23@@Z 0000000180173540 f   GuIncrementalAABBPrunerCore.obj
 0001:00172650       ?recreate@?$PxArray@PEAVIncrementalAABBTreeNode@Gu@physx@@V?$PxReflectionAllocator@PEAVIncrementalAABBTreeNode@Gu@physx@@@3@@physx@@IEAAXI@Z 0000000180173650 f i GuIncrementalAABBPrunerCore.obj
 0001:00172760       ?recreate@?$PxArray@PEBVIncrementalAABBTreeNode@Gu@physx@@V?$PxInlineAllocator@$0IAA@V?$PxReflectionAllocator@PEBVIncrementalAABBTreeNode@Gu@physx@@@physx@@@3@@physx@@IEAAXI@Z 0000000180173760 f i GuIncrementalAABBPrunerCore.obj
 0001:00172820       ?release@IncrementalAABBPrunerCore@Gu@physx@@QEAAXXZ 0000000180173820 f   GuIncrementalAABBPrunerCore.obj
 0001:00172920       ?removeMarkedObjects@IncrementalAABBPrunerCore@Gu@physx@@QEAAII@Z 0000000180173920 f   GuIncrementalAABBPrunerCore.obj
 0001:00172980       ?removeObject@IncrementalAABBPrunerCore@Gu@physx@@QEAA_NIIAEAI@Z 0000000180173980 f   GuIncrementalAABBPrunerCore.obj
 0001:00172b90       ?reserveInternal@?$PxHashBase@V?$PxPair@$$CBIPEAVIncrementalAABBTreeNode@Gu@physx@@@physx@@IU?$PxHash@I@2@UGetKey@?$PxHashMapBase@IPEAVIncrementalAABBTreeNode@Gu@physx@@U?$PxHash@I@3@VPxAllocator@3@@2@VPxAllocator@2@$00@physx@@AEAAXI@Z 0000000180173b90 f i GuIncrementalAABBPrunerCore.obj
 0001:00172d50       ?resizeUninitialized@?$PxArray@PEBVIncrementalAABBTreeNode@Gu@physx@@V?$PxInlineAllocator@$0IAA@V?$PxReflectionAllocator@PEBVIncrementalAABBTreeNode@Gu@physx@@@physx@@@3@@physx@@QEAAXI@Z 0000000180173d50 f i GuIncrementalAABBPrunerCore.obj
 0001:00172da0       ?setTransform@PruningPool@Gu@physx@@QEAA_NIAEBV?$PxTransformT@M@3@@Z 0000000180173da0 f i GuIncrementalAABBPrunerCore.obj
 0001:00172e00       ?shiftOrigin@IncrementalAABBPrunerCore@Gu@physx@@QEAAXAEBV?$PxVec3T@M@3@@Z 0000000180173e00 f   GuIncrementalAABBPrunerCore.obj
 0001:00172e40       ?swapIndex@IncrementalAABBPrunerCore@Gu@physx@@QEAAXII@Z 0000000180173e40 f   GuIncrementalAABBPrunerCore.obj
 0001:00172f20       ?sweep@IncrementalAABBPrunerCore@Gu@physx@@QEBA_NAEBVShapeData@23@AEBV?$PxVec3T@M@3@AEAMAEAUPrunerRaycastCallback@23@@Z 0000000180173f20 f   GuIncrementalAABBPrunerCore.obj
 0001:00173140       ?updateMapping@IncrementalAABBPrunerCore@Gu@physx@@AEAAXAEAV?$PxHashMap@IPEAVIncrementalAABBTreeNode@Gu@physx@@U?$PxHash@I@3@VPxAllocator@3@@3@IPEAVIncrementalAABBTreeNode@23@@Z 0000000180174140 f   GuIncrementalAABBPrunerCore.obj
 0001:00173290       ?updateObject@IncrementalAABBPrunerCore@Gu@physx@@QEAA_NI@Z 0000000180174290 f   GuIncrementalAABBPrunerCore.obj
 0001:00173430       ?visualize@IncrementalAABBPrunerCore@Gu@physx@@QEBAXAEAVPxRenderOutput@3@I@Z 0000000180174430 f   GuIncrementalAABBPrunerCore.obj
 0001:00173490       ??0IncrementalAABBPruner@Gu@physx@@QEAA@I_K@Z 0000000180174490 f   GuIncrementalAABBPruner.obj
 0001:00173540       ??R?$AABBTreeOverlap@$00USphereAABBTest@Gu@physx@@VIncrementalAABBTree@23@VIncrementalAABBTreeNode@23@UOverlapCallbackAdapter@23@@Gu@physx@@QEAA_NAEBVAABBTreeBounds@12@AEBVIncrementalAABBTree@12@AEBUSphereAABBTest@12@AEAUOverlapCallbackAdapter@12@@Z 0000000180174540 f i GuIncrementalAABBPruner.obj
 0001:00173830       ??_EBasePruner@Gu@physx@@UEAAPEAXI@Z 0000000180174830 f i GuIncrementalAABBPruner.obj
 0001:00173830       ??_GBasePruner@Gu@physx@@UEAAPEAXI@Z 0000000180174830 f i GuIncrementalAABBPruner.obj
 0001:00173880       ??_EIncrementalAABBPruner@Gu@physx@@UEAAPEAXI@Z 0000000180174880 f i GuIncrementalAABBPruner.obj
 0001:00173880       ??_GIncrementalAABBPruner@Gu@physx@@UEAAPEAXI@Z 0000000180174880 f i GuIncrementalAABBPruner.obj
 0001:00173990       ?addObjects@IncrementalAABBPruner@Gu@physx@@UEAA_NPEAIPEBVPxBounds3@3@PEBUPrunerPayload@23@PEBV?$PxTransformT@M@3@I_N@Z 0000000180174990 f   GuIncrementalAABBPruner.obj
 0001:00173b00       ?commit@IncrementalAABBPruner@Gu@physx@@UEAAXXZ 0000000180174b00 f   GuIncrementalAABBPruner.obj
 0001:00173cd0       ?getGlobalBounds@IncrementalAABBPruner@Gu@physx@@UEBAXAEAVPxBounds3@3@@Z 0000000180174cd0 f   GuIncrementalAABBPruner.obj
 0001:00173d40       ?getPayloadData@IncrementalAABBPruner@Gu@physx@@UEBAAEBUPrunerPayload@23@IPEAUPrunerPayloadData@23@@Z 0000000180174d40 f i GuIncrementalAABBPruner.obj
 0001:00173d90       ?overlap@IncrementalAABBPruner@Gu@physx@@UEBA_NAEBVShapeData@23@AEAUPrunerOverlapCallback@23@@Z 0000000180174d90 f   GuIncrementalAABBPruner.obj
 0001:001744a0       ?preallocate@IncrementalAABBPruner@Gu@physx@@UEAAXI@Z 00000001801754a0 f i GuIncrementalAABBPruner.obj
 0001:001744b0       ?purge@IncrementalAABBPruner@Gu@physx@@UEAAXXZ 00000001801754b0 f   GuIncrementalAABBPruner.obj
 0001:00174500       ?raycast@IncrementalAABBPruner@Gu@physx@@UEBA_NAEBV?$PxVec3T@M@3@0AEAMAEAUPrunerRaycastCallback@23@@Z 0000000180175500 f   GuIncrementalAABBPruner.obj
 0001:00174580       ?removeObjects@IncrementalAABBPruner@Gu@physx@@UEAAXPEBIIPEAUPrunerPayloadRemovalCallback@23@@Z 0000000180175580 f   GuIncrementalAABBPruner.obj
 0001:00174770       ?resize@?$PxArray@PEAVIncrementalAABBTreeNode@Gu@physx@@V?$PxReflectionAllocator@PEAVIncrementalAABBTreeNode@Gu@physx@@@3@@physx@@QEAAXIAEBQEAVIncrementalAABBTreeNode@Gu@2@@Z 0000000180175770 f i GuIncrementalAABBPruner.obj
 0001:00174830       ?resizeUninitialized@?$PxArray@PEAVIncrementalAABBTreeNode@Gu@physx@@V?$PxReflectionAllocator@PEAVIncrementalAABBTreeNode@Gu@physx@@@3@@physx@@QEAAXI@Z 0000000180175830 f i GuIncrementalAABBPruner.obj
 0001:00174870       ?setTransform@IncrementalAABBPruner@Gu@physx@@UEAA_NIAEBV?$PxTransformT@M@3@@Z 0000000180175870 f i GuIncrementalAABBPruner.obj
 0001:001748d0       ?shiftOrigin@IncrementalAABBPruner@Gu@physx@@UEAAXAEBV?$PxVec3T@M@3@@Z 00000001801758d0 f   GuIncrementalAABBPruner.obj
 0001:00174910       ?sweep@IncrementalAABBPruner@Gu@physx@@UEBA_NAEBVShapeData@23@AEBV?$PxVec3T@M@3@AEAMAEAUPrunerRaycastCallback@23@@Z 0000000180175910 f   GuIncrementalAABBPruner.obj
 0001:00174a30       ?updateMapping@IncrementalAABBPruner@Gu@physx@@AEAAXIPEAVIncrementalAABBTreeNode@23@@Z 0000000180175a30 f   GuIncrementalAABBPruner.obj
 0001:00174b20       ?updateObjects@IncrementalAABBPruner@Gu@physx@@UEAAXPEBIIM0PEBVPxBounds3@3@PEBUPxTransformPadded@3@@Z 0000000180175b20 f   GuIncrementalAABBPruner.obj
 0001:00174cd0       ?visualize@IncrementalAABBPruner@Gu@physx@@UEBAXAEAVPxRenderOutput@3@II@Z 0000000180175cd0 f   GuIncrementalAABBPruner.obj
 0001:00174ec0       ??0PruningPool@Gu@physx@@QEAA@_KW4TransformCacheMode@12@@Z 0000000180175ec0 f   GuPruningPool.obj
 0001:00174ef0       ??1PruningPool@Gu@physx@@QEAA@XZ 0000000180175ef0 f   GuPruningPool.obj
 0001:00174fc0       ?addObjects@PruningPool@Gu@physx@@QEAAIPEAIPEBVPxBounds3@3@PEBUPrunerPayload@23@PEBV?$PxTransformT@M@3@I@Z 0000000180175fc0 f   GuPruningPool.obj
 0001:00175230       ?preallocate@PruningPool@Gu@physx@@QEAAXI@Z 0000000180176230 f   GuPruningPool.obj
 0001:00175240       ?removeObject@PruningPool@Gu@physx@@QEAAIIPEAUPrunerPayloadRemovalCallback@23@@Z 0000000180176240 f   GuPruningPool.obj
 0001:00175410       ?resize@PruningPool@Gu@physx@@QEAA_NI@Z 0000000180176410 f   GuPruningPool.obj
 0001:001757b0       ?shiftOrigin@PruningPool@Gu@physx@@QEAAXAEBV?$PxVec3T@M@3@@Z 00000001801767b0 f   GuPruningPool.obj
 0001:00175c00       ?updateAndInflateBounds@PruningPool@Gu@physx@@QEAAXPEBI0PEBVPxBounds3@3@PEBUPxTransformPadded@3@IM@Z 0000000180176c00 f   GuPruningPool.obj
 0001:00177720       ??0BucketPruner@Gu@physx@@QEAA@_K@Z 0000000180178720 f   GuBucketPruner.obj
 0001:00177770       ??0BucketPrunerCore@Gu@physx@@QEAA@_N@Z 0000000180178770 f   GuBucketPruner.obj
 0001:00177af0       ??1BucketPrunerCore@Gu@physx@@QEAA@XZ 0000000180178af0 f   GuBucketPruner.obj
 0001:00177b10       ??R?$BucketPrunerOverlapTraversal@UBucketPrunerAABBAABBTest@@$00@@QEBA_NAEBVBucketPrunerCore@Gu@physx@@AEBUBucketPrunerAABBAABBTest@@AEAUPrunerOverlapCallback@23@AEBVPxBounds3@3@@Z 0000000180178b10 f i GuBucketPruner.obj
 0001:001780d0       ??R?$BucketPrunerOverlapTraversal@UOBBAABBTest_SIMD@@$0A@@@QEBA_NAEBVBucketPrunerCore@Gu@physx@@AEBUOBBAABBTest_SIMD@@AEAUPrunerOverlapCallback@23@AEBVPxBounds3@3@@Z 00000001801790d0 f i GuBucketPruner.obj
 0001:00178950       ??R?$BucketPrunerOverlapTraversal@USphereAABBTest_SIMD@@$00@@QEBA_NAEBVBucketPrunerCore@Gu@physx@@AEBUSphereAABBTest_SIMD@@AEAUPrunerOverlapCallback@23@AEBVPxBounds3@3@@Z 0000000180179950 f i GuBucketPruner.obj
 0001:00178f30       ??_FBucketPrunerCore@Gu@physx@@QEAAXXZ 0000000180179f30 f i GuBucketPruner.obj
 0001:00178f40       ??_EBucketPruner@Gu@physx@@UEAAPEAXI@Z 0000000180179f40 f i GuBucketPruner.obj
 0001:00178f40       ??_GBucketPruner@Gu@physx@@UEAAPEAXI@Z 0000000180179f40 f i GuBucketPruner.obj
 0001:00178fe0       ?addObject@BucketPrunerCore@Gu@physx@@QEAA_NAEBUPrunerPayload@23@AEBVPxBounds3@3@AEBV?$PxTransformT@M@3@I@Z 0000000180179fe0 f   GuBucketPruner.obj
 0001:001792f0       ?addObjects@BucketPruner@Gu@physx@@UEAA_NPEAIPEBVPxBounds3@3@PEBUPrunerPayload@23@PEBV?$PxTransformT@M@3@I_N@Z 000000018017a2f0 f   GuBucketPruner.obj
 0001:00179380       ?addPair@BucketPrunerMap@Gu@physx@@QEAAPEAUBucketPrunerPair@23@AEBUPrunerPayload@23@II@Z 000000018017a380 f   GuBucketPruner.obj
 0001:00179580       ?allocateSortedMemory@BucketPrunerCore@Gu@physx@@AEAAXI@Z 000000018017a580 f   GuBucketPruner.obj
 0001:00179740       ?classifyBoxes@BucketPrunerCore@Gu@physx@@AEAAXXZ 000000018017a740 f   GuBucketPruner.obj
 0001:00179f30       ?classifyBoxes@BucketPrunerNode@Gu@physx@@QEAAXMMIPEIAUBucketBox@23@PEIBUPrunerPayload@23@PEIBV?$PxTransformT@M@3@0PEIAU523@PEIAV63@_NI@Z 000000018017af30 f   GuBucketPruner.obj
 0001:0017a7b0       ?build@CompanionPrunerBucket@@UEAAXXZ 000000018017b7b0 f   GuSecondaryPruner.obj
 0001:0017a7b0       ?commit@BucketPruner@Gu@physx@@UEAAXXZ 000000018017b7b0 f   GuBucketPruner.obj
 0001:0017a7c0       ?findPair@BucketPrunerMap@Gu@physx@@QEBAPEBUBucketPrunerPair@23@AEBUPrunerPayload@23@@Z 000000018017b7c0 f   GuBucketPruner.obj
 0001:0017aba0       ?getGlobalBounds@BucketPruner@Gu@physx@@UEBAXAEAVPxBounds3@3@@Z 000000018017bba0 f   GuBucketPruner.obj
 0001:0017ac10       ?getGlobalBounds@BucketPrunerCore@Gu@physx@@QEBAXAEAVPxBounds3@3@@Z 000000018017bc10 f   GuBucketPruner.obj
 0001:0017ac80       ?getPayloadData@BucketPruner@Gu@physx@@UEBAAEBUPrunerPayload@23@IPEAUPrunerPayloadData@23@@Z 000000018017bc80 f i GuBucketPruner.obj
 0001:0017ace0       ?overlap@BucketPruner@Gu@physx@@UEBA_NAEBVShapeData@23@AEAUPrunerOverlapCallback@23@@Z 000000018017bce0 f   GuBucketPruner.obj
 0001:0017ad00       ?overlap@BucketPrunerCore@Gu@physx@@QEBA_NAEBVShapeData@23@AEAUPrunerOverlapCallback@23@@Z 000000018017bd00 f   GuBucketPruner.obj
 0001:0017afe0       ?preallocate@BucketPruner@Gu@physx@@UEAAXI@Z 000000018017bfe0 f i GuBucketPruner.obj
 0001:0017b1c0       ?purge@BucketPrunerMap@Gu@physx@@QEAAXXZ 000000018017c1c0 f   GuBucketPruner.obj
 0001:0017b250       ?raycast@BucketPruner@Gu@physx@@UEBA_NAEBV?$PxVec3T@M@3@0AEAMAEAUPrunerRaycastCallback@23@@Z 000000018017c250 f   GuBucketPruner.obj
 0001:0017b2a0       ?raycast@BucketPrunerCore@Gu@physx@@QEBA_NAEBV?$PxVec3T@M@3@0AEAMAEAUPrunerRaycastCallback@23@@Z 000000018017c2a0 f   GuBucketPruner.obj
 0001:0017b2e0       ?reallocPairs@BucketPrunerMap@Gu@physx@@QEAAXXZ 000000018017c2e0 f   GuBucketPruner.obj
 0001:0017b520       ?release@BucketPrunerCore@Gu@physx@@QEAAXXZ 000000018017c520 f   GuBucketPruner.obj
 0001:0017b660       ?removeMarkedObjects@BucketPrunerCore@Gu@physx@@QEAAII@Z 000000018017c660 f   GuBucketPruner.obj
 0001:0017ba30       ?removeObject@BucketPrunerCore@Gu@physx@@QEAA_NAEBUPrunerPayload@23@AEAI@Z 000000018017ca30 f   GuBucketPruner.obj
 0001:0017bcf0       ?removeObjects@BucketPruner@Gu@physx@@UEAAXPEBIIPEAUPrunerPayloadRemovalCallback@23@@Z 000000018017ccf0 f   GuBucketPruner.obj
 0001:0017bda0       ?removePair@BucketPrunerMap@Gu@physx@@QEAA_NAEBUPrunerPayload@23@AEAI1@Z 000000018017cda0 f   GuBucketPruner.obj
 0001:0017bf20       ?removePairInternal@BucketPrunerMap@Gu@physx@@QEAAXAEBUPrunerPayload@23@II@Z 000000018017cf20 f   GuBucketPruner.obj
 0001:0017c0b0       ?resizeCore@BucketPrunerCore@Gu@physx@@AEAAXXZ 000000018017d0b0 f   GuBucketPruner.obj
 0001:0017c300       ?setTransform@BucketPruner@Gu@physx@@UEAA_NIAEBV?$PxTransformT@M@3@@Z 000000018017d300 f i GuBucketPruner.obj
 0001:0017c360       ?shiftOrigin@BucketPruner@Gu@physx@@UEAAXAEBV?$PxVec3T@M@3@@Z 000000018017d360 f   GuBucketPruner.obj
 0001:0017c360       ?shiftOrigin@CompanionPrunerBucket@@UEAAXAEBV?$PxVec3T@M@physx@@@Z 000000018017d360 f   GuSecondaryPruner.obj
 0001:0017c370       ?shiftOrigin@BucketPrunerCore@Gu@physx@@QEAAXAEBV?$PxVec3T@M@3@@Z 000000018017d370 f   GuBucketPruner.obj
 0001:0017d1a0       ?sweep@BucketPruner@Gu@physx@@UEBA_NAEBVShapeData@23@AEBV?$PxVec3T@M@3@AEAMAEAUPrunerRaycastCallback@23@@Z 000000018017e1a0 f   GuBucketPruner.obj
 0001:0017d1c0       ?sweep@BucketPrunerCore@Gu@physx@@QEBA_NAEBVShapeData@23@AEBV?$PxVec3T@M@3@AEAMAEAUPrunerRaycastCallback@23@@Z 000000018017e1c0 f   GuBucketPruner.obj
 0001:0017d290       ?updateObject@BucketPrunerCore@Gu@physx@@QEAA_NAEBVPxBounds3@3@AEBUPrunerPayload@23@AEBV?$PxTransformT@M@3@@Z 000000018017e290 f   GuBucketPruner.obj
 0001:0017d2f0       ?updateObjects@BucketPruner@Gu@physx@@UEAAXPEBIIM0PEBVPxBounds3@3@PEBUPxTransformPadded@3@@Z 000000018017e2f0 f   GuBucketPruner.obj
 0001:0017d400       ?visualize@BucketPruner@Gu@physx@@UEBAXAEAVPxRenderOutput@3@II@Z 000000018017e400 f   GuBucketPruner.obj
 0001:0017d400       ?visualize@CompanionPrunerBucket@@UEBAXAEAVPxRenderOutput@physx@@I@Z 000000018017e400 f   GuSecondaryPruner.obj
 0001:0017d410       ?visualize@BucketPrunerCore@Gu@physx@@QEBAXAEAVPxRenderOutput@3@I@Z 000000018017e410 f   GuBucketPruner.obj
 0001:0017d890       ?addObject@MaverickNode@Gu@physx@@QEAA_NAEBUPrunerPayload@23@IAEBVPxBounds3@3@AEBV?$PxTransformT@M@3@I@Z 000000018017e890 f   GuMaverickNode.obj
 0001:0017d970       ?removeMarkedObjects@MaverickNode@Gu@physx@@QEAAII@Z 000000018017e970 f   GuMaverickNode.obj
 0001:0017db00       ?removeObject@MaverickNode@Gu@physx@@QEAA_NIAEAI@Z 000000018017eb00 f   GuMaverickNode.obj
 0001:0017dc90       ?shiftOrigin@MaverickNode@Gu@physx@@QEAAXAEBV?$PxVec3T@M@3@@Z 000000018017ec90 f   GuMaverickNode.obj
 0001:0017dd80       ?updateObject@MaverickNode@Gu@physx@@QEAA_NIAEBVPxBounds3@3@AEBV?$PxTransformT@M@3@@Z 000000018017ed80 f   GuMaverickNode.obj
 0001:0017de60       ??0ExtendedBucketPruner@Gu@physx@@QEAA@_KW4CompanionPrunerType@12@PEBVPruningPool@12@@Z 000000018017ee60 f   GuExtendedBucketPruner.obj
 0001:0017e090       ??1ExtendedBucketPruner@Gu@physx@@QEAA@XZ 000000018017f090 f   GuExtendedBucketPruner.obj
 0001:0017e200       ??R?$AABBTreeOverlap@$00U?$OBBAABBTests@$00@Gu@physx@@VAABBTree@23@UBVHNode@23@U?$MainTreeOverlapPrunerCallback@U?$OBBAABBTests@$00@Gu@physx@@@@@Gu@physx@@QEAA_NAEBVAABBTreeBounds@12@AEBVAABBTree@12@AEBU?$OBBAABBTests@$00@12@AEAU?$MainTreeOverlapPrunerCallback@U?$OBBAABBTests@$00@Gu@physx@@@@@Z 000000018017f200 f i GuExtendedBucketPruner.obj
 0001:0017e7f0       ??R?$AABBTreeOverlap@$00U?$OBBAABBTests@$00@Gu@physx@@VAABBTree@23@UBVHNode@23@UOverlapCallbackAdapter@23@@Gu@physx@@QEAA_NAEBVAABBTreeBounds@12@AEBVAABBTree@12@AEBU?$OBBAABBTests@$00@12@AEAUOverlapCallbackAdapter@12@@Z 000000018017f7f0 f i GuExtendedBucketPruner.obj
 0001:0017edc0       ??R?$AABBTreeOverlap@$00UAABBAABBTest@Gu@physx@@VAABBTree@23@UBVHNode@23@U?$MainTreeOverlapPrunerCallback@UAABBAABBTest@Gu@physx@@@@@Gu@physx@@QEAA_NAEBVAABBTreeBounds@12@AEBVAABBTree@12@AEBUAABBAABBTest@12@AEAU?$MainTreeOverlapPrunerCallback@UAABBAABBTest@Gu@physx@@@@@Z 000000018017fdc0 f i GuExtendedBucketPruner.obj
 0001:0017f080       ??R?$AABBTreeOverlap@$00UAABBAABBTest@Gu@physx@@VAABBTree@23@UBVHNode@23@UOverlapCallbackAdapter@23@@Gu@physx@@QEAA_NAEBVAABBTreeBounds@12@AEBVAABBTree@12@AEBUAABBAABBTest@12@AEAUOverlapCallbackAdapter@12@@Z 0000000180180080 f i GuExtendedBucketPruner.obj
 0001:0017f320       ??R?$AABBTreeOverlap@$00UCapsuleAABBTest@Gu@physx@@VAABBTree@23@UBVHNode@23@U?$MainTreeOverlapPrunerCallback@UCapsuleAABBTest@Gu@physx@@@@@Gu@physx@@QEAA_NAEBVAABBTreeBounds@12@AEBVAABBTree@12@AEBUCapsuleAABBTest@12@AEAU?$MainTreeOverlapPrunerCallback@UCapsuleAABBTest@Gu@physx@@@@@Z 0000000180180320 f i GuExtendedBucketPruner.obj
 0001:0017f6e0       ??R?$AABBTreeOverlap@$00UCapsuleAABBTest@Gu@physx@@VAABBTree@23@UBVHNode@23@UOverlapCallbackAdapter@23@@Gu@physx@@QEAA_NAEBVAABBTreeBounds@12@AEBVAABBTree@12@AEBUCapsuleAABBTest@12@AEAUOverlapCallbackAdapter@12@@Z 00000001801806e0 f i GuExtendedBucketPruner.obj
 0001:0017fa90       ??R?$AABBTreeOverlap@$00USphereAABBTest@Gu@physx@@VAABBTree@23@UBVHNode@23@U?$MainTreeOverlapPrunerCallback@USphereAABBTest@Gu@physx@@@@@Gu@physx@@QEAA_NAEBVAABBTreeBounds@12@AEBVAABBTree@12@AEBUSphereAABBTest@12@AEAU?$MainTreeOverlapPrunerCallback@USphereAABBTest@Gu@physx@@@@@Z 0000000180180a90 f i GuExtendedBucketPruner.obj
 0001:0017fdb0       ??R?$AABBTreeOverlap@$00USphereAABBTest@Gu@physx@@VAABBTree@23@UBVHNode@23@UOverlapCallbackAdapter@23@@Gu@physx@@QEAA_NAEBVAABBTreeBounds@12@AEBVAABBTree@12@AEBUSphereAABBTest@12@AEAUOverlapCallbackAdapter@12@@Z 0000000180180db0 f i GuExtendedBucketPruner.obj
 0001:001800b0       ??R?$AABBTreeRaycast@$00$00VAABBTree@Gu@physx@@UBVHNode@23@U?$MainTreeRaycastPrunerCallback@$00@@@Gu@physx@@QEAA_NAEBVAABBTreeBounds@12@AEBVAABBTree@12@AEBV?$PxVec3T@M@2@2AEAM2AEAU?$MainTreeRaycastPrunerCallback@$00@@@Z 00000001801810b0 f i GuExtendedBucketPruner.obj
 0001:001807e0       ??R?$AABBTreeRaycast@$00$00VAABBTree@Gu@physx@@UBVHNode@23@URaycastCallbackAdapter@23@@Gu@physx@@QEAA_NAEBVAABBTreeBounds@12@AEBVAABBTree@12@AEBV?$PxVec3T@M@2@2AEAM2AEAURaycastCallbackAdapter@12@@Z 00000001801817e0 f i GuExtendedBucketPruner.obj
 0001:00180ed0       ??R?$AABBTreeRaycast@$0A@$00VAABBTree@Gu@physx@@UBVHNode@23@U?$MainTreeRaycastPrunerCallback@$0A@@@@Gu@physx@@QEAA_NAEBVAABBTreeBounds@12@AEBVAABBTree@12@AEBV?$PxVec3T@M@2@2AEAM2AEAU?$MainTreeRaycastPrunerCallback@$0A@@@@Z 0000000180181ed0 f i GuExtendedBucketPruner.obj
 0001:001815a0       ??R?$AABBTreeRaycast@$0A@$00VAABBTree@Gu@physx@@UBVHNode@23@URaycastCallbackAdapter@23@@Gu@physx@@QEAA_NAEBVAABBTreeBounds@12@AEBVAABBTree@12@AEBV?$PxVec3T@M@2@2AEAM2AEAURaycastCallbackAdapter@12@@Z 00000001801825a0 f i GuExtendedBucketPruner.obj
 0001:00181c30       ?addTree@ExtendedBucketPruner@Gu@physx@@QEAAXAEBVAABBTreeMergeData@23@I@Z 0000000180182c30 f   GuExtendedBucketPruner.obj
 0001:00181f10       ?buildMainAABBTree@ExtendedBucketPruner@Gu@physx@@AEAAXXZ 0000000180182f10 f   GuExtendedBucketPruner.obj
 0001:00181fc0       ?create@?$PxHashBase@V?$PxPair@$$CBUPrunerPayload@Gu@physx@@UExtendedBucketPrunerData@23@@physx@@UPrunerPayload@Gu@2@UExtendedBucketPrunerHash@42@UGetKey@?$PxHashMapBase@UPrunerPayload@Gu@physx@@UExtendedBucketPrunerData@23@UExtendedBucketPrunerHash@23@VPxAllocator@3@@2@VPxAllocator@2@$00@physx@@QEAAPEAV?$PxPair@$$CBUPrunerPayload@Gu@physx@@UExtendedBucketPrunerData@23@@2@AEBUPrunerPayload@Gu@2@AEA_N@Z 0000000180182fc0 f i GuExtendedBucketPruner.obj
 0001:00182190       ?eraseInternal@?$PxHashBase@V?$PxPair@$$CBUPrunerPayload@Gu@physx@@UExtendedBucketPrunerData@23@@physx@@UPrunerPayload@Gu@2@UExtendedBucketPrunerHash@42@UGetKey@?$PxHashMapBase@UPrunerPayload@Gu@physx@@UExtendedBucketPrunerData@23@UExtendedBucketPrunerHash@23@VPxAllocator@3@@2@VPxAllocator@2@$00@physx@@AEAA_NPEAI@Z 0000000180183190 f i GuExtendedBucketPruner.obj
 0001:001822b0       ?find@?$PxHashMapBase@UPrunerPayload@Gu@physx@@UExtendedBucketPrunerData@23@UExtendedBucketPrunerHash@23@VPxAllocator@3@@physx@@QEBAPEBV?$PxPair@$$CBUPrunerPayload@Gu@physx@@UExtendedBucketPrunerData@23@@2@AEBUPrunerPayload@Gu@2@@Z 00000001801832b0 f i GuExtendedBucketPruner.obj
 0001:001823a0       ?getGlobalBounds@ExtendedBucketPruner@Gu@physx@@QEBAXAEAVPxBounds3@3@@Z 00000001801833a0 f   GuExtendedBucketPruner.obj
 0001:00182470       ?invalidateObject@ExtendedBucketPruner@Gu@physx@@AEAAXAEBUExtendedBucketPrunerData@23@IAEBUPrunerPayload@23@I@Z 0000000180183470 f   GuExtendedBucketPruner.obj
 0001:001825b0       ?overlap@ExtendedBucketPruner@Gu@physx@@QEBA_NAEBVShapeData@23@AEAUPrunerOverlapCallback@23@@Z 00000001801835b0 f   GuExtendedBucketPruner.obj
 0001:00182d80       ?raycast@ExtendedBucketPruner@Gu@physx@@QEBA_NAEBV?$PxVec3T@M@3@0AEAMAEAUPrunerRaycastCallback@23@@Z 0000000180183d80 f   GuExtendedBucketPruner.obj
 0001:00182e60       ?refitMarkedNodes@ExtendedBucketPruner@Gu@physx@@QEAAXPEBVPxBounds3@3@@Z 0000000180183e60 f   GuExtendedBucketPruner.obj
 0001:001833e0       ?release@ExtendedBucketPruner@Gu@physx@@QEAAXXZ 00000001801843e0 f   GuExtendedBucketPruner.obj
 0001:001834b0       ?removeMarkedObjects@ExtendedBucketPruner@Gu@physx@@QEAAII@Z 00000001801844b0 f   GuExtendedBucketPruner.obj
 0001:001837d0       ?removeObject@ExtendedBucketPruner@Gu@physx@@QEAA_NAEBUPrunerPayload@23@II0I@Z 00000001801847d0 f   GuExtendedBucketPruner.obj
 0001:001839c0       ?reserveInternal@?$PxHashBase@V?$PxPair@$$CBUPrunerPayload@Gu@physx@@UExtendedBucketPrunerData@23@@physx@@UPrunerPayload@Gu@2@UExtendedBucketPrunerHash@42@UGetKey@?$PxHashMapBase@UPrunerPayload@Gu@physx@@UExtendedBucketPrunerData@23@UExtendedBucketPrunerHash@23@VPxAllocator@3@@2@VPxAllocator@2@$00@physx@@AEAAXI@Z 00000001801849c0 f i GuExtendedBucketPruner.obj
 0001:00183bc0       ?shiftOrigin@ExtendedBucketPruner@Gu@physx@@QEAAXAEBV?$PxVec3T@M@3@@Z 0000000180184bc0 f   GuExtendedBucketPruner.obj
 0001:00183c40       ?swapIndex@ExtendedBucketPruner@Gu@physx@@QEAAXIAEBUPrunerPayload@23@I_N@Z 0000000180184c40 f   GuExtendedBucketPruner.obj
 0001:00183d10       ?sweep@ExtendedBucketPruner@Gu@physx@@QEBA_NAEBVShapeData@23@AEBV?$PxVec3T@M@3@AEAMAEAUPrunerRaycastCallback@23@@Z 0000000180184d10 f   GuExtendedBucketPruner.obj
 0001:00183ea0       ?updateObject@ExtendedBucketPruner@Gu@physx@@QEAA_NAEBVPxBounds3@3@AEBV?$PxTransformT@M@3@AEBUPrunerPayload@23@II@Z 0000000180184ea0 f   GuExtendedBucketPruner.obj
 0001:00183f70       ?visualize@ExtendedBucketPruner@Gu@physx@@QEBAXAEAVPxRenderOutput@3@I@Z 0000000180184f70 f   GuExtendedBucketPruner.obj
 0001:00184000       ??0?$OBBAABBTests@$00@Gu@physx@@QEAA@AEBV?$PxVec3T@M@2@AEBV?$PxMat33T@M@2@0@Z 0000000180185000 f i GuSecondaryPruner.obj
 0001:00185fc0       ??_ECompanionPruner@Gu@physx@@UEAAPEAXI@Z 0000000180186fc0 f i GuSecondaryPruner.obj
 0001:00185fc0       ??_GCompanionPruner@Gu@physx@@UEAAPEAXI@Z 0000000180186fc0 f i GuSecondaryPruner.obj
 0001:00186010       ??_ECompanionPrunerAABBTree@@UEAAPEAXI@Z 0000000180187010 f i GuSecondaryPruner.obj
 0001:00186010       ??_GCompanionPrunerAABBTree@@UEAAPEAXI@Z 0000000180187010 f i GuSecondaryPruner.obj
 0001:001860c0       ??_ECompanionPrunerBucket@@UEAAPEAXI@Z 00000001801870c0 f i GuSecondaryPruner.obj
 0001:001860c0       ??_GCompanionPrunerBucket@@UEAAPEAXI@Z 00000001801870c0 f i GuSecondaryPruner.obj
 0001:00186140       ??_ECompanionPrunerIncremental@@UEAAPEAXI@Z 0000000180187140 f i GuSecondaryPruner.obj
 0001:00186140       ??_GCompanionPrunerIncremental@@UEAAPEAXI@Z 0000000180187140 f i GuSecondaryPruner.obj
 0001:001861c0       ?addObject@CompanionPrunerAABBTree@@UEAA_NAEBUPrunerPayload@Gu@physx@@IAEBVPxBounds3@4@AEBV?$PxTransformT@M@4@II@Z 00000001801871c0 f   GuSecondaryPruner.obj
 0001:00186400       ?addObject@CompanionPrunerBucket@@UEAA_NAEBUPrunerPayload@Gu@physx@@IAEBVPxBounds3@4@AEBV?$PxTransformT@M@4@II@Z 0000000180187400 f i GuSecondaryPruner.obj
 0001:00186420       ?addObject@CompanionPrunerIncremental@@UEAA_NAEBUPrunerPayload@Gu@physx@@IAEBVPxBounds3@4@AEBV?$PxTransformT@M@4@II@Z 0000000180187420 f i GuSecondaryPruner.obj
 0001:00186440       ?addObjectInternal@CompanionPrunerAABBTree@@QEAA_NII@Z 0000000180187440 f   GuSecondaryPruner.obj
 0001:001865e0       ?build@CompanionPrunerAABBTree@@UEAAXXZ 00000001801875e0 f   GuSecondaryPruner.obj
 0001:00186ab0       ?createCompanionPruner@Gu@physx@@YAPEAVCompanionPruner@12@_KW4CompanionPrunerType@12@PEBVPruningPool@12@@Z 0000000180187ab0 f   GuSecondaryPruner.obj
 0001:00186cb0       ?getGlobalBounds@CompanionPrunerAABBTree@@UEBAXAEAVPxBounds3@physx@@@Z 0000000180187cb0 f   GuSecondaryPruner.obj
 0001:00186da0       ?getGlobalBounds@CompanionPrunerBucket@@UEBAXAEAVPxBounds3@physx@@@Z 0000000180187da0 f i GuSecondaryPruner.obj
 0001:00186db0       ?getGlobalBounds@CompanionPrunerIncremental@@UEBAXAEAVPxBounds3@physx@@@Z 0000000180187db0 f i GuSecondaryPruner.obj
 0001:00186dc0       ?getNbObjects@CompanionPrunerAABBTree@@UEBAIXZ 0000000180187dc0 f   GuSecondaryPruner.obj
 0001:00186dd0       ?getNbObjects@CompanionPrunerBucket@@UEBAIXZ 0000000180187dd0 f i GuSecondaryPruner.obj
 0001:00186de0       ?getNbObjects@CompanionPrunerIncremental@@UEBAIXZ 0000000180187de0 f i GuSecondaryPruner.obj
 0001:00186df0       ?growAndPushBack@?$PxArray@ULocalData@CompanionPrunerAABBTree@@V?$PxReflectionAllocator@ULocalData@CompanionPrunerAABBTree@@@physx@@@physx@@IEAAAEAULocalData@CompanionPrunerAABBTree@@AEBU34@@Z 0000000180187df0 f i GuSecondaryPruner.obj
 0001:00186f20       ?overlap@CompanionPrunerAABBTree@@UEBA_NAEBVShapeData@Gu@physx@@AEAUPrunerOverlapCallback@34@@Z 0000000180187f20 f   GuSecondaryPruner.obj
 0001:00187ea0       ?overlap@CompanionPrunerBucket@@UEBA_NAEBVShapeData@Gu@physx@@AEAUPrunerOverlapCallback@34@@Z 0000000180188ea0 f i GuSecondaryPruner.obj
 0001:00187ec0       ?overlap@CompanionPrunerIncremental@@UEBA_NAEBVShapeData@Gu@physx@@AEAUPrunerOverlapCallback@34@@Z 0000000180188ec0 f i GuSecondaryPruner.obj
 0001:00187ee0       ?raycast@CompanionPrunerAABBTree@@UEBA_NAEBV?$PxVec3T@M@physx@@0AEAMAEAUPrunerRaycastCallback@Gu@3@@Z 0000000180188ee0 f   GuSecondaryPruner.obj
 0001:001882c0       ?raycast@CompanionPrunerBucket@@UEBA_NAEBV?$PxVec3T@M@physx@@0AEAMAEAUPrunerRaycastCallback@Gu@3@@Z 00000001801892c0 f i GuSecondaryPruner.obj
 0001:001882e0       ?raycast@CompanionPrunerIncremental@@UEBA_NAEBV?$PxVec3T@M@physx@@0AEAMAEAUPrunerRaycastCallback@Gu@3@@Z 00000001801892e0 f i GuSecondaryPruner.obj
 0001:00188300       ?release@CompanionPrunerAABBTree@@UEAAXXZ 0000000180189300 f   GuSecondaryPruner.obj
 0001:00188310       ?release@CompanionPrunerBucket@@UEAAXXZ 0000000180189310 f i GuSecondaryPruner.obj
 0001:00188320       ?release@CompanionPrunerIncremental@@UEAAXXZ 0000000180189320 f i GuSecondaryPruner.obj
 0001:00188330       ?releaseInternal@CompanionPrunerAABBTree@@QEAAXXZ 0000000180189330 f   GuSecondaryPruner.obj
 0001:001883b0       ?removeMarkedObjects@CompanionPrunerAABBTree@@UEAAII@Z 00000001801893b0 f   GuSecondaryPruner.obj
 0001:001883d0       ?removeMarkedObjects@CompanionPrunerBucket@@UEAAII@Z 00000001801893d0 f i GuSecondaryPruner.obj
 0001:001883e0       ?removeMarkedObjects@CompanionPrunerIncremental@@UEAAII@Z 00000001801893e0 f i GuSecondaryPruner.obj
 0001:001883f0       ?removeObject@CompanionPrunerAABBTree@@UEAA_NAEBUPrunerPayload@Gu@physx@@III@Z 00000001801893f0 f   GuSecondaryPruner.obj
 0001:00188490       ?removeObject@CompanionPrunerBucket@@UEAA_NAEBUPrunerPayload@Gu@physx@@III@Z 0000000180189490 f i GuSecondaryPruner.obj
 0001:001884b0       ?removeObject@CompanionPrunerIncremental@@UEAA_NAEBUPrunerPayload@Gu@physx@@III@Z 00000001801894b0 f i GuSecondaryPruner.obj
 0001:001884d0       ?shiftOrigin@CompanionPrunerAABBTree@@UEAAXAEBV?$PxVec3T@M@physx@@@Z 00000001801894d0 f   GuSecondaryPruner.obj
 0001:00188600       ?shiftOrigin@CompanionPrunerIncremental@@UEAAXAEBV?$PxVec3T@M@physx@@@Z 0000000180189600 f i GuSecondaryPruner.obj
 0001:00188610       ?swapIndex@CompanionPrunerIncremental@@UEAAXII@Z 0000000180189610 f i GuSecondaryPruner.obj
 0001:00188620       ?sweep@CompanionPrunerAABBTree@@UEBA_NAEBVShapeData@Gu@physx@@AEBV?$PxVec3T@M@4@AEAMAEAUPrunerRaycastCallback@34@@Z 0000000180189620 f   GuSecondaryPruner.obj
 0001:00188b50       ?sweep@CompanionPrunerBucket@@UEBA_NAEBVShapeData@Gu@physx@@AEBV?$PxVec3T@M@4@AEAMAEAUPrunerRaycastCallback@34@@Z 0000000180189b50 f i GuSecondaryPruner.obj
 0001:00188b70       ?sweep@CompanionPrunerIncremental@@UEBA_NAEBVShapeData@Gu@physx@@AEBV?$PxVec3T@M@4@AEAMAEAUPrunerRaycastCallback@34@@Z 0000000180189b70 f i GuSecondaryPruner.obj
 0001:00188b90       ?timeStampChange@CompanionPrunerIncremental@@UEAAXXZ 0000000180189b90 f i GuSecondaryPruner.obj
 0001:00188bb0       ?updateObject@CompanionPrunerAABBTree@@UEAA_NAEBUPrunerPayload@Gu@physx@@IAEBVPxBounds3@4@AEBV?$PxTransformT@M@4@I@Z 0000000180189bb0 f   GuSecondaryPruner.obj
 0001:00188c30       ?updateObject@CompanionPrunerBucket@@UEAA_NAEBUPrunerPayload@Gu@physx@@IAEBVPxBounds3@4@AEBV?$PxTransformT@M@4@I@Z 0000000180189c30 f i GuSecondaryPruner.obj
 0001:00188c50       ?updateObject@CompanionPrunerIncremental@@UEAA_NAEBUPrunerPayload@Gu@physx@@IAEBVPxBounds3@4@AEBV?$PxTransformT@M@4@I@Z 0000000180189c50 f i GuSecondaryPruner.obj
 0001:00188c60       ?visualize@CompanionPrunerAABBTree@@UEBAXAEAVPxRenderOutput@physx@@I@Z 0000000180189c60 f   GuSecondaryPruner.obj
 0001:00188c80       ?visualize@CompanionPrunerIncremental@@UEBAXAEAVPxRenderOutput@physx@@I@Z 0000000180189c80 f i GuSecondaryPruner.obj
 0001:00188c90       ??0AABBPruner@Gu@physx@@QEAA@_N_KW4CompanionPrunerType@12@W4BVHBuildStrategy@12@I@Z 0000000180189c90 f   GuAABBPruner.obj
 0001:00188dc0       ??1AABBPruner@Gu@physx@@UEAA@XZ 0000000180189dc0 f   GuAABBPruner.obj
 0001:00188f20       ??_EAABBPruner@Gu@physx@@UEAAPEAXI@Z 0000000180189f20 f i GuAABBPruner.obj
 0001:00188f20       ??_GAABBPruner@Gu@physx@@UEAAPEAXI@Z 0000000180189f20 f i GuAABBPruner.obj
 0001:00188f90       ?addObjects@AABBPruner@Gu@physx@@UEAA_NPEAIPEBVPxBounds3@3@PEBUPrunerPayload@23@PEBV?$PxTransformT@M@3@I_N@Z 0000000180189f90 f   GuAABBPruner.obj
 0001:00189260       ?buildStep@AABBPruner@Gu@physx@@UEAA_N_N@Z 000000018018a260 f   GuAABBPruner.obj
 0001:00189650       ?commit@AABBPruner@Gu@physx@@UEAAXXZ 000000018018a650 f   GuAABBPruner.obj
 0001:00189d50       ?fullRebuildAABBTree@AABBPruner@Gu@physx@@QEAA_NXZ 000000018018ad50 f   GuAABBPruner.obj
 0001:00189f50       ?getGlobalBounds@AABBPruner@Gu@physx@@UEBAXAEAVPxBounds3@3@@Z 000000018018af50 f   GuAABBPruner.obj
 0001:0018a090       ?getPayloadData@AABBPruner@Gu@physx@@UEBAAEBUPrunerPayload@23@IPEAUPrunerPayloadData@23@@Z 000000018018b090 f i GuAABBPruner.obj
 0001:0018a0f0       ?growAndPushBack@?$PxArray@UNewTreeFixup@AABBPruner@Gu@physx@@V?$PxReflectionAllocator@UNewTreeFixup@AABBPruner@Gu@physx@@@4@@physx@@IEAAAEAUNewTreeFixup@AABBPruner@Gu@2@AEBU3452@@Z 000000018018b0f0 f i GuAABBPruner.obj
 0001:0018a220       ?isDynamic@AABBPruner@Gu@physx@@UEBA_NXZ 000000018018b220 f i GuAABBPruner.obj
 0001:0018a230       ?merge@AABBPruner@Gu@physx@@UEAAXPEBX@Z 000000018018b230 f   GuAABBPruner.obj
 0001:0018a2b0       ?overlap@AABBPruner@Gu@physx@@UEBA_NAEBVShapeData@23@AEAUPrunerOverlapCallback@23@@Z 000000018018b2b0 f   GuAABBPruner.obj
 0001:0018a880       ?preallocate@AABBPruner@Gu@physx@@UEAAXI@Z 000000018018b880 f i GuAABBPruner.obj
 0001:0018a890       ?prepareBuild@AABBPruner@Gu@physx@@UEAA_NXZ 000000018018b890 f   GuAABBPruner.obj
 0001:0018aa90       ?purge@AABBPruner@Gu@physx@@UEAAXXZ 000000018018ba90 f   GuAABBPruner.obj
 0001:0018aab0       ?raycast@AABBPruner@Gu@physx@@UEBA_NAEBV?$PxVec3T@M@3@0AEAMAEAUPrunerRaycastCallback@23@@Z 000000018018bab0 f   GuAABBPruner.obj
 0001:0018aba0       ?refitUpdatedAndRemoved@AABBPruner@Gu@physx@@QEAAXXZ 000000018018bba0 f   GuAABBPruner.obj
 0001:0018ac70       ?release@AABBPruner@Gu@physx@@QEAAXXZ 000000018018bc70 f   GuAABBPruner.obj
 0001:0018ada0       ?removeObjects@AABBPruner@Gu@physx@@UEAAXPEBIIPEAUPrunerPayloadRemovalCallback@23@@Z 000000018018bda0 f   GuAABBPruner.obj
 0001:0018b070       ?setRebuildRateHint@AABBPruner@Gu@physx@@UEAAXI@Z 000000018018c070 f   GuAABBPruner.obj
 0001:0018b090       ?setTransform@AABBPruner@Gu@physx@@UEAA_NIAEBV?$PxTransformT@M@3@@Z 000000018018c090 f i GuAABBPruner.obj
 0001:0018b0f0       ?shiftOrigin@AABBPruner@Gu@physx@@UEAAXAEBV?$PxVec3T@M@3@@Z 000000018018c0f0 f   GuAABBPruner.obj
 0001:0018b160       ?sweep@AABBPruner@Gu@physx@@UEBA_NAEBVShapeData@23@AEBV?$PxVec3T@M@3@AEAMAEAUPrunerRaycastCallback@23@@Z 000000018018c160 f   GuAABBPruner.obj
 0001:0018b2f0       ?updateObjects@AABBPruner@Gu@physx@@UEAAXPEBIIM0PEBVPxBounds3@3@PEBUPxTransformPadded@3@@Z 000000018018c2f0 f   GuAABBPruner.obj
 0001:0018b590       ?visualize@AABBPruner@Gu@physx@@UEBAXAEAVPxRenderOutput@3@II@Z 000000018018c590 f   GuAABBPruner.obj
 0001:0018b640       ??0ActorShapeMap@Gu@physx@@QEAA@XZ 000000018018c640 f   GuActorShapeMap.obj
 0001:0018b6a0       ??1ActorShapeMap@Gu@physx@@QEAA@XZ 000000018018c6a0 f   GuActorShapeMap.obj
 0001:0018b700       ?add@ActorShapeMap@Gu@physx@@QEAA_NIPEBX0_K@Z 000000018018c700 f   GuActorShapeMap.obj
 0001:0018b8a0       ?create@?$PxHashBase@V?$PxPair@$$CBUActorShape@ActorShapeMap@Gu@physx@@_K@physx@@UActorShape@ActorShapeMap@Gu@2@U?$PxHash@UActorShape@ActorShapeMap@Gu@physx@@@2@UGetKey@?$PxHashMapBase@UActorShape@ActorShapeMap@Gu@physx@@_KU?$PxHash@UActorShape@ActorShapeMap@Gu@physx@@@4@VPxAllocator@4@@2@VPxAllocator@2@$00@physx@@QEAAPEAV?$PxPair@$$CBUActorShape@ActorShapeMap@Gu@physx@@_K@2@AEBUActorShape@ActorShapeMap@Gu@2@AEA_N@Z 000000018018c8a0 f i GuActorShapeMap.obj
 0001:0018ba90       ?eraseInternal@?$PxHashBase@V?$PxPair@$$CBUActorShape@ActorShapeMap@Gu@physx@@_K@physx@@UActorShape@ActorShapeMap@Gu@2@U?$PxHash@UActorShape@ActorShapeMap@Gu@physx@@@2@UGetKey@?$PxHashMapBase@UActorShape@ActorShapeMap@Gu@physx@@_KU?$PxHash@UActorShape@ActorShapeMap@Gu@physx@@@4@VPxAllocator@4@@2@VPxAllocator@2@$00@physx@@AEAA_NPEAI@Z 000000018018ca90 f i GuActorShapeMap.obj
 0001:0018bba0       ?find@ActorShapeMap@Gu@physx@@QEBA_KIPEBX0@Z 000000018018cba0 f   GuActorShapeMap.obj
 0001:0018bc90       ?remove@ActorShapeMap@Gu@physx@@QEAA_NIPEBX0PEA_K@Z 000000018018cc90 f   GuActorShapeMap.obj
 0001:0018bde0       ?reserveInternal@?$PxHashBase@V?$PxPair@$$CBUActorShape@ActorShapeMap@Gu@physx@@_K@physx@@UActorShape@ActorShapeMap@Gu@2@U?$PxHash@UActorShape@ActorShapeMap@Gu@physx@@@2@UGetKey@?$PxHashMapBase@UActorShape@ActorShapeMap@Gu@physx@@_KU?$PxHash@UActorShape@ActorShapeMap@Gu@physx@@@4@VPxAllocator@4@@2@VPxAllocator@2@$00@physx@@AEAAXI@Z 000000018018cde0 f i GuActorShapeMap.obj
 0001:0018bff0       ??0QuerySystem@Gu@physx@@QEAA@_KMAEBVAdapter@12@_N@Z 000000018018cff0 f   GuQuerySystem.obj
 0001:0018c0c0       ??1QuerySystem@Gu@physx@@QEAA@XZ 000000018018d0c0 f   GuQuerySystem.obj
 0001:0018c310       ??_GPrunerExt@QuerySystem@Gu@physx@@QEAAPEAXI@Z 000000018018d310 f i GuQuerySystem.obj
 0001:0018c420       ?addPruner@QuerySystem@Gu@physx@@QEAAIPEAVPruner@23@I@Z 000000018018d420 f   GuQuerySystem.obj
 0001:0018c540       ?addPrunerShape@QuerySystem@Gu@physx@@QEAA_KAEBUPrunerPayload@23@I_NAEBV?$PxTransformT@M@3@PEBVPxBounds3@3@@Z 000000018018d540 f   GuQuerySystem.obj
 0001:0018c680       ?addToDirtyList@PrunerExt@QuerySystem@Gu@physx@@QEAAXIIAEBV?$PxTransformT@M@4@PEBVPxBounds3@4@@Z 000000018018d680 f   GuQuerySystem.obj
 0001:0018c8d0       ?commitUpdates@QuerySystem@Gu@physx@@QEAAXXZ 000000018018d8d0 f   GuQuerySystem.obj
 0001:0018c9e0       ?createTreeOfPruners@QuerySystem@Gu@physx@@QEAAXXZ 000000018018d9e0 f   GuQuerySystem.obj
 0001:0018cbb0       ?flushMemory@QuerySystem@Gu@physx@@QEAAXXZ 000000018018dbb0 f   GuQuerySystem.obj
 0001:0018cc40       ?getPayloadData@QuerySystem@Gu@physx@@QEBAAEBUPrunerPayload@23@_KPEAUPrunerPayloadData@23@@Z 000000018018dc40 f   GuQuerySystem.obj
 0001:0018cc60       ?growAndPushBack@?$PxArray@PEAUPrunerExt@QuerySystem@Gu@physx@@V?$PxReflectionAllocator@PEAUPrunerExt@QuerySystem@Gu@physx@@@4@@physx@@IEAAAEAPEAUPrunerExt@QuerySystem@Gu@2@AEBQEAU3452@@Z 000000018018dc60 f i GuQuerySystem.obj
 0001:0018cd90       ?overlap@QuerySystem@Gu@physx@@QEBAXAEBVShapeData@23@AEAUPrunerOverlapCallback@23@PEBVPrunerFilter@23@@Z 000000018018dd90 f   GuQuerySystem.obj
 0001:0018ce90       ?processDirtyList@PrunerExt@QuerySystem@Gu@physx@@QEAA_NAEBVAdapter@34@M@Z 000000018018de90 f   GuQuerySystem.obj
 0001:0018d0d0       ?processDirtyLists@QuerySystem@Gu@physx@@AEAAXXZ 000000018018e0d0 f   GuQuerySystem.obj
 0001:0018d230       ?raycast@QuerySystem@Gu@physx@@QEBAXAEBV?$PxVec3T@M@3@0AEAMAEAUPrunerRaycastCallback@23@PEBVPrunerFilter@23@@Z 000000018018e230 f   GuQuerySystem.obj
 0001:0018d370       ?recreate@?$PxArray@UData@PrunerExt@QuerySystem@Gu@physx@@V?$PxReflectionAllocator@UData@PrunerExt@QuerySystem@Gu@physx@@@5@@physx@@IEAAXI@Z 000000018018e370 f i GuQuerySystem.obj
 0001:0018d670       ?removePruner@QuerySystem@Gu@physx@@QEAAXI@Z 000000018018e670 f   GuQuerySystem.obj
 0001:0018d750       ?removePrunerShape@QuerySystem@Gu@physx@@QEAAX_KPEAUPrunerPayloadRemovalCallback@23@@Z 000000018018e750 f   GuQuerySystem.obj
 0001:0018d980       ?sweep@QuerySystem@Gu@physx@@QEBAXAEBVShapeData@23@AEBV?$PxVec3T@M@3@AEAMAEAUPrunerRaycastCallback@23@PEBVPrunerFilter@23@@Z 000000018018e980 f   GuQuerySystem.obj
 0001:0018dab0       ?sync@QuerySystem@Gu@physx@@QEAAXIPEBI0PEBVPxBounds3@3@PEBUPxTransformPadded@3@I@Z 000000018018eab0 f   GuQuerySystem.obj
 0001:0018db60       ?update@QuerySystem@Gu@physx@@QEAAX_N0@Z 000000018018eb60 f   GuQuerySystem.obj
 0001:0018dcd0       ?updatePrunerShape@QuerySystem@Gu@physx@@QEAAX_K_NAEBV?$PxTransformT@M@3@PEBVPxBounds3@3@@Z 000000018018ecd0 f   GuQuerySystem.obj
 0001:0018dec0       createAABBPruner           000000018018eec0 f   GuFactory.obj
 0001:0018df80       createBucketPruner         000000018018ef80 f   GuFactory.obj
 0001:0018e010       createIncrementalPruner    000000018018f010 f   GuFactory.obj
 0001:0018e0a0       ??$PxSmallSort@I$$CBUSortBoundsPredicate@physx@@@physx@@YAXPEAIHHAEBUSortBoundsPredicate@0@@Z 000000018018f0a0 f i GuRTreeCooking.obj
 0001:0018e340       ??$PxSort@IU?$PxLess@I@physx@@V?$PxReflectionAllocator@I@2@@physx@@YAXPEAIIAEBU?$PxLess@I@0@AEBV?$PxReflectionAllocator@I@0@I@Z 000000018018f340 f i GuRTreeCooking.obj
 0001:0018e790       ??$PxSort@IUSortBoundsPredicate@physx@@V?$PxReflectionAllocator@I@2@@physx@@YAXPEAIIAEBUSortBoundsPredicate@0@AEBV?$PxReflectionAllocator@I@0@I@Z 000000018018f790 f i GuRTreeCooking.obj
 0001:0018ec40       ??$quickSelectFirstK@UBoundsLTE@physx@@@quickSelect@physx@@YAXPEIAIIIIAEBUBoundsLTE@1@@Z 000000018018fc40 f i GuRTreeCooking.obj
 0001:0018ee20       ?allocate@?$PxArray@UInterval@physx@@V?$PxInlineAllocator@$0CAAA@V?$PxReflectionAllocator@UInterval@physx@@@physx@@@2@@physx@@IEAAPEAUInterval@2@I@Z 000000018018fe20 f i GuRTreeCooking.obj
 0001:0018eee0       ?allocate@?$PxArray@UPxBounds3V@physx@@V?$PxReflectionAllocator@UPxBounds3V@physx@@@2@@physx@@IEAAPEAUPxBounds3V@2@I@Z 000000018018fee0 f i GuRTreeCooking.obj
 0001:0018ef90       ?allocate@?$PxArray@URTreeNodeNQ@physx@@V?$PxReflectionAllocator@URTreeNodeNQ@physx@@@2@@physx@@IEAAPEAURTreeNodeNQ@2@I@Z 000000018018ff90 f i GuRTreeCooking.obj
 0001:0018f040       ?allocate@?$PxArray@URTreeNodeQ@Gu@physx@@V?$PxReflectionAllocator@URTreeNodeQ@Gu@physx@@@3@@physx@@IEAAPEAURTreeNodeQ@Gu@2@I@Z 0000000180190040 f i GuRTreeCooking.obj
 0001:0018fd80       ?buildFromTriangles@RTreeCooker@physx@@SAXAEAURTree@Gu@2@PEBV?$PxVec3T@M@2@IPEBGPEBIIAEAV?$PxArray@IV?$PxReflectionAllocator@I@physx@@@2@PEAURemapCallback@12@MW4Enum@PxMeshCookingHint@2@@Z 0000000180190d80 f   GuRTreeCooking.obj
 0001:00190040       ?copy@?$PxArray@URTreeNodeNQ@physx@@V?$PxReflectionAllocator@URTreeNodeNQ@physx@@@2@@physx@@KAXPEAURTreeNodeNQ@2@0PEBU32@@Z 0000000180191040 f i GuRTreeCooking.obj
 0001:00190200       ?growAndPushBack@?$PxArray@UInterval@physx@@V?$PxInlineAllocator@$0CAAA@V?$PxReflectionAllocator@UInterval@physx@@@physx@@@2@@physx@@IEAAAEAUInterval@2@AEBU32@@Z 0000000180191200 f i GuRTreeCooking.obj
 0001:001902e0       ?growAndPushBack@?$PxArray@UPxBounds3V@physx@@V?$PxReflectionAllocator@UPxBounds3V@physx@@@2@@physx@@IEAAAEAUPxBounds3V@2@AEBU32@@Z 00000001801912e0 f i GuRTreeCooking.obj
 0001:001903c0       ?growAndPushBack@?$PxArray@URTreeNodeNQ@physx@@V?$PxReflectionAllocator@URTreeNodeNQ@physx@@@2@@physx@@IEAAAEAURTreeNodeNQ@2@AEBU32@@Z 00000001801913c0 f i GuRTreeCooking.obj
 0001:001904a0       ?growAndPushBack@?$PxArray@URTreeNodeQ@Gu@physx@@V?$PxReflectionAllocator@URTreeNodeQ@Gu@physx@@@3@@physx@@IEAAAEAURTreeNodeQ@Gu@2@AEBU342@@Z 00000001801914a0 f i GuRTreeCooking.obj
 0001:00190590       ?recreate@?$PxArray@UPxBounds3V@physx@@V?$PxReflectionAllocator@UPxBounds3V@physx@@@2@@physx@@IEAAXI@Z 0000000180191590 f i GuRTreeCooking.obj
 0001:00190640       ?recreate@?$PxArray@URTreeNodeNQ@physx@@V?$PxReflectionAllocator@URTreeNodeNQ@physx@@@2@@physx@@IEAAXI@Z 0000000180191640 f i GuRTreeCooking.obj
 0001:001906d0       ?recreate@?$PxArray@URTreeNodeQ@Gu@physx@@V?$PxReflectionAllocator@URTreeNodeQ@Gu@physx@@@3@@physx@@IEAAXI@Z 00000001801916d0 f i GuRTreeCooking.obj
 0001:00190790       ?resizeUninitialized@?$PxArray@URTreeNodeNQ@physx@@V?$PxReflectionAllocator@URTreeNodeNQ@physx@@@2@@physx@@QEAAXI@Z 0000000180191790 f i GuRTreeCooking.obj
 0001:001907d0       ?sort4@SubSortQuick@physx@@QEAAXPEIAIIAEAV?$PxArray@URTreeNodeNQ@physx@@V?$PxReflectionAllocator@URTreeNodeNQ@physx@@@2@@2@AEAIAEAUPxBounds3V@2@I@Z 00000001801917d0 f i GuRTreeCooking.obj
 0001:00190b60       ?sort4@SubSortSAH@physx@@QEAAXPEAIIAEAV?$PxArray@URTreeNodeNQ@physx@@V?$PxReflectionAllocator@URTreeNodeNQ@physx@@@2@@2@AEAIIPEAURTreeNodeNQ@2@@Z 0000000180191b60 f i GuRTreeCooking.obj
 0001:00191480       ?split@SubSortSAH@physx@@QEAAIPEAII@Z 0000000180192480 f i GuRTreeCooking.obj
 0001:00191ed0       cookBVH                    0000000180192ed0 f   GuCookingBVH.obj
 0001:00192060       createBVH                  0000000180193060 f   GuCookingBVH.obj
 0001:001921f0       cookHeightField            00000001801931f0 f   GuCookingHF.obj
 0001:00192300       createHeightField          0000000180193300 f   GuCookingHF.obj
 0001:001929b0       computeHullPolygons        00000001801939b0 f   GuCookingConvexMesh.obj
 0001:00192b90       cookConvexMesh             0000000180193b90 f   GuCookingConvexMesh.obj
 0001:00192d00       createConvexMesh           0000000180193d00 f   GuCookingConvexMesh.obj
 0001:00192ea0       validateConvexMesh         0000000180193ea0 f   GuCookingConvexMesh.obj
 0001:00192fc0       ??1BV4TriangleMeshBuilder@physx@@UEAA@XZ 0000000180193fc0 f   GuCookingTriangleMesh.obj
 0001:00193050       ??1RTreeTriangleMeshBuilder@physx@@UEAA@XZ 0000000180194050 f   GuCookingTriangleMesh.obj
 0001:001930c0       ??_EBV4TriangleMeshBuilder@physx@@UEAAPEAXI@Z 00000001801940c0 f i GuCookingTriangleMesh.obj
 0001:001930c0       ??_GBV4TriangleMeshBuilder@physx@@UEAAPEAXI@Z 00000001801940c0 f i GuCookingTriangleMesh.obj
 0001:00193100       ??_ERTreeTriangleMeshBuilder@physx@@UEAAPEAXI@Z 0000000180194100 f i GuCookingTriangleMesh.obj
 0001:00193100       ??_GRTreeTriangleMeshBuilder@physx@@UEAAPEAXI@Z 0000000180194100 f i GuCookingTriangleMesh.obj
 0001:00193140       ??_ETriangleMeshBuilder@physx@@UEAAPEAXI@Z 0000000180194140 f i GuCookingTriangleMesh.obj
 0001:00193140       ??_GTriangleMeshBuilder@physx@@UEAAPEAXI@Z 0000000180194140 f i GuCookingTriangleMesh.obj
 0001:00193af0       ?buildInertiaTensor@TriangleMeshBuilder@physx@@IEAAX_N@Z 0000000180194af0 f   GuCookingTriangleMesh.obj
 0001:00193c50       ?buildInertiaTensorFromSDF@TriangleMeshBuilder@physx@@IEAAXXZ 0000000180194c50 f   GuCookingTriangleMesh.obj
 0001:00193e90       ?checkInputFloats@@YA_NIPEBMPEBDI1@Z 0000000180194e90 f   GuCookingTriangleMesh.obj
 0001:00193f20       ?cleanMesh@TriangleMeshBuilder@physx@@QEAA_N_NPEAW4Enum@PxTriangleMeshCookingResult@2@@Z 0000000180194f20 f   GuCookingTriangleMesh.obj
 0001:00194410       ?createGRBMidPhaseAndData@TriangleMeshBuilder@physx@@QEAA_NI@Z 0000000180195410 f   GuCookingTriangleMesh.obj
 0001:001945c0       ?createMidPhaseStructure@BV32TriangleMeshBuilder@physx@@SA_NAEBUPxCookingParams@2@AEAVTriangleMeshData@Gu@2@AEAVBV32Tree@52@@Z 00000001801955c0 f   GuCookingTriangleMesh.obj
 0001:00194810       ?createMidPhaseStructure@BV4TriangleMeshBuilder@physx@@UEAA_NXZ 0000000180195810 f   GuCookingTriangleMesh.obj
 0001:00194ad0       ?createMidPhaseStructure@RTreeTriangleMeshBuilder@physx@@UEAA_NXZ 0000000180195ad0 f   GuCookingTriangleMesh.obj
 0001:00194bc0       ?createSharedEdgeData@TriangleMeshBuilder@physx@@QEAAX_N0@Z 0000000180195bc0 f   GuCookingTriangleMesh.obj
 0001:00195270       ?createVertMapping@TriangleMeshBuilder@physx@@QEAAXXZ 0000000180196270 f   GuCookingTriangleMesh.obj
 0001:001955d0       ?importMesh@TriangleMeshBuilder@physx@@IEAA_NAEBVPxTriangleMeshDesc@2@PEAW4Enum@PxTriangleMeshCookingResult@2@_N@Z 00000001801965d0 f   GuCookingTriangleMesh.obj
 0001:00195c10       ?isValid@PxTriangleMeshDesc@physx@@QEBA_NXZ 0000000180196c10 f i GuCookingTriangleMesh.obj
 0001:00195ce0       ?loadFromDescInternal@TriangleMeshBuilder@physx@@IEAA_NAEAVPxTriangleMeshDesc@2@PEAW4Enum@PxTriangleMeshCookingResult@2@_N@Z 0000000180196ce0 f   GuCookingTriangleMesh.obj
 0001:00195f00       ?onMeshIndexFormatChange@BV4TriangleMeshBuilder@physx@@UEAAXXZ 0000000180196f00 f   GuCookingTriangleMesh.obj
 0001:00195f40       ?remap@RTreeCookerRemap@@UEAAXPEAIII@Z 0000000180196f40 f i GuCookingTriangleMesh.obj
 0001:00195f60       ?remapTopology@TriangleMeshBuilder@physx@@QEAAXPEBI@Z 0000000180196f60 f   GuCookingTriangleMesh.obj
 0001:00196200       ?save@TriangleMeshBuilder@physx@@QEBA_NAEAVPxOutputStream@2@_NAEBUPxCookingParams@2@@Z 0000000180197200 f   GuCookingTriangleMesh.obj
 0001:001969b0       ?saveMidPhaseStructure@BV32TriangleMeshBuilder@physx@@SAXPEAVBV32Tree@Gu@2@AEAVPxOutputStream@2@_N@Z 00000001801979b0 f   GuCookingTriangleMesh.obj
 0001:00196bb0       ?saveMidPhaseStructure@BV4TriangleMeshBuilder@physx@@UEBAXAEAVPxOutputStream@2@_N@Z 0000000180197bb0 f   GuCookingTriangleMesh.obj
 0001:00196d60       ?saveMidPhaseStructure@RTreeTriangleMeshBuilder@physx@@UEBAXAEAVPxOutputStream@2@_N@Z 0000000180197d60 f   GuCookingTriangleMesh.obj
 0001:00196fa0       cookTriangleMesh           0000000180197fa0 f   GuCookingTriangleMesh.obj
 0001:001972b0       createTriangleMesh         00000001801982b0 f   GuCookingTriangleMesh.obj
 0001:001974d0       validateTriangleMesh       00000001801984d0 f   GuCookingTriangleMesh.obj
 0001:00197790       ??0SoftBodyCollisionData@Gu@physx@@QEAA@XZ 0000000180198790 f i GuCookingTetrahedronMesh.obj
 0001:001977f0       ??_ECollisionTetrahedronMeshData@Gu@physx@@UEAAPEAXI@Z 00000001801987f0 f i GuCookingTetrahedronMesh.obj
 0001:001977f0       ??_GCollisionTetrahedronMeshData@Gu@physx@@UEAAPEAXI@Z 00000001801987f0 f i GuCookingTetrahedronMesh.obj
 0001:001978c0       ??_EPxCollisionTetrahedronMeshData@physx@@UEAAPEAXI@Z 00000001801988c0 f i GuCookingTetrahedronMesh.obj
 0001:001978c0       ??_GPxCollisionTetrahedronMeshData@physx@@UEAAPEAXI@Z 00000001801988c0 f i GuCookingTetrahedronMesh.obj
 0001:00197910       ??_EPxSimulationTetrahedronMeshData@physx@@UEAAPEAXI@Z 0000000180198910 f i GuCookingTetrahedronMesh.obj
 0001:00197910       ??_GPxSimulationTetrahedronMeshData@physx@@UEAAPEAXI@Z 0000000180198910 f i GuCookingTetrahedronMesh.obj
 0001:00197960       ??_ESimulationTetrahedronMeshData@Gu@physx@@UEAAPEAXI@Z 0000000180198960 f i GuCookingTetrahedronMesh.obj
 0001:00197960       ??_GSimulationTetrahedronMeshData@Gu@physx@@UEAAPEAXI@Z 0000000180198960 f i GuCookingTetrahedronMesh.obj
 0001:00197a30       ?combineGridModelPartitions@@YAXAEBVTetrahedronMeshData@Gu@physx@@AEAVSoftBodySimulationData@23@PEAPEAI@Z 0000000180198a30 f   GuCookingTetrahedronMesh.obj
 0001:00198280       ?combineGridModelPartitionsHexMesh@@YAXAEBVTetrahedronMeshData@Gu@physx@@AEAVSoftBodySimulationData@23@PEAPEAII@Z 0000000180199280 f   GuCookingTetrahedronMesh.obj
 0001:00198cc0       ?computeCollisionData@TetrahedronMeshBuilder@physx@@SA_NAEBVPxTetrahedronMeshDesc@2@AEAVTetrahedronMeshData@Gu@2@AEAVSoftBodyCollisionData@52@AEBUPxCookingParams@2@_N@Z 0000000180199cc0 f   GuCookingTetrahedronMesh.obj
 0001:00198f00       ?computeGridModelTetrahedronPartitions@@YAPEAIAEBVTetrahedronMeshData@Gu@physx@@AEAVSoftBodySimulationData@23@@Z 0000000180199f00 f   GuCookingTetrahedronMesh.obj
 0001:001993a0       ?computeModelsMapping@TetrahedronMeshBuilder@physx@@SAXAEAVTetrahedronMeshData@Gu@2@AEBV342@AEBVSoftBodyCollisionData@42@AEAVCollisionMeshMappingData@42@_NPEBUPxBoundedData@2@@Z 000000018019a3a0 f   GuCookingTetrahedronMesh.obj
 0001:00199fb0       ?computeRestPoseAndPointMass@@YAXPEAU?$TetrahedronT@I@Gu@physx@@IPEBV?$PxVec3T@M@3@PEAMPEAV?$PxMat33T@M@3@@Z 000000018019afb0 f   GuCookingTetrahedronMesh.obj
 0001:0019a4e0       ?computeSimData@TetrahedronMeshBuilder@physx@@SAXAEBVPxTetrahedronMeshDesc@2@AEAVTetrahedronMeshData@Gu@2@AEAVSoftBodySimulationData@52@AEBUPxCookingParams@2@@Z 000000018019b4e0 f   GuCookingTetrahedronMesh.obj
 0001:0019abb0       ?computeTetData@TetrahedronMeshBuilder@physx@@SAXAEBVPxTetrahedronMeshDesc@2@AEAVTetrahedronMeshData@Gu@2@@Z 000000018019bbb0 f   GuCookingTetrahedronMesh.obj
 0001:0019aca0       ?computeTetrahedronPartition@@YAIPEBU?$TetrahedronT@I@Gu@physx@@IPEAII@Z 000000018019bca0 f   GuCookingTetrahedronMesh.obj
 0001:0019ad90       ?createCollisionModelMapping@TetrahedronMeshBuilder@physx@@SAXAEBVTetrahedronMeshData@Gu@2@AEBVSoftBodyCollisionData@42@AEAVCollisionMeshMappingData@42@@Z 000000018019bd90 f   GuCookingTetrahedronMesh.obj
 0001:0019b370       ?createGRBMidPhaseAndData@TetrahedronMeshBuilder@physx@@SA_NIAEAVTetrahedronMeshData@Gu@2@AEAVSoftBodyCollisionData@42@AEBUPxCookingParams@2@@Z 000000018019c370 f   GuCookingTetrahedronMesh.obj
 0001:0019c0d0       ?createMidPhaseStructure@BV32TetrahedronMeshBuilder@physx@@SA_NAEBUPxCookingParams@2@AEAVTetrahedronMeshData@Gu@2@AEAVBV32Tree@52@AEAVSoftBodyCollisionData@52@@Z 000000018019d0d0 f   GuCookingTetrahedronMesh.obj
 0001:0019c3a0       ?createMidPhaseStructure@TetrahedronMeshBuilder@physx@@SA_NAEAVTetrahedronMeshData@Gu@2@AEAVSoftBodyCollisionData@42@AEBUPxCookingParams@2@@Z 000000018019d3a0 f   GuCookingTetrahedronMesh.obj
 0001:0019d070       ?getData@CollisionTetrahedronMeshData@Gu@physx@@UEAAPEAVPxSoftBodyCollisionData@3@XZ 000000018019e070 f i GuCookingTetrahedronMesh.obj
 0001:0019d070       ?getData@CollisionTetrahedronMeshData@Gu@physx@@UEBAPEBVPxSoftBodyCollisionData@3@XZ 000000018019e070 f i GuCookingTetrahedronMesh.obj
 0001:0019d070       ?getData@SimulationTetrahedronMeshData@Gu@physx@@UEAAPEAVPxSoftBodySimulationData@3@XZ 000000018019e070 f i GuCookingTetrahedronMesh.obj
 0001:0019d090       ?importMesh@TetrahedronMeshBuilder@physx@@SA_NAEBVPxTetrahedronMeshDesc@2@AEBUPxCookingParams@2@AEAVTetrahedronMeshData@Gu@2@AEAVSoftBodyCollisionData@62@_N@Z 000000018019e090 f   GuCookingTetrahedronMesh.obj
 0001:0019d3c0       ?isValid@PxTetrahedronMeshDesc@physx@@QEBA_NXZ 000000018019e3c0 f i GuCookingTetrahedronMesh.obj
 0001:0019d440       ?loadFromDesc@TetrahedronMeshBuilder@physx@@SA_NAEBVPxTetrahedronMeshDesc@2@0VPxSoftBodySimulationDataDesc@2@AEAVTetrahedronMeshData@Gu@2@AEAVSoftBodySimulationData@62@2AEAVSoftBodyCollisionData@62@AEAVCollisionMeshMappingData@62@AEBUPxCookingParams@2@_N@Z 000000018019e440 f   GuCookingTetrahedronMesh.obj
 0001:0019d5b0       ?release@CollisionTetrahedronMeshData@Gu@physx@@UEAAXXZ 000000018019e5b0 f i GuCookingTetrahedronMesh.obj
 0001:0019d5d0       ?reserveInternal@?$PxHashBase@V?$PxPair@$$CBVSortedTriangleInds@@I@physx@@VSortedTriangleInds@@USortedTriangleIndsHash@@UGetKey@?$PxHashMapBase@VSortedTriangleInds@@IUSortedTriangleIndsHash@@VPxAllocator@physx@@@2@VPxAllocator@2@$00@physx@@AEAAXI@Z 000000018019e5d0 f i GuCookingTetrahedronMesh.obj
 0001:0019d810       ?saveSoftBodyMeshData@TetrahedronMeshBuilder@physx@@SA_NAEAVPxOutputStream@2@_NAEBUPxCookingParams@2@AEBVTetrahedronMeshData@Gu@2@AEBVSoftBodySimulationData@62@3AEBVSoftBodyCollisionData@62@AEBVCollisionMeshMappingData@62@@Z 000000018019e810 f   GuCookingTetrahedronMesh.obj
 0001:0019df20       ?saveTetrahedronMeshData@TetrahedronMeshBuilder@physx@@SA_NAEAVPxOutputStream@2@_NAEBUPxCookingParams@2@AEBVTetrahedronMeshData@Gu@2@@Z 000000018019ef20 f   GuCookingTetrahedronMesh.obj
 0001:0019e0d0       ?smoothMassRatiosWhilePreservingTotalMass@@YAXPEAMIPEBIHMM@Z 000000018019f0d0 f   GuCookingTetrahedronMesh.obj
 0001:0019e570       ?support@?$LocalConvex@VTetrahedronV@Gu@physx@@@Gu@physx@@UEBA?AT__m128@@AEBT4@@Z 000000018019f570 f i GuCookingTetrahedronMesh.obj
 0001:0019e630       ?support@?$LocalConvex@VTetrahedronV@Gu@physx@@@Gu@physx@@UEBA?AT__m128@@AEBT4@AEAH@Z 000000018019f630 f i GuCookingTetrahedronMesh.obj
 0001:0019e7e0       assembleSoftBodyMesh       000000018019f7e0 f   GuCookingTetrahedronMesh.obj
 0001:0019e840       assembleSoftBodyMesh_Sim   000000018019f840 f   GuCookingTetrahedronMesh.obj
 0001:0019e8f0       computeCollisionData       000000018019f8f0 f   GuCookingTetrahedronMesh.obj
 0001:0019eaf0       computeModelsMapping       000000018019faf0 f   GuCookingTetrahedronMesh.obj
 0001:0019ebf0       computeSimulationData      000000018019fbf0 f   GuCookingTetrahedronMesh.obj
 0001:0019edc0       cookSoftBodyMesh           000000018019fdc0 f   GuCookingTetrahedronMesh.obj
 0001:0019f3e0       cookTetrahedronMesh        00000001801a03e0 f   GuCookingTetrahedronMesh.obj
 0001:0019f4d0       createSoftBodyMesh         00000001801a04d0 f   GuCookingTetrahedronMesh.obj
 0001:0019fb70       createTetrahedronMesh      00000001801a0b70 f   GuCookingTetrahedronMesh.obj
 0001:001a1850       ?computeVolumeIntegrals@physx@@YA_NAEBVPxSimpleTriangleMesh@1@MAEAUPxIntegrals@1@@Z 00000001801a2850 f   GuCookingVolumeIntegration.obj
 0001:001a1890       ?computeVolumeIntegralsEberly@physx@@YA_NAEBVPxConvexMeshDesc@1@MAEAUPxIntegrals@1@AEBV?$PxVec3T@M@1@_N@Z 00000001801a2890 f   GuCookingVolumeIntegration.obj
 0001:001a1ef0       ??0QuickHull@local@@QEAA@AEBUPxCookingParams@physx@@AEBVPxConvexMeshDesc@3@@Z 00000001801a2ef0 f   GuCookingQuickHullConvexHullLib.obj
 0001:001a1fa0       ??0QuickHullConvexHullLib@physx@@QEAA@AEBVPxConvexMeshDesc@1@AEBUPxCookingParams@1@@Z 00000001801a2fa0 f   GuCookingQuickHullConvexHullLib.obj
 0001:001a2080       ??1?$MemBlock@UQuickHullFace@local@@$00@local@@QEAA@XZ 00000001801a3080 f i GuCookingQuickHullConvexHullLib.obj
 0001:001a2080       ??1?$MemBlock@UQuickHullHalfEdge@local@@$0A@@local@@QEAA@XZ 00000001801a3080 f i GuCookingQuickHullConvexHullLib.obj
 0001:001a2140       ??1QuickHull@local@@QEAA@XZ 00000001801a3140 f   GuCookingQuickHullConvexHullLib.obj
 0001:001a22a0       ??_GConvexHull@physx@@QEAAPEAXI@Z 00000001801a32a0 f i GuCookingQuickHullConvexHullLib.obj
 0001:001a2390       ??_EConvexHullLib@physx@@UEAAPEAXI@Z 00000001801a3390 f i GuCookingQuickHullConvexHullLib.obj
 0001:001a2390       ??_GConvexHullLib@physx@@UEAAPEAXI@Z 00000001801a3390 f i GuCookingQuickHullConvexHullLib.obj
 0001:001a23d0       ??_EQuickHullConvexHullLib@physx@@UEAAPEAXI@Z 00000001801a33d0 f i GuCookingQuickHullConvexHullLib.obj
 0001:001a23d0       ??_GQuickHullConvexHullLib@physx@@UEAAPEAXI@Z 00000001801a33d0 f i GuCookingQuickHullConvexHullLib.obj
 0001:001a24f0       ?addPointToHull@QuickHull@local@@IEAA_NPEBUQuickHullVertex@2@AEAUQuickHullFace@2@AEA_N@Z 00000001801a34f0 f   GuCookingQuickHullConvexHullLib.obj
 0001:001a27c0       ?addSimplex@QuickHull@local@@IEAA_NPEAUQuickHullVertex@2@_N@Z 00000001801a37c0 f   GuCookingQuickHullConvexHullLib.obj
 0001:001a2d40       ?allocate@?$PxArray@PEAUQuickHullFace@local@@V?$PxReflectionAllocator@PEAUQuickHullFace@local@@@physx@@@physx@@IEAAPEAPEAUQuickHullFace@local@@I@Z 00000001801a3d40 f i GuCookingQuickHullConvexHullLib.obj
 0001:001a2df0       ?allocate@?$PxArray@PEAUQuickHullHalfEdge@local@@V?$PxReflectionAllocator@PEAUQuickHullHalfEdge@local@@@physx@@@physx@@IEAAPEAPEAUQuickHullHalfEdge@local@@I@Z 00000001801a3df0 f i GuCookingQuickHullConvexHullLib.obj
 0001:001a2ea0       ?allocate@?$PxArray@PEAUQuickHullVertex@local@@V?$PxReflectionAllocator@PEAUQuickHullVertex@local@@@physx@@@physx@@IEAAPEAPEAUQuickHullVertex@local@@I@Z 00000001801a3ea0 f i GuCookingQuickHullConvexHullLib.obj
 0001:001a2f50       ?allocate@?$PxArray@UExpandPoint@local@@V?$PxReflectionAllocator@UExpandPoint@local@@@physx@@@physx@@IEAAPEAUExpandPoint@local@@I@Z 00000001801a3f50 f i GuCookingQuickHullConvexHullLib.obj
 0001:001a3000       ?allocate@?$PxArray@VPxPlane@physx@@V?$PxReflectionAllocator@VPxPlane@physx@@@2@@physx@@IEAAPEAVPxPlane@2@I@Z 00000001801a4000 f i GuCookingQuickHullConvexHullLib.obj
 0001:001a30b0       ?buildHull@QuickHull@local@@QEAA?AW4Enum@QuickHullResult@2@XZ 00000001801a40b0 f   GuCookingQuickHullConvexHullLib.obj
 0001:001a3300       ?calculateHorizon@QuickHull@local@@IEAAXAEBV?$PxVec3T@M@physx@@PEAUQuickHullHalfEdge@2@AEAUQuickHullFace@2@AEAV?$PxArray@PEAUQuickHullHalfEdge@local@@V?$PxReflectionAllocator@PEAUQuickHullHalfEdge@local@@@physx@@@4@AEAV?$PxArray@PEAUQuickHullFace@local@@V?$PxReflectionAllocator@PEAUQuickHullFace@local@@@physx@@@4@@Z 00000001801a4300 f   GuCookingQuickHullConvexHullLib.obj
 0001:001a34b0       ?canMergeFaces@QuickHull@local@@IEAA_NAEBUQuickHullHalfEdge@2@@Z 00000001801a44b0 f   GuCookingQuickHullConvexHullLib.obj
 0001:001a3ce0       ?cleanupForSimplex@QuickHullConvexHullLib@physx@@IEAA_NPEAV?$PxVec3T@M@2@IPEAUQuickHullVertex@local@@1AEAM2@Z 00000001801a4ce0 f   GuCookingQuickHullConvexHullLib.obj
 0001:001a4930       ?computeMinMaxVerts@QuickHull@local@@IEAAXXZ 00000001801a5930 f   GuCookingQuickHullConvexHullLib.obj
 0001:001a4d00       ?connectHalfEdges@QuickHullFace@local@@AEAAPEAU12@PEAUQuickHullHalfEdge@2@0@Z 00000001801a5d00 f   GuCookingQuickHullConvexHullLib.obj
 0001:001a5070       ?copy@?$PxArray@UExpandPoint@local@@V?$PxReflectionAllocator@UExpandPoint@local@@@physx@@@physx@@KAXPEAUExpandPoint@local@@0PEBU34@@Z 00000001801a6070 f i GuCookingQuickHullConvexHullLib.obj
 0001:001a5120       ?copy@?$PxArray@VPxPlane@physx@@V?$PxReflectionAllocator@VPxPlane@physx@@@2@@physx@@KAXPEAVPxPlane@2@0PEBV32@@Z 00000001801a6120 f i GuCookingQuickHullConvexHullLib.obj
 0001:001a5220       ?createConvexHull@QuickHullConvexHullLib@physx@@UEAA?AW4Enum@PxConvexMeshCookingResult@2@XZ 00000001801a6220 f   GuCookingQuickHullConvexHullLib.obj
 0001:001a5630       ?createEdgeList@QuickHullConvexHullLib@physx@@UEAA_NIPEBEPEAPEAEPEAPEAG2@Z 00000001801a6630 f   GuCookingQuickHullConvexHullLib.obj
 0001:001a5850       ?createTriangle@QuickHull@local@@IEAAPEAUQuickHullFace@2@AEBUQuickHullVertex@2@00@Z 00000001801a6850 f   GuCookingQuickHullConvexHullLib.obj
 0001:001a5c20       ?doAdjacentMerge@QuickHull@local@@IEAA_NAEAUQuickHullFace@2@_NAEA_N@Z 00000001801a6c20 f   GuCookingQuickHullConvexHullLib.obj
 0001:001a5f70       ?expandHull@QuickHullConvexHullLib@physx@@IEAA?AW4Enum@PxConvexMeshCookingResult@2@XZ 00000001801a6f70 f   GuCookingQuickHullConvexHullLib.obj
 0001:001a68b0       ?expandHullOBB@QuickHullConvexHullLib@physx@@IEAA?AW4Enum@PxConvexMeshCookingResult@2@XZ 00000001801a78b0 f   GuCookingQuickHullConvexHullLib.obj
 0001:001a6cf0       ?fillConvexMeshDesc@QuickHullConvexHullLib@physx@@UEAAXAEAVPxConvexMeshDesc@2@@Z 00000001801a7cf0 f   GuCookingQuickHullConvexHullLib.obj
 0001:001a6d40       ?fillConvexMeshDescFromCroppedHull@QuickHullConvexHullLib@physx@@IEAAXAEAVPxConvexMeshDesc@2@@Z 00000001801a7d40 f   GuCookingQuickHullConvexHullLib.obj
 0001:001a6f30       ?fillConvexMeshDescFromQuickHull@QuickHullConvexHullLib@physx@@IEAAXAEAVPxConvexMeshDesc@2@@Z 00000001801a7f30 f   GuCookingQuickHullConvexHullLib.obj
 0001:001a72b0       ?findSimplex@QuickHull@local@@IEAA_NXZ 00000001801a82b0 f   GuCookingQuickHullConvexHullLib.obj
 0001:001a7f50       ?getFreeItem@?$MemBlock@UQuickHullFace@local@@$00@local@@QEAAPEAUQuickHullFace@2@XZ 00000001801a8f50 f i GuCookingQuickHullConvexHullLib.obj
 0001:001a8080       ?getFreeItem@?$MemBlock@UQuickHullHalfEdge@local@@$0A@@local@@QEAAPEAUQuickHullHalfEdge@2@XZ 00000001801a9080 f i GuCookingQuickHullConvexHullLib.obj
 0001:001a8150       ?growAndPushBack@?$PxArray@PEAUQuickHullFace@local@@V?$PxReflectionAllocator@PEAUQuickHullFace@local@@@physx@@@physx@@IEAAAEAPEAUQuickHullFace@local@@AEBQEAU34@@Z 00000001801a9150 f i GuCookingQuickHullConvexHullLib.obj
 0001:001a8210       ?growAndPushBack@?$PxArray@PEAUQuickHullHalfEdge@local@@V?$PxReflectionAllocator@PEAUQuickHullHalfEdge@local@@@physx@@@physx@@IEAAAEAPEAUQuickHullHalfEdge@local@@AEBQEAU34@@Z 00000001801a9210 f i GuCookingQuickHullConvexHullLib.obj
 0001:001a82d0       ?growAndPushBack@?$PxArray@PEAUQuickHullVertex@local@@V?$PxReflectionAllocator@PEAUQuickHullVertex@local@@@physx@@@physx@@IEAAAEAPEAUQuickHullVertex@local@@AEBQEAU34@@Z 00000001801a92d0 f i GuCookingQuickHullConvexHullLib.obj
 0001:001a8390       ?growAndPushBack@?$PxArray@UExpandPoint@local@@V?$PxReflectionAllocator@UExpandPoint@local@@@physx@@@physx@@IEAAAEAUExpandPoint@local@@AEBU34@@Z 00000001801a9390 f i GuCookingQuickHullConvexHullLib.obj
 0001:001a8490       ?growAndPushBack@?$PxArray@VPxPlane@physx@@V?$PxReflectionAllocator@VPxPlane@physx@@@2@@physx@@IEAAAEAVPxPlane@2@AEBV32@@Z 00000001801a9490 f i GuCookingQuickHullConvexHullLib.obj
 0001:001a8550       ?init@?$MemBlock@UQuickHullFace@local@@$00@local@@QEAAXI@Z 00000001801a9550 f i GuCookingQuickHullConvexHullLib.obj
 0001:001a8650       ?init@?$MemBlock@UQuickHullHalfEdge@local@@$0A@@local@@QEAAXI@Z 00000001801a9650 f i GuCookingQuickHullConvexHullLib.obj
 0001:001a86f0       ?mergeAdjacentFace@QuickHullFace@local@@QEAA_NPEAUQuickHullHalfEdge@2@AEAV?$PxArray@PEAUQuickHullFace@local@@V?$PxReflectionAllocator@PEAUQuickHullFace@local@@@physx@@@physx@@@Z 00000001801a96f0 f   GuCookingQuickHullConvexHullLib.obj
 0001:001a8b50       ?nextPointToAdd@QuickHull@local@@IEAAPEAUQuickHullVertex@2@AEAPEAUQuickHullFace@2@@Z 00000001801a9b50 f   GuCookingQuickHullConvexHullLib.obj
 0001:001a8cd0       ?parseInputVertices@QuickHull@local@@QEAAXPEBV?$PxVec3T@M@physx@@I@Z 00000001801a9cd0 f   GuCookingQuickHullConvexHullLib.obj
 0001:001a8e50       ?postMergeHull@QuickHull@local@@IEAAXXZ 00000001801a9e50 f   GuCookingQuickHullConvexHullLib.obj
 0001:001a90b0       ?preallocate@QuickHull@local@@QEAAXI@Z 00000001801aa0b0 f   GuCookingQuickHullConvexHullLib.obj
 0001:001a91f0       ?recreate@?$PxArray@PEAUQuickHullFace@local@@V?$PxReflectionAllocator@PEAUQuickHullFace@local@@@physx@@@physx@@IEAAXI@Z 00000001801aa1f0 f i GuCookingQuickHullConvexHullLib.obj
 0001:001a9290       ?recreate@?$PxArray@PEAUQuickHullHalfEdge@local@@V?$PxReflectionAllocator@PEAUQuickHullHalfEdge@local@@@physx@@@physx@@IEAAXI@Z 00000001801aa290 f i GuCookingQuickHullConvexHullLib.obj
 0001:001a9330       ?recreate@?$PxArray@PEAUQuickHullVertex@local@@V?$PxReflectionAllocator@PEAUQuickHullVertex@local@@@physx@@@physx@@IEAAXI@Z 00000001801aa330 f i GuCookingQuickHullConvexHullLib.obj
 0001:001a93d0       ?recreate@?$PxArray@UExpandPoint@local@@V?$PxReflectionAllocator@UExpandPoint@local@@@physx@@@physx@@IEAAXI@Z 00000001801aa3d0 f i GuCookingQuickHullConvexHullLib.obj
 0001:001a9460       ?recreate@?$PxArray@VPxPlane@physx@@V?$PxReflectionAllocator@VPxPlane@physx@@@2@@physx@@IEAAXI@Z 00000001801aa460 f i GuCookingQuickHullConvexHullLib.obj
 0001:001a94f0       ?resolveUnclaimedPoints@QuickHull@local@@IEAAXAEBV?$PxArray@PEAUQuickHullFace@local@@V?$PxReflectionAllocator@PEAUQuickHullFace@local@@@physx@@@physx@@@Z 00000001801aa4f0 f   GuCookingQuickHullConvexHullLib.obj
 0001:001a9770       ??$copy@V?$PxReflectionAllocator@VPair@@@physx@@@?$PxArray@VPair@@V?$PxReflectionAllocator@VPair@@@physx@@@physx@@IEAAXAEBV01@@Z 00000001801aa770 f i GuCookingConvexPolygonsBuilder.obj
 0001:001a97f0       ??0ConvexPolygonsBuilder@physx@@QEAA@PEAUConvexHullData@Gu@1@_N@Z 00000001801aa7f0 f   GuCookingConvexPolygonsBuilder.obj
 0001:001a9810       ??1ConvexPolygonsBuilder@physx@@QEAA@XZ 00000001801aa810 f   GuCookingConvexPolygonsBuilder.obj
 0001:001aa060       ?allocate@?$PxArray@VPair@@V?$PxReflectionAllocator@VPair@@@physx@@@physx@@IEAAPEAVPair@@I@Z 00000001801ab060 f i GuCookingConvexPolygonsBuilder.obj
 0001:001aab60       ?computeHullPolygons@ConvexPolygonsBuilder@physx@@QEAA_NAEBIPEBV?$PxVec3T@M@2@0PEBI@Z 00000001801abb60 f   GuCookingConvexPolygonsBuilder.obj
 0001:001abe20       ?createPolygonData@ConvexPolygonsBuilder@physx@@AEAA_NXZ 00000001801ace20 f   GuCookingConvexPolygonsBuilder.obj
 0001:001ac880       ?createTrianglesFromPolygons@ConvexPolygonsBuilder@physx@@AEAA_NXZ 00000001801ad880 f   GuCookingConvexPolygonsBuilder.obj
 0001:001adf00       ?growAndPushBack@?$PxArray@VPair@@V?$PxReflectionAllocator@VPair@@@physx@@@physx@@IEAAAEAVPair@@AEBV3@@Z 00000001801aef00 f i GuCookingConvexPolygonsBuilder.obj
 0001:001ae090       ??0ConvexMeshBuilder@physx@@QEAA@_N@Z 00000001801af090 f   GuCookingConvexMeshBuilder.obj
 0001:001ae100       ??1ConvexMeshBuilder@physx@@QEAA@XZ 00000001801af100 f   GuCookingConvexMeshBuilder.obj
 0001:001ae590       ?build@ConvexMeshBuilder@physx@@QEAA_NAEBVPxConvexMeshDesc@2@I_NPEAVConvexHullLib@2@@Z 00000001801af590 f   GuCookingConvexMeshBuilder.obj
 0001:001ae930       ?checkExtentRadiusRatio@ConvexMeshBuilder@physx@@QEAA_NXZ 00000001801af930 f   GuCookingConvexMeshBuilder.obj
 0001:001ae960       ?computeHullPolygons@ConvexMeshBuilder@physx@@QEAA_NAEBIPEBV?$PxVec3T@M@2@0PEBIAEAVPxAllocatorCallback@2@AEAIAEAPEAV32@4AEAPEAI4AEAPEAUPxHullPolygon@2@@Z 00000001801af960 f   GuCookingConvexMeshBuilder.obj
 0001:001aeb70       ?computeMassInfo@ConvexMeshBuilder@physx@@QEAAX_N@Z 00000001801afb70 f   GuCookingConvexMeshBuilder.obj
 0001:001aef00       ?computeSDF@ConvexMeshBuilder@physx@@QEAAXAEBVPxConvexMeshDesc@2@@Z 00000001801aff00 f   GuCookingConvexMeshBuilder.obj
 0001:001af3e0       ?copy@ConvexMeshBuilder@physx@@QEAA_NAEAUConvexHullInitData@Gu@2@@Z 00000001801b03e0 f   GuCookingConvexMeshBuilder.obj
 0001:001af540       ?loadConvexHull@ConvexMeshBuilder@physx@@QEAA_NAEBVPxConvexMeshDesc@2@PEAVConvexHullLib@2@@Z 00000001801b0540 f   GuCookingConvexMeshBuilder.obj
 0001:001af790       ?save@ConvexMeshBuilder@physx@@QEBA_NAEAVPxOutputStream@2@_N@Z 00000001801b0790 f   GuCookingConvexMeshBuilder.obj
 0001:001afbb0       ??0ConvexHull@physx@@QEAA@AEBV?$PxVec3T@M@1@AEBV?$PxTransformT@M@1@AEBV?$PxArray@VPxPlane@physx@@V?$PxReflectionAllocator@VPxPlane@physx@@@2@@1@@Z 00000001801b0bb0 f   GuCookingConvexHullUtils.obj
 0001:001b0cd0       ?allocate@?$PxArray@VHalfEdge@ConvexHull@physx@@V?$PxReflectionAllocator@VHalfEdge@ConvexHull@physx@@@3@@physx@@IEAAPEAVHalfEdge@ConvexHull@2@I@Z 00000001801b1cd0 f i GuCookingConvexHullUtils.obj
 0001:001b0d80       ?assertIntact@ConvexHull@physx@@QEBA_NM@Z 00000001801b1d80 f   GuCookingConvexHullUtils.obj
 0001:001b10a0       ?computeOBBFromConvex@physx@@YA_NAEBVPxConvexMeshDesc@1@AEAV?$PxVec3T@M@1@AEAV?$PxTransformT@M@1@@Z 00000001801b20a0 f   GuCookingConvexHullUtils.obj
 0001:001b1700       ?computeOBBSIMD@local@@YAXIPEBT__m128@@AEAT2@AEBT2@1@Z 00000001801b2700 f   GuCookingConvexHullUtils.obj
 0001:001b1ab0       ?convexHullCrop@physx@@YAPEAVConvexHull@1@AEBV21@AEBVPxPlane@1@M@Z 00000001801b2ab0 f   GuCookingConvexHullUtils.obj
 0001:001b28b0       ?findCandidatePlane@ConvexHull@physx@@QEBAHMM@Z 00000001801b38b0 f   GuCookingConvexHullUtils.obj
 0001:001b2d00       ?growAndPushBack@?$PxArray@VHalfEdge@ConvexHull@physx@@V?$PxReflectionAllocator@VHalfEdge@ConvexHull@physx@@@3@@physx@@IEAAAEAVHalfEdge@ConvexHull@2@AEBV342@@Z 00000001801b3d00 f i GuCookingConvexHullUtils.obj
 0001:001b2dc0       ?maxNumVertsPerFace@ConvexHull@physx@@QEBAIXZ 00000001801b3dc0 f   GuCookingConvexHullUtils.obj
 0001:001b2e30       ?recreate@?$PxArray@VHalfEdge@ConvexHull@physx@@V?$PxReflectionAllocator@VHalfEdge@ConvexHull@physx@@@3@@physx@@IEAAXI@Z 00000001801b3e30 f i GuCookingConvexHullUtils.obj
 0001:001b2ed0       ?resize@?$PxArray@VHalfEdge@ConvexHull@physx@@V?$PxReflectionAllocator@VHalfEdge@ConvexHull@physx@@@3@@physx@@QEAAXIAEBVHalfEdge@ConvexHull@2@@Z 00000001801b3ed0 f i GuCookingConvexHullUtils.obj
 0001:001b2f90       ?resize@?$PxArray@VPxPlane@physx@@V?$PxReflectionAllocator@VPxPlane@physx@@@2@@physx@@QEAAXIAEBVPxPlane@2@@Z 00000001801b3f90 f i GuCookingConvexHullUtils.obj
 0001:001b30b0       ??1ConvexHullLib@physx@@UEAA@XZ 00000001801b40b0 f   GuCookingConvexHullLib.obj
 0001:001b36a0       ?cleanupVertices@ConvexHullLib@physx@@IEAA_NIPEBV?$PxVec3T@M@2@IAEAIPEAV32@@Z 00000001801b46a0 f   GuCookingConvexHullLib.obj
 0001:001b37e0       ?shiftAndcleanupVertices@ConvexHullLib@physx@@IEAA_NIPEBV?$PxVec3T@M@2@IAEAIPEAV32@@Z 00000001801b47e0 f   GuCookingConvexHullLib.obj
 0001:001b3dc0       ?shiftConvexMeshDesc@ConvexHullLib@physx@@IEAAXAEAVPxConvexMeshDesc@2@@Z 00000001801b4dc0 f   GuCookingConvexHullLib.obj
 0001:001b3e80       ?swapLargestFace@ConvexHullLib@physx@@IEAAXAEAVPxConvexMeshDesc@2@@Z 00000001801b4e80 f   GuCookingConvexHullLib.obj
 0001:001b40b0       ??0ConvexHullBuilder@physx@@QEAA@PEAUConvexHullData@Gu@1@_N@Z 00000001801b50b0 f   GuCookingConvexHullBuilder.obj
 0001:001b40e0       ??1ConvexHullBuilder@physx@@QEAA@XZ 00000001801b50e0 f   GuCookingConvexHullBuilder.obj
 0001:001b41f0       ?calculateVertexMapTable@ConvexHullBuilder@physx@@QEAA_NI_N@Z 00000001801b51f0 f   GuCookingConvexHullBuilder.obj
 0001:001b43b0       ?checkHullPolygons@ConvexHullBuilder@physx@@QEBA_NXZ 00000001801b53b0 f   GuCookingConvexHullBuilder.obj
 0001:001b4b50       ?copy@ConvexHullBuilder@physx@@QEAA_NAEAUConvexHullData@Gu@2@AEAI@Z 00000001801b5b50 f   GuCookingConvexHullBuilder.obj
 0001:001b4dc0       ?createEdgeList@ConvexHullBuilder@physx@@QEAA_N_NI@Z 00000001801b5dc0 f   GuCookingConvexHullBuilder.obj
 0001:001b5500       ?init@ConvexHullBuilder@physx@@QEAA_NIPEBV?$PxVec3T@M@2@PEBIIIPEBUPxHullPolygon@2@_NPEAVConvexHullLib@2@@Z 00000001801b6500 f   GuCookingConvexHullBuilder.obj
 0001:001b5e50       ?save@ConvexHullBuilder@physx@@QEBA_NAEAVPxOutputStream@2@_N@Z 00000001801b6e50 f   GuCookingConvexHullBuilder.obj
 0001:001b6170       ??0BigConvexDataBuilder@physx@@QEAA@PEBUConvexHullData@Gu@1@PEAVBigConvexData@1@PEBV?$PxVec3T@M@1@@Z 00000001801b7170 f   GuCookingBigConvexDataBuilder.obj
 0001:001b6180       ?computeValencies@BigConvexDataBuilder@physx@@QEAA_NAEBVConvexHullBuilder@2@@Z 00000001801b7180 f   GuCookingBigConvexDataBuilder.obj
 0001:001b6570       ?precompute@BigConvexDataBuilder@physx@@QEAA_NI@Z 00000001801b7570 f   GuCookingBigConvexDataBuilder.obj
 0001:001b7170       ?save@BigConvexDataBuilder@physx@@QEBA_NAEAVPxOutputStream@2@_N@Z 00000001801b8170 f   GuCookingBigConvexDataBuilder.obj
 0001:001b735e       __imp_load_PxGetFoundation 00000001801b835e f   PhysXFoundation_64:PhysXFoundation_64.dll
 0001:001b736a       __tailMerge_physxfoundation_64_dll 00000001801b836a     PhysXFoundation_64:PhysXFoundation_64.dll
 0001:001b73e3       __imp_load_PxGetBroadcastAllocator 00000001801b83e3 f   PhysXFoundation_64:PhysXFoundation_64.dll
 0001:001b73ef       __imp_load_?PxAtomicIncrement@physx@@YAHPECH@Z 00000001801b83ef f   PhysXFoundation_64:PhysXFoundation_64.dll
 0001:001b73fb       __imp_load_??0PxMutexImpl@physx@@QEAA@XZ 00000001801b83fb f   PhysXFoundation_64:PhysXFoundation_64.dll
 0001:001b7407       __imp_load_??1PxMutexImpl@physx@@QEAA@XZ 00000001801b8407 f   PhysXFoundation_64:PhysXFoundation_64.dll
 0001:001b7413       __imp_load_?lock@PxMutexImpl@physx@@QEAAXXZ 00000001801b8413 f   PhysXFoundation_64:PhysXFoundation_64.dll
 0001:001b741f       __imp_load_?unlock@PxMutexImpl@physx@@QEAAXXZ 00000001801b841f f   PhysXFoundation_64:PhysXFoundation_64.dll
 0001:001b742b       __imp_load_?getSize@PxMutexImpl@physx@@SAIXZ 00000001801b842b f   PhysXFoundation_64:PhysXFoundation_64.dll
 0001:001b7437       __imp_load_?PxTransformFromSegment@physx@@YA?AV?$PxTransformT@M@1@AEBV?$PxVec3T@M@1@0PEAM@Z 00000001801b8437 f   PhysXFoundation_64:PhysXFoundation_64.dll
 0001:001b7443       __imp_load_?PxAtomicAdd@physx@@YAHPECHH@Z 00000001801b8443 f   PhysXFoundation_64:PhysXFoundation_64.dll
 0001:001b744f       __imp_load_?getDefaultStackSize@PxThreadImpl@physx@@SAIXZ 00000001801b844f f   PhysXFoundation_64:PhysXFoundation_64.dll
 0001:001b745b       __imp_load_??0PxThreadImpl@physx@@QEAA@P6APEAXPEAX@Z0PEBD@Z 00000001801b845b f   PhysXFoundation_64:PhysXFoundation_64.dll
 0001:001b7467       __imp_load_??1PxThreadImpl@physx@@QEAA@XZ 00000001801b8467 f   PhysXFoundation_64:PhysXFoundation_64.dll
 0001:001b7473       __imp_load_?start@PxThreadImpl@physx@@QEAAXIPEAVPxRunnable@2@@Z 00000001801b8473 f   PhysXFoundation_64:PhysXFoundation_64.dll
 0001:001b747f       __imp_load_?waitForQuit@PxThreadImpl@physx@@QEAA_NXZ 00000001801b847f f   PhysXFoundation_64:PhysXFoundation_64.dll
 0001:001b748b       __imp_load_?getSize@PxThreadImpl@physx@@SAIXZ 00000001801b848b f   PhysXFoundation_64:PhysXFoundation_64.dll
 0001:001b7497       __imp_load_?allocate@PxTempAllocator@physx@@QEAAPEAX_KPEBDH@Z 00000001801b8497 f   PhysXFoundation_64:PhysXFoundation_64.dll
 0001:001b74a3       __imp_load_?deallocate@PxTempAllocator@physx@@QEAAXPEAX@Z 00000001801b84a3 f   PhysXFoundation_64:PhysXFoundation_64.dll
 0001:001b74af       __imp_load_?PxOptimizeBoundingBox@physx@@YA?AV?$PxVec3T@M@1@AEAV?$PxMat33T@M@1@@Z 00000001801b84af f   PhysXFoundation_64:PhysXFoundation_64.dll
 0001:001b74bb       __imp_load_?Pxstrcmp@physx@@YAHPEBD0@Z 00000001801b84bb f   PhysXFoundation_64:PhysXFoundation_64.dll
 0001:001b74c7       __imp_load_?PxAtomicDecrement@physx@@YAHPECH@Z 00000001801b84c7 f   PhysXFoundation_64:PhysXFoundation_64.dll
 0001:001b74d3       __imp_load_PxGetProfilerCallback 00000001801b84d3 f   PhysXFoundation_64:PhysXFoundation_64.dll
 0001:001b74df       __imp_load_??0PxFPUGuard@physx@@QEAA@XZ 00000001801b84df f   PhysXFoundation_64:PhysXFoundation_64.dll
 0001:001b74eb       __imp_load_??1PxFPUGuard@physx@@QEAA@XZ 00000001801b84eb f   PhysXFoundation_64:PhysXFoundation_64.dll
 0001:001b74f7       __imp_load_?PxDiagonalize@physx@@YA?AV?$PxVec3T@M@1@AEBV?$PxMat33T@M@1@AEAV?$PxQuatT@M@1@@Z 00000001801b84f7 f   PhysXFoundation_64:PhysXFoundation_64.dll
 0001:001b7504       ?DloadAcquireSectionWriteAccess@@YAXXZ 00000001801b8504 f i Delayimp:delayhlp.obj
 0001:001b75b0       ?DloadGetSRWLockFunctionPointers@@YAEXZ 00000001801b85b0 f i Delayimp:delayhlp.obj
 0001:001b7650       ?DloadMakePermanentImageCommit@@YAXPEAX_K@Z 00000001801b8650 f i Delayimp:delayhlp.obj
 0001:001b76e8       ?DloadObtainSection@@YAPEAXPEAK0@Z 00000001801b86e8 f i Delayimp:delayhlp.obj
 0001:001b7784       ?DloadProtectSection@@YAXKPEAK@Z 00000001801b8784 f i Delayimp:delayhlp.obj
 0001:001b7814       ?DloadReleaseSectionWriteAccess@@YAXXZ 00000001801b8814 f i Delayimp:delayhlp.obj
 0001:001b78a8       __delayLoadHelper2         00000001801b88a8 f   Delayimp:delayhlp.obj
 0001:001b7b80       ??3@YAXPEAX_K@Z            00000001801b8b80 f   LIBCMT:delete_scalar_size.obj
 0001:001b7b80       ??_V@YAXPEAX@Z             00000001801b8b80 f   LIBCMT:delete_array.obj
 0001:001b7b88       ??_Etype_info@@UEAAPEAXI@Z 00000001801b8b88 f i LIBCMT:std_type_info_static.obj
 0001:001b7b88       ??_Gtype_info@@UEAAPEAXI@Z 00000001801b8b88 f i LIBCMT:std_type_info_static.obj
 0001:001b7bb4       ?__scrt_initialize_type_info@@YAXXZ 00000001801b8bb4 f   LIBCMT:tncleanup.obj
 0001:001b7bc4       ?__scrt_uninitialize_type_info@@YAXXZ 00000001801b8bc4 f   LIBCMT:tncleanup.obj
 0001:001b7be0       __chkstk                   00000001801b8be0 f   LIBCMT:chkstk.obj
 0001:001b7be0       _alloca_probe              00000001801b8be0 f   LIBCMT:chkstk.obj
 0001:001b7c30       __vdecl_sinf4              00000001801b8c30 f   LIBCMT:svml_ssinf4_dispatch.obj
 0001:001b7c50       __libm_sse2_sincosf_       00000001801b8c50 f   LIBCMT:svml_ssinf4_dispatch.obj
 0001:001b7c93       __libm_sse2_sincosf4_      00000001801b8c93 f   LIBCMT:svml_ssinf4_dispatch.obj
 0001:001b7ca0       ??3@YAXPEAX@Z              00000001801b8ca0 f   LIBCMT:delete_scalar.obj
 0001:001b7ca8       __scrt_acquire_startup_lock 00000001801b8ca8 f   LIBCMT:utility.obj
 0001:001b7ce4       __scrt_dllmain_after_initialize_c 00000001801b8ce4 f   LIBCMT:utility.obj
 0001:001b7d18       __scrt_dllmain_before_initialize_c 00000001801b8d18 f   LIBCMT:utility.obj
 0001:001b7d30       __scrt_dllmain_crt_thread_attach 00000001801b8d30 f   LIBCMT:utility.obj
 0001:001b7d58       __scrt_dllmain_crt_thread_detach 00000001801b8d58 f   LIBCMT:utility.obj
 0001:001b7d70       __scrt_dllmain_exception_filter 00000001801b8d70 f   LIBCMT:utility.obj
 0001:001b7dd0       __scrt_dllmain_uninitialize_c 00000001801b8dd0 f   LIBCMT:utility.obj
 0001:001b7e00       __scrt_dllmain_uninitialize_critical 00000001801b8e00 f   LIBCMT:utility.obj
 0001:001b7e14       __scrt_initialize_crt      00000001801b8e14 f   LIBCMT:utility.obj
 0001:001b7e60       __scrt_initialize_onexit_tables 00000001801b8e60 f   LIBCMT:utility.obj
 0001:001b7eec       __scrt_is_nonwritable_in_current_image 00000001801b8eec f   LIBCMT:utility.obj
 0001:001b7f84       __scrt_release_startup_lock 00000001801b8f84 f   LIBCMT:utility.obj
 0001:001b7fa8       __scrt_uninitialize_crt    00000001801b8fa8 f   LIBCMT:utility.obj
 0001:001b7fd4       _onexit                    00000001801b8fd4 f   LIBCMT:utility.obj
 0001:001b8010       atexit                     00000001801b9010 f   LIBCMT:utility.obj
 0001:001b8028       __isa_available_init       00000001801b9028 f   LIBCMT:cpu_disp.obj
 0001:001b84f4       _DllMainCRTStartup         00000001801b94f4 f   LIBCMT:dll_dllmain.obj
 0001:001b8540       __sse2_sinf4@@16           00000001801b9540 f   LIBCMT:svml_ssinf4_sse2.obj
 0001:001b8e80       __sse4_sinf4@@16           00000001801b9e80 f   LIBCMT:svml_ssinf4_sse4.obj
 0001:001b95f4       __scrt_is_ucrt_dll_in_use  00000001801ba5f4 f   LIBCMT:ucrt_detection.obj
 0001:001b9600       __crt_debugger_hook        00000001801ba600 f   LIBCMT:utility_desktop.obj
 0001:001b9608       __scrt_fastfail            00000001801ba608 f   LIBCMT:utility_desktop.obj
 0001:001b9754       __security_init_cookie     00000001801ba754 f   LIBCMT:gs_support.obj
 0001:001b9800       __local_stdio_scanf_options 00000001801ba800 f i LIBCMT:default_local_stdio_options.obj
 0001:001b9808       __scrt_initialize_default_local_stdio_options 00000001801ba808 f   LIBCMT:default_local_stdio_options.obj
 0001:001b9824       __scrt_get_dyn_tls_init_callback 00000001801ba824 f   LIBCMT:dyn_tls_init.obj
 0001:001b982c       _RTC_Initialize            00000001801ba82c f   LIBCMT:initsect.obj
 0001:001b9868       _RTC_Terminate             00000001801ba868 f   LIBCMT:initsect.obj
 0001:001b98b0       __common_ssin_cout_rare    00000001801ba8b0 f   LIBCMT:svml_s_sin_cout.obj
 0001:001b9930       memcpy_repmovs             00000001801ba930 f   libvcruntime:memcpy.obj
 0001:001b9950       memcpy                     00000001801ba950 f   libvcruntime:memcpy.obj
 0001:001b9950       memmove                    00000001801ba950 f   libvcruntime:memcpy.obj
 0001:001b9fc0       _get_purecall_handler      00000001801bafc0 f   libvcruntime:purevirt.obj
 0001:001b9fcc       _purecall                  00000001801bafcc f   libvcruntime:purevirt.obj
 0001:001b9ff0       __std_type_info_compare    00000001801baff0 f   libvcruntime:std_type_info.obj
 0001:001ba018       __std_type_info_destroy_list 00000001801bb018 f   libvcruntime:std_type_info.obj
 0001:001ba044       __std_type_info_name       00000001801bb044 f   libvcruntime:std_type_info.obj
 0001:001ba170       memset_repstos             00000001801bb170 f   libvcruntime:memset.obj
 0001:001ba190       memset                     00000001801bb190 f   libvcruntime:memset.obj
 0001:001ba518       strstr                     00000001801bb518 f   libvcruntime:strstr.obj
 0001:001ba710       __vcrt_initialize          00000001801bb710 f   libvcruntime:initialization.obj
 0001:001ba738       __vcrt_thread_attach       00000001801bb738 f   libvcruntime:initialization.obj
 0001:001ba74c       __vcrt_thread_detach       00000001801bb74c f   libvcruntime:initialization.obj
 0001:001ba75c       __vcrt_uninitialize        00000001801bb75c f   libvcruntime:initialization.obj
 0001:001ba778       __vcrt_uninitialize_critical 00000001801bb778 f   libvcruntime:initialization.obj
 0001:001ba788       __C_specific_handler       00000001801bb788 f   libvcruntime:riscchandler.obj
 0001:001ba980       __DestructExceptionObject  00000001801bb980 f   libvcruntime:ehhelpers.obj
 0001:001ba9f0       ?_CallMemberFunction0@@YAXQEAX0@Z 00000001801bb9f0 f i libvcruntime:ehhelpers.obj
 0001:001ba9f4       _IsExceptionObjectToBeDestroyed 00000001801bb9f4 f   libvcruntime:ehhelpers.obj
 0001:001baa24       __AdjustPointer            00000001801bba24 f   libvcruntime:ehhelpers.obj
 0001:001baa48       __FrameUnwindFilter        00000001801bba48 f   libvcruntime:ehhelpers.obj
 0001:001baab0       __std_terminate            00000001801bbab0 f   libvcruntime:ehhelpers.obj
 0001:001baabc       ??$?0$00@DName@@QEAA@PEBDU?$StringLifeSelector@$00@@@Z 00000001801bbabc f i libvcruntime:undname.obj
 0001:001baafc       ??$?0$01@DName@@QEAA@PEBDU?$StringLifeSelector@$01@@@Z 00000001801bbafc f i libvcruntime:undname.obj
 0001:001baafc       ??$?0$0A@@DName@@QEAA@PEBDU?$StringLifeSelector@$0A@@@@Z 00000001801bbafc f i libvcruntime:undname.obj
 0001:001bab3c       ??$?0$01@pcharNode@@QEAA@PEBDHU?$StringLifeSelector@$01@@@Z 00000001801bbb3c f i libvcruntime:undname.obj
 0001:001bab3c       ??$?0$0A@@pcharNode@@QEAA@PEBDHU?$StringLifeSelector@$0A@@@@Z 00000001801bbb3c f i libvcruntime:undname.obj
 0001:001babb0       ??$append@VDNameNode@@@DName@@AEAAXPEBVDNameNode@@@Z 00000001801bbbb0 f i libvcruntime:undname.obj
 0001:001babb0       ??$append@VDNameStatusNode@@@DName@@AEAAXPEBVDNameStatusNode@@@Z 00000001801bbbb0 f i libvcruntime:undname.obj
 0001:001babb0       ??$append@VcharNode@@@DName@@AEAAXPEBVcharNode@@@Z 00000001801bbbb0 f i libvcruntime:undname.obj
 0001:001babb0       ??$append@VpcharNode@@@DName@@AEAAXPEBVpcharNode@@@Z 00000001801bbbb0 f i libvcruntime:undname.obj
 0001:001bac14       ??$doPchar@$00@DName@@AEAAXPEBDH@Z 00000001801bbc14 f i libvcruntime:undname.obj
 0001:001bacb8       ??$doPchar@$01@DName@@AEAAXPEBDH@Z 00000001801bbcb8 f i libvcruntime:undname.obj
 0001:001bacb8       ??$doPchar@$0A@@DName@@AEAAXPEBDH@Z 00000001801bbcb8 f i libvcruntime:undname.obj
 0001:001bad50       ??0DName@@QEAA@AEAPEBDD@Z  00000001801bbd50 f   libvcruntime:undname.obj
 0001:001bae00       ??0DName@@QEAA@AEBUStringLiteral@@@Z 00000001801bbe00 f   libvcruntime:undname.obj
 0001:001bae2c       ??0DName@@QEAA@PEAV0@@Z    00000001801bbe2c f   libvcruntime:undname.obj
 0001:001baeb0       ??0DName@@QEAA@_J@Z        00000001801bbeb0 f   libvcruntime:undname.obj
 0001:001baf58       ??0DName@@QEAA@_K@Z        00000001801bbf58 f   libvcruntime:undname.obj
 0001:001bafe0       ??0UnDecorator@@QEAA@PEBDP6APEADJ@ZK@Z 00000001801bbfe0 f i libvcruntime:undname.obj
 0001:001bb094       ??2@YAPEAX_KAEAV_HeapManager@@H@Z 00000001801bc094 f   libvcruntime:undname.obj
 0001:001bb0c0       ??4DName@@QEAAAEAV0@W4DNameStatus@@@Z 00000001801bc0c0 f   libvcruntime:undname.obj
 0001:001bb0f0       ??AReplicator@@QEBA?AVDName@@H@Z 00000001801bc0f0 f   libvcruntime:undname.obj
 0001:001bb130       ??HDName@@QEBA?AV0@AEBUStringLiteral@@@Z 00000001801bc130 f   libvcruntime:undname.obj
 0001:001bb15c       ??HDName@@QEBA?AV0@AEBV0@@Z 00000001801bc15c f   libvcruntime:undname.obj
 0001:001bb188       ??HDName@@QEBA?AV0@D@Z     00000001801bc188 f   libvcruntime:undname.obj
 0001:001bb1b4       ??HDName@@QEBA?AV0@W4DNameStatus@@@Z 00000001801bc1b4 f   libvcruntime:undname.obj
 0001:001bb1e0       ??YDName@@QEAAAEAV0@AEBUStringLiteral@@@Z 00000001801bc1e0 f   libvcruntime:undname.obj
 0001:001bb260       ??YDName@@QEAAAEAV0@AEBV0@@Z 00000001801bc260 f   libvcruntime:undname.obj
 0001:001bb2b8       ??YDName@@QEAAAEAV0@D@Z    00000001801bc2b8 f   libvcruntime:undname.obj
 0001:001bb324       ??YDName@@QEAAAEAV0@W4DNameStatus@@@Z 00000001801bc324 f   libvcruntime:undname.obj
 0001:001bb37c       ??YReplicator@@QEAAAEAV0@AEBVDName@@@Z 00000001801bc37c f   libvcruntime:undname.obj
 0001:001bb3d4       ?UScore@UnDecorator@@SA?AUStringLiteral@@W4Tokens@@@Z 00000001801bc3d4 f   libvcruntime:undname.obj
 0001:001bb420       ?composeDeclaration@UnDecorator@@CA?AVDName@@AEBV2@@Z 00000001801bc420 f i libvcruntime:undname.obj
 0001:001bc314       ?doPchar@DName@@AEAAXD@Z   00000001801bd314 f   libvcruntime:undname.obj
 0001:001bc364       ?getAddressOf@UnDecorator@@CA?AVDName@@XZ 00000001801bd364 f   libvcruntime:undname.obj
 0001:001bc3f4       ?getArgumentList@UnDecorator@@CA?AVDName@@XZ 00000001801bd3f4 f   libvcruntime:undname.obj
 0001:001bc5a8       ?getArgumentTypes@UnDecorator@@CA?AVDName@@XZ 00000001801bd5a8 f   libvcruntime:undname.obj
 0001:001bc6f4       ?getArrayAccess@UnDecorator@@CA?AVDName@@XZ 00000001801bd6f4 f   libvcruntime:undname.obj
 0001:001bc790       ?getArrayObject@UnDecorator@@CA?AVDName@@XZ 00000001801bd790 f   libvcruntime:undname.obj
 0001:001bc84c       ?getArrayType@UnDecorator@@CA?AVDName@@AEBV2@@Z 00000001801bd84c f i libvcruntime:undname.obj
 0001:001bcab8       ?getBasedType@UnDecorator@@CA?AVDName@@XZ 00000001801bdab8 f   libvcruntime:undname.obj
 0001:001bcbb0       ?getBasicDataType@UnDecorator@@CA?AVDName@@AEBV2@@Z 00000001801bdbb0 f   libvcruntime:undname.obj
 0001:001bd1b4       ?getCallingConvention@UnDecorator@@CA?AVDName@@XZ 00000001801be1b4 f   libvcruntime:undname.obj
 0001:001bd2ec       ?getDataIndirectType@UnDecorator@@CA?AVDName@@AEBV2@W4IndirectionKind@@0H@Z 00000001801be2ec f   libvcruntime:undname.obj
 0001:001bdc10       ?getDataType@UnDecorator@@CA?AVDName@@PEAV2@@Z 00000001801bec10 f   libvcruntime:undname.obj
 0001:001bdd24       ?getDecoratedName@UnDecorator@@CA?AVDName@@XZ 00000001801bed24 f   libvcruntime:undname.obj
 0001:001be00c       ?getDimension@UnDecorator@@CA?AVDName@@_N@Z 00000001801bf00c f   libvcruntime:undname.obj
 0001:001be154       ?getDispatchTarget@UnDecorator@@CA?AVDName@@XZ 00000001801bf154 f   libvcruntime:undname.obj
 0001:001be1b4       ?getECSUDataType@UnDecorator@@CA?AVDName@@XZ 00000001801bf1b4 f   libvcruntime:undname.obj
 0001:001be3b0       ?getEnumType@UnDecorator@@CA?AVDName@@XZ 00000001801bf3b0 f i libvcruntime:undname.obj
 0001:001be4e0       ?getExtendedDataIndirectType@UnDecorator@@CA?AVDName@@AEAW4IndirectionKind@@AEA_NH@Z 00000001801bf4e0 f   libvcruntime:undname.obj
 0001:001be6e4       ?getExternalDataType@UnDecorator@@CA?AVDName@@AEBV2@@Z 00000001801bf6e4 f i libvcruntime:undname.obj
 0001:001be7a4       ?getFloatingPoint@UnDecorator@@CA?AVDName@@H@Z 00000001801bf7a4 f   libvcruntime:undname.obj
 0001:001be90c       ?getFunctionIndirectType@UnDecorator@@CA?AVDName@@AEBV2@@Z 00000001801bf90c f   libvcruntime:undname.obj
 0001:001bee40       ?getLastChar@DNameStatusNode@@UEBADXZ 00000001801bfe40 f i libvcruntime:undname.obj
 0001:001bee4c       ?getLastChar@charNode@@UEBADXZ 00000001801bfe4c f i libvcruntime:undname.obj
 0001:001bee50       ?getLastChar@pDNameNode@@UEBADXZ 00000001801bfe50 f i libvcruntime:undname.obj
 0001:001bee7c       ?getLastChar@pairNode@@UEBADXZ 00000001801bfe7c f i libvcruntime:undname.obj
 0001:001beeb4       ?getLastChar@pcharNode@@UEBADXZ 00000001801bfeb4 f i libvcruntime:undname.obj
 0001:001beec8       ?getLexicalFrame@UnDecorator@@CA?AVDName@@XZ 00000001801bfec8 f i libvcruntime:undname.obj
 0001:001bef2c       ?getMemberAccess@UnDecorator@@CA?AVDName@@XZ 00000001801bff2c f   libvcruntime:undname.obj
 0001:001befc0       ?getMemoryWithBuffer@_HeapManager@@QEAAPEAX_K@Z 00000001801bffc0 f   libvcruntime:undname.obj
 0001:001bf050       ?getNoexcept@UnDecorator@@CA?AVDName@@XZ 00000001801c0050 f   libvcruntime:undname.obj
 0001:001bf0b4       ?getNumberOfDimensions@UnDecorator@@CAHXZ 00000001801c00b4 f   libvcruntime:undname.obj
 0001:001bf11c       ?getOperatorName@UnDecorator@@CA?AVDName@@_NPEA_N@Z 00000001801c011c f i libvcruntime:undname.obj
 0001:001bfacc       ?getPointerToMember@UnDecorator@@CA?AVDName@@XZ 00000001801c0acc f   libvcruntime:undname.obj
 0001:001bfbc4       ?getPrimaryDataType@UnDecorator@@CA?AVDName@@AEBV2@@Z 00000001801c0bc4 f   libvcruntime:undname.obj
 0001:001bfe7c       ?getPtrRefDataType@UnDecorator@@CA?AVDName@@AEBV2@H@Z 00000001801c0e7c f   libvcruntime:undname.obj
 0001:001c0048       ?getPtrRefType@UnDecorator@@CA?AVDName@@AEBV2@0W4IndirectionKind@@@Z 00000001801c1048 f   libvcruntime:undname.obj
 0001:001c0220       ?getRestrictionSpec@UnDecorator@@CA?AVDName@@XZ 00000001801c1220 f   libvcruntime:undname.obj
 0001:001c03fc       ?getReturnType@UnDecorator@@CA?AVDName@@PEAV2@@Z 00000001801c13fc f   libvcruntime:undname.obj
 0001:001c0430       ?getScope@UnDecorator@@CA?AVDName@@XZ 00000001801c1430 f   libvcruntime:undname.obj
 0001:001c08e8       ?getScopedName@UnDecorator@@CA?AVDName@@XZ 00000001801c18e8 f   libvcruntime:undname.obj
 0001:001c0a2c       ?getSignedDimension@UnDecorator@@CA?AVDName@@XZ 00000001801c1a2c f   libvcruntime:undname.obj
 0001:001c0ab4       ?getString@DNameStatusNode@@UEBAPEADPEAD0@Z 00000001801c1ab4 f i libvcruntime:undname.obj
 0001:001c0afc       ?getString@charNode@@UEBAPEADPEAD0@Z 00000001801c1afc f i libvcruntime:undname.obj
 0001:001c0b10       ?getString@pDNameNode@@UEBAPEADPEAD0@Z 00000001801c1b10 f i libvcruntime:undname.obj
 0001:001c0b40       ?getString@pairNode@@UEBAPEADPEAD0@Z 00000001801c1b40 f i libvcruntime:undname.obj
 0001:001c0b8c       ?getString@pcharNode@@UEBAPEADPEAD0@Z 00000001801c1b8c f i libvcruntime:undname.obj
 0001:001c0bc4       ?getStringEncoding@UnDecorator@@CA?AVDName@@W4PrefixKind@@H@Z 00000001801c1bc4 f   libvcruntime:undname.obj
 0001:001c0cd4       ?getStringObject@UnDecorator@@CA?AVDName@@XZ 00000001801c1cd4 f   libvcruntime:undname.obj
 0001:001c0d3c       ?getSymbolName@UnDecorator@@CA?AVDName@@XZ 00000001801c1d3c f i libvcruntime:undname.obj
 0001:001c0d88       ?getTemplateArgumentList@UnDecorator@@CA?AVDName@@XZ 00000001801c1d88 f   libvcruntime:undname.obj
 0001:001c0fa4       ?getTemplateName@UnDecorator@@CA?AVDName@@_N@Z 00000001801c1fa4 f   libvcruntime:undname.obj
 0001:001c126c       ?getTemplateNonTypeArgument@UnDecorator@@CA?AVDName@@XZ 00000001801c226c f   libvcruntime:undname.obj
 0001:001c17bc       ?getTemplateTypeArgument@UnDecorator@@CA?AVDName@@XZ 00000001801c27bc f   libvcruntime:undname.obj
 0001:001c1924       ?getThrowTypes@UnDecorator@@CA?AVDName@@XZ 00000001801c2924 f   libvcruntime:undname.obj
 0001:001c1948       ?getTypeEncoding@UnDecorator@@CAHXZ 00000001801c2948 f i libvcruntime:undname.obj
 0001:001c1d04       ?getUndecoratedName@UnDecorator@@QEAAPEADPEADH@Z 00000001801c2d04 f i libvcruntime:undname.obj
 0001:001c1e58       ?getUnionObject@UnDecorator@@CA?AVDName@@XZ 00000001801c2e58 f   libvcruntime:undname.obj
 0001:001c1f30       ?getVCallThunkType@UnDecorator@@CA?AVDName@@XZ 00000001801c2f30 f i libvcruntime:undname.obj
 0001:001c1fa8       ?getValue@UnDecorator@@CA?AV?$optional@_K@std@@XZ 00000001801c2fa8 f   libvcruntime:undname.obj
 0001:001c1fec       ?getValueObject@UnDecorator@@CA?AVDName@@XZ 00000001801c2fec f   libvcruntime:undname.obj
 0001:001c212c       ?getVdispMapType@UnDecorator@@CA?AVDName@@AEBV2@@Z 00000001801c312c f i libvcruntime:undname.obj
 0001:001c21a8       ?getVfTableType@UnDecorator@@CA?AVDName@@AEBV2@@Z 00000001801c31a8 f i libvcruntime:undname.obj
 0001:001c23b4       ?getZName@UnDecorator@@CA?AVDName@@_N0@Z 00000001801c33b4 f   libvcruntime:undname.obj
 0001:001c2688       ?length@pDNameNode@@UEBAHXZ 00000001801c3688 f i libvcruntime:undname.obj
 0001:001c26b0       ?length@pairNode@@UEBAHXZ  00000001801c36b0 f i libvcruntime:undname.obj
 0001:001c26f8       ?parseDecoratedName@UnDecorator@@CA?AVDName@@XZ 00000001801c36f8 f   libvcruntime:undname.obj
 0001:001c2810       ?raw_length@pDNameNode@@UEBAHXZ 00000001801c3810 f i libvcruntime:undname.obj
 0001:001c2814       ?raw_length@pairNode@@UEBAHXZ 00000001801c3814 f i libvcruntime:undname.obj
 0001:001c2818       __unDName                  00000001801c3818 f   libvcruntime:undname.obj
 0001:001c2840       __unDNameEx                00000001801c3840 f   libvcruntime:undname.obj
 0001:001c2930       snprintf                   00000001801c3930 f i libvcruntime:undname.obj
 0001:001c2988       sprintf_s                  00000001801c3988 f i libvcruntime:undname.obj
 0001:001c29dc       __vcrt_freefls             00000001801c39dc f   libvcruntime:per_thread_data.obj
 0001:001c29fc       __vcrt_freeptd_for_this_thread 00000001801c39fc f   libvcruntime:per_thread_data.obj
 0001:001c2a44       __vcrt_getptd              00000001801c3a44 f   libvcruntime:per_thread_data.obj
 0001:001c2a60       __vcrt_getptd_noexit       00000001801c3a60 f   libvcruntime:per_thread_data.obj
 0001:001c2b20       __vcrt_initialize_ptd      00000001801c3b20 f   libvcruntime:per_thread_data.obj
 0001:001c2b68       __vcrt_uninitialize_ptd    00000001801c3b68 f   libvcruntime:per_thread_data.obj
 0001:001c2b8c       __vcrt_initialize_locks    00000001801c3b8c f   libvcruntime:locks.obj
 0001:001c2bd4       __vcrt_lock                00000001801c3bd4 f   libvcruntime:locks.obj
 0001:001c2bf0       __vcrt_uninitialize_locks  00000001801c3bf0 f   libvcruntime:locks.obj
 0001:001c2c28       __vcrt_unlock              00000001801c3c28 f   libvcruntime:locks.obj
 0001:001c2c60       _NLG_Notify                00000001801c3c60 f   libvcruntime:notify.obj
 0001:001c2c80       __NLG_Dispatch2            00000001801c3c80 f   libvcruntime:notify.obj
 0001:001c2c90       __NLG_Return2              00000001801c3c90 f   libvcruntime:notify.obj
 0001:001c2c94       __except_validate_context_record 00000001801c3c94 f   libvcruntime:jbcxrval.obj
 0001:001c2ccc       ??$_CallSETranslator@V__FrameHandler3@@@@YAHPEAUEHExceptionRecord@@PEA_KPEAU_CONTEXT@@PEAU_xDISPATCHER_CONTEXT@@PEBU_s_FuncInfo@@K1H@Z 00000001801c3ccc f i libvcruntime:risctrnsctrl.obj
 0001:001c2d20       ??$_CallSETranslator@V__FrameHandler4@@@@YAHPEAUEHExceptionRecord@@PEA_KPEAU_CONTEXT@@PEAU_xDISPATCHER_CONTEXT@@PEAUFuncInfo4@FH4@@K1H@Z 00000001801c3d20 f i libvcruntime:risctrnsctrl.obj
 0001:001c2d74       ?CatchTryBlock@__FrameHandler3@@SAPEBU_s_TryBlockMapEntry@@PEBU_s_FuncInfo@@H@Z 00000001801c3d74 f   libvcruntime:risctrnsctrl.obj
 0001:001c2dd8       ?DecompFuncInfo@FH4@@YA_JPEAEAEAUFuncInfo4@1@_KH_N@Z 00000001801c3dd8 f i libvcruntime:risctrnsctrl.obj
 0001:001c2f0c       ?ExecutionInCatch@__FrameHandler3@@SA_NPEAU_xDISPATCHER_CONTEXT@@PEBU_s_FuncInfo@@@Z 00000001801c3f0c f   libvcruntime:risctrnsctrl.obj
 0001:001c2f38       ?ExecutionInCatch@__FrameHandler4@@SA_NPEAU_xDISPATCHER_CONTEXT@@PEAUFuncInfo4@FH4@@@Z 00000001801c3f38 f   libvcruntime:risctrnsctrl.obj
 0001:001c2f40       ?FrameUnwindToEmptyState@__FrameHandler3@@SAXPEA_KPEAU_xDISPATCHER_CONTEXT@@PEBU_s_FuncInfo@@@Z 00000001801c3f40 f   libvcruntime:risctrnsctrl.obj
 0001:001c2fa4       ?FrameUnwindToEmptyState@__FrameHandler4@@SAXPEA_KPEAU_xDISPATCHER_CONTEXT@@PEAUFuncInfo4@FH4@@@Z 00000001801c3fa4 f   libvcruntime:risctrnsctrl.obj
 0001:001c2fd8       ?GetEstablisherFrame@__FrameHandler3@@SAPEA_KPEA_KPEAU_xDISPATCHER_CONTEXT@@PEBU_s_FuncInfo@@0@Z 00000001801c3fd8 f   libvcruntime:risctrnsctrl.obj
 0001:001c30a4       ?GetEstablisherFrame@__FrameHandler4@@SAPEA_KPEA_KPEAU_xDISPATCHER_CONTEXT@@PEAUFuncInfo4@FH4@@0@Z 00000001801c40a4 f   libvcruntime:risctrnsctrl.obj
 0001:001c30c8       ?GetRangeOfTrysToCheck@__FrameHandler3@@SA?AU?$pair@Viterator@TryBlockMap@__FrameHandler3@@V123@@std@@AEAVTryBlockMap@1@HPEAU_xDISPATCHER_CONTEXT@@PEBU_s_FuncInfo@@H@Z 00000001801c40c8 f   libvcruntime:risctrnsctrl.obj
 0001:001c3208       ?GetRangeOfTrysToCheck@__FrameHandler4@@SA?AU?$pair@Viterator@TryBlockMap4@FH4@@V123@@std@@AEAVTryBlockMap4@FH4@@HPEAU_xDISPATCHER_CONTEXT@@PEAUFuncInfo4@5@H@Z 00000001801c4208 f   libvcruntime:risctrnsctrl.obj
 0001:001c3374       ?UnwindNestedFrames@__FrameHandler3@@SAXPEA_KPEAUEHExceptionRecord@@PEAU_CONTEXT@@0PEAXPEBU_s_FuncInfo@@HHPEBU_s_HandlerType@@PEAU_xDISPATCHER_CONTEXT@@E@Z 00000001801c4374 f   libvcruntime:risctrnsctrl.obj
 0001:001c3478       ?UnwindNestedFrames@__FrameHandler4@@SAXPEA_KPEAUEHExceptionRecord@@PEAU_CONTEXT@@0PEAXPEAUFuncInfo4@FH4@@HHPEAUHandlerType4@5@PEAU_xDISPATCHER_CONTEXT@@E@Z 00000001801c4478 f   libvcruntime:risctrnsctrl.obj
 0001:001c3598       ?setBuffer@TryBlockMap4@FH4@@QEAAXViterator@12@@Z 00000001801c4598 f i libvcruntime:risctrnsctrl.obj
 0001:001c375c       _CreateFrameInfo           00000001801c475c f   libvcruntime:risctrnsctrl.obj
 0001:001c3798       _FindAndUnlinkFrame        00000001801c4798 f   libvcruntime:risctrnsctrl.obj
 0001:001c37ec       _GetImageBase              00000001801c47ec f   libvcruntime:risctrnsctrl.obj
 0001:001c3800       _GetThrowImageBase         00000001801c4800 f   libvcruntime:risctrnsctrl.obj
 0001:001c3814       _SetImageBase              00000001801c4814 f   libvcruntime:risctrnsctrl.obj
 0001:001c382c       _SetThrowImageBase         00000001801c482c f   libvcruntime:risctrnsctrl.obj
 0001:001c3844       __CxxFrameHandler3         00000001801c4844 f   libvcruntime:risctrnsctrl.obj
 0001:001c38cc       __CxxFrameHandler4         00000001801c48cc f   libvcruntime:risctrnsctrl.obj
 0001:001c3adc       __vcrt_FlsAlloc            00000001801c4adc f   libvcruntime:winapi_downlevel.obj
 0001:001c3b24       __vcrt_FlsFree             00000001801c4b24 f   libvcruntime:winapi_downlevel.obj
 0001:001c3b6c       __vcrt_FlsGetValue         00000001801c4b6c f   libvcruntime:winapi_downlevel.obj
 0001:001c3bb4       __vcrt_FlsSetValue         00000001801c4bb4 f   libvcruntime:winapi_downlevel.obj
 0001:001c3c08       __vcrt_InitializeCriticalSectionEx 00000001801c4c08 f   libvcruntime:winapi_downlevel.obj
 0001:001c3c6c       ?GetCurrentState@__FrameHandler3@@SAHPEA_KPEAU_xDISPATCHER_CONTEXT@@PEBU_s_FuncInfo@@@Z 00000001801c4c6c f   libvcruntime:ehstate.obj
 0001:001c3c94       ?GetUnwindTryBlock@__FrameHandler3@@SAHPEA_KPEAU_xDISPATCHER_CONTEXT@@PEBU_s_FuncInfo@@@Z 00000001801c4c94 f   libvcruntime:ehstate.obj
 0001:001c3cc0       ?SetState@__FrameHandler3@@SAXPEA_KPEBU_s_FuncInfo@@H@Z 00000001801c4cc0 f   libvcruntime:ehstate.obj
 0001:001c3ccc       ?SetUnwindTryBlock@__FrameHandler3@@SAXPEA_KPEAU_xDISPATCHER_CONTEXT@@PEBU_s_FuncInfo@@H@Z 00000001801c4ccc f   libvcruntime:ehstate.obj
 0001:001c3d08       ?StateFromControlPc@__FrameHandler3@@SAHPEBU_s_FuncInfo@@PEAU_xDISPATCHER_CONTEXT@@@Z 00000001801c4d08 f   libvcruntime:ehstate.obj
 0001:001c3d10       ?StateFromControlPc@__FrameHandler4@@SAHPEAUFuncInfo4@FH4@@PEAU_xDISPATCHER_CONTEXT@@@Z 00000001801c4d10 f   libvcruntime:ehstate.obj
 0001:001c3d18       ?StateFromIp@__FrameHandler3@@SAHPEBU_s_FuncInfo@@PEAU_xDISPATCHER_CONTEXT@@_K@Z 00000001801c4d18 f   libvcruntime:ehstate.obj
 0001:001c3d80       ?StateFromIp@__FrameHandler4@@SAHPEAUFuncInfo4@FH4@@PEAU_xDISPATCHER_CONTEXT@@_K@Z 00000001801c4d80 f   libvcruntime:ehstate.obj
 0001:001c5480       ??$TypeMatchHelper@V__FrameHandler3@@@@YAHPEBU_s_HandlerType@@PEBU_s_CatchableType@@PEBU_s_ThrowInfo@@@Z 00000001801c6480 f i libvcruntime:frame.obj
 0001:001c55c0       ??$TypeMatchHelper@V__FrameHandler4@@@@YAHPEAUHandlerType4@FH4@@PEBU_s_CatchableType@@PEBU_s_ThrowInfo@@@Z 00000001801c65c0 f i libvcruntime:frame.obj
 0001:001c5704       ??$__InternalCxxFrameHandler@V__FrameHandler3@@@@YA?AW4_EXCEPTION_DISPOSITION@@PEAUEHExceptionRecord@@PEA_KPEAU_CONTEXT@@PEAU_xDISPATCHER_CONTEXT@@PEBU_s_FuncInfo@@H1E@Z 00000001801c6704 f i libvcruntime:frame.obj
 0001:001c593c       ??$__InternalCxxFrameHandler@V__FrameHandler4@@@@YA?AW4_EXCEPTION_DISPOSITION@@PEAUEHExceptionRecord@@PEA_KPEAU_CONTEXT@@PEAU_xDISPATCHER_CONTEXT@@PEAUFuncInfo4@FH4@@H1E@Z 00000001801c693c f i libvcruntime:frame.obj
 0001:001c5bd0       ??$__InternalCxxFrameHandlerWrapper@V__FrameHandler3@@@@YA?AW4_EXCEPTION_DISPOSITION@@PEAUEHExceptionRecord@@PEA_KPEAU_CONTEXT@@PEAU_xDISPATCHER_CONTEXT@@PEBU_s_FuncInfo@@H1E@Z 00000001801c6bd0 f i libvcruntime:frame.obj
 0001:001c5bd8       ??$__InternalCxxFrameHandlerWrapper@V__FrameHandler4@@@@YA?AW4_EXCEPTION_DISPOSITION@@PEAUEHExceptionRecord@@PEA_KPEAU_CONTEXT@@PEAU_xDISPATCHER_CONTEXT@@PEAUFuncInfo4@FH4@@H1E@Z 00000001801c6bd8 f i libvcruntime:frame.obj
 0001:001c5c24       ??0HandlerMap4@FH4@@QEAA@PEBUTryBlockMapEntry4@1@_KH@Z 00000001801c6c24 f i libvcruntime:frame.obj
 0001:001c5ca8       ??0TryBlockMap4@FH4@@QEAA@PEBUFuncInfo4@1@_K@Z 00000001801c6ca8 f i libvcruntime:frame.obj
 0001:001c5d8c       ??0bad_exception@std@@QEAA@AEBV01@@Z 00000001801c6d8c f i libvcruntime:frame.obj
 0001:001c5dc8       ??0bad_exception@std@@QEAA@XZ 00000001801c6dc8 f i libvcruntime:frame.obj
 0001:001c5de8       ??0exception@std@@QEAA@AEBV01@@Z 00000001801c6de8 f i libvcruntime:frame.obj
 0001:001c5e1c       ??1bad_exception@std@@UEAA@XZ 00000001801c6e1c f i libvcruntime:frame.obj
 0001:001c5e30       ??_Ebad_exception@std@@UEAAPEAXI@Z 00000001801c6e30 f i libvcruntime:frame.obj
 0001:001c5e30       ??_Eexception@std@@UEAAPEAXI@Z 00000001801c6e30 f i libvcruntime:frame.obj
 0001:001c5e30       ??_Gbad_exception@std@@UEAAPEAXI@Z 00000001801c6e30 f i libvcruntime:frame.obj
 0001:001c5e30       ??_Gexception@std@@UEAAPEAXI@Z 00000001801c6e30 f i libvcruntime:frame.obj
 0001:001c5e74       ?CxxCallCatchBlock@__FrameHandler3@@SAPEAXPEAU_EXCEPTION_RECORD@@@Z 00000001801c6e74 f   libvcruntime:frame.obj
 0001:001c6060       ?CxxCallCatchBlock@__FrameHandler4@@SAPEAXPEAU_EXCEPTION_RECORD@@@Z 00000001801c7060 f   libvcruntime:frame.obj
 0001:001c62b0       ?DecompHandler@HandlerMap4@FH4@@AEAAXXZ 00000001801c72b0 f i libvcruntime:frame.obj
 0001:001c64fc       ?FrameUnwindToState@__FrameHandler3@@SAXPEA_KPEAU_xDISPATCHER_CONTEXT@@PEBU_s_FuncInfo@@H@Z 00000001801c74fc f   libvcruntime:frame.obj
 0001:001c6688       ?FrameUnwindToState@__FrameHandler4@@SAXPEA_KPEAU_xDISPATCHER_CONTEXT@@PEAUFuncInfo4@FH4@@H@Z 00000001801c7688 f   libvcruntime:frame.obj
 0001:001c698c       ?GetHandlerSearchState@__FrameHandler3@@SAHPEA_KPEAU_xDISPATCHER_CONTEXT@@PEBU_s_FuncInfo@@@Z 00000001801c798c f i libvcruntime:frame.obj
 0001:001c6b9c       ?ReadEntry@UWMap4@FH4@@AEAAXPEAPEAE@Z 00000001801c7b9c f i libvcruntime:frame.obj
 0001:001c6c38       ?_CallMemberFunction1@@YAXQEAX00@Z 00000001801c7c38 f i libvcruntime:frame.obj
 0001:001c6c44       ?_CallMemberFunction2@@YAXQEAX00H@Z 00000001801c7c44 f i libvcruntime:frame.obj
 0001:001c6c54       ?getStartStop@UWMap4@FH4@@QEAAXHHAEAViterator@12@0@Z 00000001801c7c54 f i libvcruntime:frame.obj
 0001:001c6d24       ?getStateFromIterators@UWMap4@FH4@@SAHAEBViterator@12@H0H0@Z 00000001801c7d24 f i libvcruntime:frame.obj
 0001:001c6dd4       ?what@exception@std@@UEBAPEBDXZ 00000001801c7dd4 f i libvcruntime:frame.obj
 0001:001c6e00       _CallSettingFrame          00000001801c7e00 f   libvcruntime:handlers.obj
 0001:001c6e50       _CallSettingFrame_LookupContinuationIndex 00000001801c7e50 f   libvcruntime:handlers.obj
 0001:001c6e80       _CallSettingFrame_NotifyContinuationAddr 00000001801c7e80 f   libvcruntime:handlers.obj
 0001:001c6eb0       _CallSettingFrameEncoded   00000001801c7eb0 f   libvcruntime:handlers.obj
 0001:001c6ef8       __std_exception_copy       00000001801c7ef8 f   libvcruntime:std_exception.obj
 0001:001c6f88       __std_exception_destroy    00000001801c7f88 f   libvcruntime:std_exception.obj
 0001:001c6fb0       _CxxThrowException         00000001801c7fb0 f   libvcruntime:throw.obj
 0001:001c7060       cosf                       00000001801c8060 f   libucrt:cosf.obj
 0001:001c7560       sinf                       00000001801c8560 f   libucrt:sinf.obj
 0001:001c7c60       tanf                       00000001801c8c60 f   libucrt:tanf.obj
 0001:001c82d4       __acrt_initialize_stdio    00000001801c92d4 f   libucrt:_file.obj
 0001:001c83f4       __acrt_iob_func            00000001801c93f4 f   libucrt:_file.obj
 0001:001c8408       __acrt_uninitialize_stdio  00000001801c9408 f   libucrt:_file.obj
 0001:001c8464       _lock_file                 00000001801c9464 f   libucrt:_file.obj
 0001:001c8470       _unlock_file               00000001801c9470 f   libucrt:_file.obj
 0001:001c866c       ??$ensure_buffer_is_big_enough@D@formatting_buffer@__crt_stdio_output@@QEAA_N_KAEAV__crt_cached_ptd_host@@@Z 00000001801c966c f i libucrt:output.obj
 0001:001c8714       ??$parse_integer@KV?$c_string_character_source@D@__crt_strtox@@$0A@@__crt_strtox@@YAKAEAV__crt_cached_ptd_host@@V?$c_string_character_source@D@0@H_N@Z 00000001801c9714 f i libucrt:output.obj
 0001:001c89c4       ??$type_case_integer@$07@?$output_processor@DV?$stream_output_adapter@D@__crt_stdio_output@@V?$standard_base@DV?$stream_output_adapter@D@__crt_stdio_output@@@2@@__crt_stdio_output@@AEAA_N_N@Z 00000001801c99c4 f i libucrt:output.obj
 0001:001c89c4       ??$type_case_integer@$07@?$output_processor@DV?$string_output_adapter@D@__crt_stdio_output@@V?$format_validation_base@DV?$string_output_adapter@D@__crt_stdio_output@@@2@@__crt_stdio_output@@AEAA_N_N@Z 00000001801c99c4 f i libucrt:output.obj
 0001:001c89c4       ??$type_case_integer@$07@?$output_processor@DV?$string_output_adapter@D@__crt_stdio_output@@V?$standard_base@DV?$string_output_adapter@D@__crt_stdio_output@@@2@@__crt_stdio_output@@AEAA_N_N@Z 00000001801c99c4 f i libucrt:output.obj
 0001:001c8bac       ??$type_case_integer@$09@?$output_processor@DV?$stream_output_adapter@D@__crt_stdio_output@@V?$standard_base@DV?$stream_output_adapter@D@__crt_stdio_output@@@2@@__crt_stdio_output@@AEAA_N_N@Z 00000001801c9bac f i libucrt:output.obj
 0001:001c8bac       ??$type_case_integer@$09@?$output_processor@DV?$string_output_adapter@D@__crt_stdio_output@@V?$format_validation_base@DV?$string_output_adapter@D@__crt_stdio_output@@@2@@__crt_stdio_output@@AEAA_N_N@Z 00000001801c9bac f i libucrt:output.obj
 0001:001c8bac       ??$type_case_integer@$09@?$output_processor@DV?$string_output_adapter@D@__crt_stdio_output@@V?$standard_base@DV?$string_output_adapter@D@__crt_stdio_output@@@2@@__crt_stdio_output@@AEAA_N_N@Z 00000001801c9bac f i libucrt:output.obj
 0001:001c8d94       ??$type_case_integer@$0BA@@?$output_processor@DV?$stream_output_adapter@D@__crt_stdio_output@@V?$standard_base@DV?$stream_output_adapter@D@__crt_stdio_output@@@2@@__crt_stdio_output@@AEAA_N_N@Z 00000001801c9d94 f i libucrt:output.obj
 0001:001c8d94       ??$type_case_integer@$0BA@@?$output_processor@DV?$string_output_adapter@D@__crt_stdio_output@@V?$format_validation_base@DV?$string_output_adapter@D@__crt_stdio_output@@@2@@__crt_stdio_output@@AEAA_N_N@Z 00000001801c9d94 f i libucrt:output.obj
 0001:001c8d94       ??$type_case_integer@$0BA@@?$output_processor@DV?$string_output_adapter@D@__crt_stdio_output@@V?$standard_base@DV?$string_output_adapter@D@__crt_stdio_output@@@2@@__crt_stdio_output@@AEAA_N_N@Z 00000001801c9d94 f i libucrt:output.obj
 0001:001c8f7c       ??$type_case_integer_parse_into_buffer@I$07@?$output_processor@DV?$stream_output_adapter@D@__crt_stdio_output@@V?$standard_base@DV?$stream_output_adapter@D@__crt_stdio_output@@@2@@__crt_stdio_output@@AEAAXI_N@Z 00000001801c9f7c f i libucrt:output.obj
 0001:001c8f7c       ??$type_case_integer_parse_into_buffer@I$07@?$output_processor@DV?$string_output_adapter@D@__crt_stdio_output@@V?$format_validation_base@DV?$string_output_adapter@D@__crt_stdio_output@@@2@@__crt_stdio_output@@AEAAXI_N@Z 00000001801c9f7c f i libucrt:output.obj
 0001:001c8f7c       ??$type_case_integer_parse_into_buffer@I$07@?$output_processor@DV?$string_output_adapter@D@__crt_stdio_output@@V?$standard_base@DV?$string_output_adapter@D@__crt_stdio_output@@@2@@__crt_stdio_output@@AEAAXI_N@Z 00000001801c9f7c f i libucrt:output.obj
 0001:001c8ff8       ??$type_case_integer_parse_into_buffer@I$09@?$output_processor@DV?$stream_output_adapter@D@__crt_stdio_output@@V?$standard_base@DV?$stream_output_adapter@D@__crt_stdio_output@@@2@@__crt_stdio_output@@AEAAXI_N@Z 00000001801c9ff8 f i libucrt:output.obj
 0001:001c8ff8       ??$type_case_integer_parse_into_buffer@I$09@?$output_processor@DV?$string_output_adapter@D@__crt_stdio_output@@V?$format_validation_base@DV?$string_output_adapter@D@__crt_stdio_output@@@2@@__crt_stdio_output@@AEAAXI_N@Z 00000001801c9ff8 f i libucrt:output.obj
 0001:001c8ff8       ??$type_case_integer_parse_into_buffer@I$09@?$output_processor@DV?$string_output_adapter@D@__crt_stdio_output@@V?$standard_base@DV?$string_output_adapter@D@__crt_stdio_output@@@2@@__crt_stdio_output@@AEAAXI_N@Z 00000001801c9ff8 f i libucrt:output.obj
 0001:001c90a0       ??$type_case_integer_parse_into_buffer@I$0BA@@?$output_processor@DV?$stream_output_adapter@D@__crt_stdio_output@@V?$standard_base@DV?$stream_output_adapter@D@__crt_stdio_output@@@2@@__crt_stdio_output@@AEAAXI_N@Z 00000001801ca0a0 f i libucrt:output.obj
 0001:001c90a0       ??$type_case_integer_parse_into_buffer@I$0BA@@?$output_processor@DV?$string_output_adapter@D@__crt_stdio_output@@V?$format_validation_base@DV?$string_output_adapter@D@__crt_stdio_output@@@2@@__crt_stdio_output@@AEAAXI_N@Z 00000001801ca0a0 f i libucrt:output.obj
 0001:001c90a0       ??$type_case_integer_parse_into_buffer@I$0BA@@?$output_processor@DV?$string_output_adapter@D@__crt_stdio_output@@V?$standard_base@DV?$string_output_adapter@D@__crt_stdio_output@@@2@@__crt_stdio_output@@AEAAXI_N@Z 00000001801ca0a0 f i libucrt:output.obj
 0001:001c912c       ??$type_case_integer_parse_into_buffer@_K$07@?$output_processor@DV?$stream_output_adapter@D@__crt_stdio_output@@V?$standard_base@DV?$stream_output_adapter@D@__crt_stdio_output@@@2@@__crt_stdio_output@@AEAAX_K_N@Z 00000001801ca12c f i libucrt:output.obj
 0001:001c912c       ??$type_case_integer_parse_into_buffer@_K$07@?$output_processor@DV?$string_output_adapter@D@__crt_stdio_output@@V?$format_validation_base@DV?$string_output_adapter@D@__crt_stdio_output@@@2@@__crt_stdio_output@@AEAAX_K_N@Z 00000001801ca12c f i libucrt:output.obj
 0001:001c912c       ??$type_case_integer_parse_into_buffer@_K$07@?$output_processor@DV?$string_output_adapter@D@__crt_stdio_output@@V?$standard_base@DV?$string_output_adapter@D@__crt_stdio_output@@@2@@__crt_stdio_output@@AEAAX_K_N@Z 00000001801ca12c f i libucrt:output.obj
 0001:001c91a8       ??$type_case_integer_parse_into_buffer@_K$09@?$output_processor@DV?$stream_output_adapter@D@__crt_stdio_output@@V?$standard_base@DV?$stream_output_adapter@D@__crt_stdio_output@@@2@@__crt_stdio_output@@AEAAX_K_N@Z 00000001801ca1a8 f i libucrt:output.obj
 0001:001c91a8       ??$type_case_integer_parse_into_buffer@_K$09@?$output_processor@DV?$string_output_adapter@D@__crt_stdio_output@@V?$format_validation_base@DV?$string_output_adapter@D@__crt_stdio_output@@@2@@__crt_stdio_output@@AEAAX_K_N@Z 00000001801ca1a8 f i libucrt:output.obj
 0001:001c91a8       ??$type_case_integer_parse_into_buffer@_K$09@?$output_processor@DV?$string_output_adapter@D@__crt_stdio_output@@V?$standard_base@DV?$string_output_adapter@D@__crt_stdio_output@@@2@@__crt_stdio_output@@AEAAX_K_N@Z 00000001801ca1a8 f i libucrt:output.obj
 0001:001c9254       ??$type_case_integer_parse_into_buffer@_K$0BA@@?$output_processor@DV?$stream_output_adapter@D@__crt_stdio_output@@V?$standard_base@DV?$stream_output_adapter@D@__crt_stdio_output@@@2@@__crt_stdio_output@@AEAAX_K_N@Z 00000001801ca254 f i libucrt:output.obj
 0001:001c9254       ??$type_case_integer_parse_into_buffer@_K$0BA@@?$output_processor@DV?$string_output_adapter@D@__crt_stdio_output@@V?$format_validation_base@DV?$string_output_adapter@D@__crt_stdio_output@@@2@@__crt_stdio_output@@AEAAX_K_N@Z 00000001801ca254 f i libucrt:output.obj
 0001:001c9254       ??$type_case_integer_parse_into_buffer@_K$0BA@@?$output_processor@DV?$string_output_adapter@D@__crt_stdio_output@@V?$standard_base@DV?$string_output_adapter@D@__crt_stdio_output@@@2@@__crt_stdio_output@@AEAAX_K_N@Z 00000001801ca254 f i libucrt:output.obj
 0001:001c93fc       ?crop_zeroes@__crt_stdio_output@@YAXPEADQEAU__crt_locale_pointers@@@Z 00000001801ca3fc f i libucrt:output.obj
 0001:001c9470       ?get_raw_ptd@__crt_cached_ptd_host@@QEAAPEAU__acrt_ptd@@XZ 00000001801ca470 f i libucrt:output.obj
 0001:001c94d8       ?parse_int_from_format_string@?$output_processor@DV?$stream_output_adapter@D@__crt_stdio_output@@V?$standard_base@DV?$stream_output_adapter@D@__crt_stdio_output@@@2@@__crt_stdio_output@@AEAA_NQEAH@Z 00000001801ca4d8 f i libucrt:output.obj
 0001:001c94d8       ?parse_int_from_format_string@?$output_processor@DV?$string_output_adapter@D@__crt_stdio_output@@V?$format_validation_base@DV?$string_output_adapter@D@__crt_stdio_output@@@2@@__crt_stdio_output@@AEAA_NQEAH@Z 00000001801ca4d8 f i libucrt:output.obj
 0001:001c94d8       ?parse_int_from_format_string@?$output_processor@DV?$string_output_adapter@D@__crt_stdio_output@@V?$standard_base@DV?$string_output_adapter@D@__crt_stdio_output@@@2@@__crt_stdio_output@@AEAA_NQEAH@Z 00000001801ca4d8 f i libucrt:output.obj
 0001:001c9568       ?process@?$output_processor@DV?$stream_output_adapter@D@__crt_stdio_output@@V?$standard_base@DV?$stream_output_adapter@D@__crt_stdio_output@@@2@@__crt_stdio_output@@QEAAHXZ 00000001801ca568 f i libucrt:output.obj
 0001:001c98f4       ?process@?$output_processor@DV?$string_output_adapter@D@__crt_stdio_output@@V?$format_validation_base@DV?$string_output_adapter@D@__crt_stdio_output@@@2@@__crt_stdio_output@@QEAAHXZ 00000001801ca8f4 f i libucrt:output.obj
 0001:001c9c84       ?process@?$output_processor@DV?$string_output_adapter@D@__crt_stdio_output@@V?$standard_base@DV?$string_output_adapter@D@__crt_stdio_output@@@2@@__crt_stdio_output@@QEAAHXZ 00000001801cac84 f i libucrt:output.obj
 0001:001ca008       ?state_case_size@?$output_processor@DV?$stream_output_adapter@D@__crt_stdio_output@@V?$standard_base@DV?$stream_output_adapter@D@__crt_stdio_output@@@2@@__crt_stdio_output@@AEAA_NXZ 00000001801cb008 f i libucrt:output.obj
 0001:001ca18c       ?state_case_size@?$output_processor@DV?$string_output_adapter@D@__crt_stdio_output@@V?$format_validation_base@DV?$string_output_adapter@D@__crt_stdio_output@@@2@@__crt_stdio_output@@AEAA_NXZ 00000001801cb18c f i libucrt:output.obj
 0001:001ca18c       ?state_case_size@?$output_processor@DV?$string_output_adapter@D@__crt_stdio_output@@V?$standard_base@DV?$string_output_adapter@D@__crt_stdio_output@@@2@@__crt_stdio_output@@AEAA_NXZ 00000001801cb18c f i libucrt:output.obj
 0001:001ca310       ?state_case_type@?$output_processor@DV?$stream_output_adapter@D@__crt_stdio_output@@V?$standard_base@DV?$stream_output_adapter@D@__crt_stdio_output@@@2@@__crt_stdio_output@@AEAA_NXZ 00000001801cb310 f i libucrt:output.obj
 0001:001ca744       ?state_case_type@?$output_processor@DV?$string_output_adapter@D@__crt_stdio_output@@V?$format_validation_base@DV?$string_output_adapter@D@__crt_stdio_output@@@2@@__crt_stdio_output@@AEAA_NXZ 00000001801cb744 f i libucrt:output.obj
 0001:001ca744       ?state_case_type@?$output_processor@DV?$string_output_adapter@D@__crt_stdio_output@@V?$standard_base@DV?$string_output_adapter@D@__crt_stdio_output@@@2@@__crt_stdio_output@@AEAA_NXZ 00000001801cb744 f i libucrt:output.obj
 0001:001cab10       ?type_case_Z@?$output_processor@DV?$stream_output_adapter@D@__crt_stdio_output@@V?$standard_base@DV?$stream_output_adapter@D@__crt_stdio_output@@@2@@__crt_stdio_output@@AEAA_NXZ 00000001801cbb10 f i libucrt:output.obj
 0001:001cab10       ?type_case_Z@?$output_processor@DV?$string_output_adapter@D@__crt_stdio_output@@V?$format_validation_base@DV?$string_output_adapter@D@__crt_stdio_output@@@2@@__crt_stdio_output@@AEAA_NXZ 00000001801cbb10 f i libucrt:output.obj
 0001:001cab10       ?type_case_Z@?$output_processor@DV?$string_output_adapter@D@__crt_stdio_output@@V?$standard_base@DV?$string_output_adapter@D@__crt_stdio_output@@@2@@__crt_stdio_output@@AEAA_NXZ 00000001801cbb10 f i libucrt:output.obj
 0001:001cab88       ?type_case_a@?$output_processor@DV?$stream_output_adapter@D@__crt_stdio_output@@V?$standard_base@DV?$stream_output_adapter@D@__crt_stdio_output@@@2@@__crt_stdio_output@@AEAA_NXZ 00000001801cbb88 f i libucrt:output.obj
 0001:001cab88       ?type_case_a@?$output_processor@DV?$string_output_adapter@D@__crt_stdio_output@@V?$format_validation_base@DV?$string_output_adapter@D@__crt_stdio_output@@@2@@__crt_stdio_output@@AEAA_NXZ 00000001801cbb88 f i libucrt:output.obj
 0001:001cab88       ?type_case_a@?$output_processor@DV?$string_output_adapter@D@__crt_stdio_output@@V?$standard_base@DV?$string_output_adapter@D@__crt_stdio_output@@@2@@__crt_stdio_output@@AEAA_NXZ 00000001801cbb88 f i libucrt:output.obj
 0001:001cadd4       ?type_case_c_tchar@?$output_processor@DV?$stream_output_adapter@D@__crt_stdio_output@@V?$standard_base@DV?$stream_output_adapter@D@__crt_stdio_output@@@2@@__crt_stdio_output@@AEAA_ND@Z 00000001801cbdd4 f i libucrt:output.obj
 0001:001cadd4       ?type_case_c_tchar@?$output_processor@DV?$string_output_adapter@D@__crt_stdio_output@@V?$format_validation_base@DV?$string_output_adapter@D@__crt_stdio_output@@@2@@__crt_stdio_output@@AEAA_ND@Z 00000001801cbdd4 f i libucrt:output.obj
 0001:001cadd4       ?type_case_c_tchar@?$output_processor@DV?$string_output_adapter@D@__crt_stdio_output@@V?$standard_base@DV?$string_output_adapter@D@__crt_stdio_output@@@2@@__crt_stdio_output@@AEAA_ND@Z 00000001801cbdd4 f i libucrt:output.obj
 0001:001cae98       ?type_case_n@?$output_processor@DV?$stream_output_adapter@D@__crt_stdio_output@@V?$standard_base@DV?$stream_output_adapter@D@__crt_stdio_output@@@2@@__crt_stdio_output@@AEAA_NXZ 00000001801cbe98 f i libucrt:output.obj
 0001:001cae98       ?type_case_n@?$output_processor@DV?$string_output_adapter@D@__crt_stdio_output@@V?$format_validation_base@DV?$string_output_adapter@D@__crt_stdio_output@@@2@@__crt_stdio_output@@AEAA_NXZ 00000001801cbe98 f i libucrt:output.obj
 0001:001cae98       ?type_case_n@?$output_processor@DV?$string_output_adapter@D@__crt_stdio_output@@V?$standard_base@DV?$string_output_adapter@D@__crt_stdio_output@@@2@@__crt_stdio_output@@AEAA_NXZ 00000001801cbe98 f i libucrt:output.obj
 0001:001caf4c       ?type_case_s@?$output_processor@DV?$stream_output_adapter@D@__crt_stdio_output@@V?$standard_base@DV?$stream_output_adapter@D@__crt_stdio_output@@@2@@__crt_stdio_output@@AEAA_NXZ 00000001801cbf4c f i libucrt:output.obj
 0001:001caf4c       ?type_case_s@?$output_processor@DV?$string_output_adapter@D@__crt_stdio_output@@V?$format_validation_base@DV?$string_output_adapter@D@__crt_stdio_output@@@2@@__crt_stdio_output@@AEAA_NXZ 00000001801cbf4c f i libucrt:output.obj
 0001:001caf4c       ?type_case_s@?$output_processor@DV?$string_output_adapter@D@__crt_stdio_output@@V?$standard_base@DV?$string_output_adapter@D@__crt_stdio_output@@@2@@__crt_stdio_output@@AEAA_NXZ 00000001801cbf4c f i libucrt:output.obj
 0001:001caff0       ?update_locale_slow@__crt_cached_ptd_host@@AEAAXXZ 00000001801cbff0 f i libucrt:output.obj
 0001:001cb068       ?validate_stream_is_ansi_if_required@?$__acrt_stdio_char_traits@D@@SA_NQEAU_iobuf@@@Z 00000001801cc068 f i libucrt:output.obj
 0001:001cb104       ?write_string@?$string_output_adapter@D@__crt_stdio_output@@QEBAXQEBDHQEAHAEAV__crt_cached_ptd_host@@@Z 00000001801cc104 f i libucrt:output.obj
 0001:001cb1a8       ?write_string_impl@?$output_adapter_common@DV?$stream_output_adapter@D@__crt_stdio_output@@@__crt_stdio_output@@IEBAXQEBDHQEAHAEAV__crt_cached_ptd_host@@@Z 00000001801cc1a8 f i libucrt:output.obj
 0001:001cb274       __stdio_common_vfprintf    00000001801cc274 f   libucrt:output.obj
 0001:001cb398       __stdio_common_vsprintf    00000001801cc398 f   libucrt:output.obj
 0001:001cb5ec       __stdio_common_vsprintf_s  00000001801cc5ec f   libucrt:output.obj
 0001:001cb700       _fpclass                   00000001801cc700 f   libucrt:ieeemisc.obj
 0001:001cb790       powf                       00000001801cc790 f   libucrt:powf.obj
 0001:001cc658       atan2f                     00000001801cd658 f   libucrt:atan2f.obj
 0001:001cca50       acosf                      00000001801cda50 f   libucrt:acosf.obj
 0001:001ccc7c       free                       00000001801cdc7c f   libucrt:free.obj
 0001:001ccc90       _seh_filter_dll            00000001801cdc90 f   libucrt:exception_filter.obj
 0001:001ccca4       _seh_filter_exe            00000001801cdca4 f   libucrt:exception_filter.obj
 0001:001cd0c8       __acrt_initialize_thread_local_exit_callback 00000001801ce0c8 f   libucrt:exit.obj
 0001:001cd0d0       _cexit                     00000001801ce0d0 f   libucrt:exit.obj
 0001:001cd0e0       _exit                      00000001801ce0e0 f   libucrt:exit.obj
 0001:001cd0ec       _is_c_termination_complete 00000001801ce0ec f   libucrt:exit.obj
 0001:001cd2b4       __acrt_allocate_buffer_for_argv 00000001801ce2b4 f   libucrt:argv_parsing.obj
 0001:001cd314       _configure_narrow_argv     00000001801ce314 f   libucrt:argv_parsing.obj
 0001:001cd69c       __dcrt_uninitialize_environments_nolock 00000001801ce69c f   libucrt:environment_initialization.obj
 0001:001cd6e0       _initialize_narrow_environment 00000001801ce6e0 f   libucrt:environment_initialization.obj
 0001:001cda30       _crt_atexit                00000001801cea30 f   libucrt:onexit.obj
 0001:001cda40       _execute_onexit_table      00000001801cea40 f   libucrt:onexit.obj
 0001:001cda84       _initialize_onexit_table   00000001801cea84 f   libucrt:onexit.obj
 0001:001cdaac       _register_onexit_function  00000001801ceaac f   libucrt:onexit.obj
 0001:001cdb2c       __acrt_uninitialize_command_line 00000001801ceb2c f   libucrt:argv_data.obj
 0001:001cdc24       __acrt_initialize          00000001801cec24 f   libucrt:initialization.obj
 0001:001cdc38       __acrt_thread_attach       00000001801cec38 f   libucrt:initialization.obj
 0001:001cdc4c       __acrt_thread_detach       00000001801cec4c f   libucrt:initialization.obj
 0001:001cdc5c       __acrt_uninitialize        00000001801cec5c f   libucrt:initialization.obj
 0001:001cdc94       __acrt_uninitialize_critical 00000001801cec94 f   libucrt:initialization.obj
 0001:001cdca4       _initterm                  00000001801ceca4 f   libucrt:initterm.obj
 0001:001cdce8       _initterm_e                00000001801cece8 f   libucrt:initterm.obj
 0001:001cdd30       terminate                  00000001801ced30 f   libucrt:terminate.obj
 0001:001cdd5c       abort                      00000001801ced5c f   libucrt:abort.obj
 0001:001cddb4       malloc                     00000001801cedb4 f   libucrt:malloc.obj
 0001:001cddbc       strcpy_s                   00000001801cedbc f   libucrt:strcpy_s.obj
 0001:001cde1c       ??$parse_integer@KV?$c_string_character_source@D@__crt_strtox@@$00@__crt_strtox@@YAKAEAV__crt_cached_ptd_host@@V?$c_string_character_source@D@0@H_N@Z 00000001801cee1c f i libucrt:atox.obj
 0001:001ce0fc       _ischartype_l              00000001801cf0fc f i libucrt:atox.obj
 0001:001ce174       atol                       00000001801cf174 f   libucrt:atox.obj
 0001:001ce240       strncmp                    00000001801cf240 f   libucrt:strncmp.obj
 0001:001ce2c0       calloc                     00000001801cf2c0 f   libucrt:calloc.obj
 0001:001ce2c8       wcsncmp                    00000001801cf2c8 f   libucrt:wcsncmp.obj
 0001:001ce300       __remainder_piby2d2f_forAsm 00000001801cf300 f   libucrt:remainder_piby2f_forasm.obj
 0001:001ce450       __remainder_piby2_fma3     00000001801cf450 f   libucrt:remainder_piby2_forfma3.obj
 0001:001ce640       __remainder_piby2_fma3_bdl 00000001801cf640 f   libucrt:remainder_piby2_forfma3.obj
 0001:001ce6b8       _cosf_special              00000001801cf6b8 f   libucrt:sincos_special.obj
 0001:001ce758       _sinf_special              00000001801cf758 f   libucrt:sincos_special.obj
 0001:001ce76c       _tanf_special              00000001801cf76c f   libucrt:sincos_special.obj
 0001:001ce780       _clrfp                     00000001801cf780 f   libucrt:fpctrl.obj
 0001:001ce7a0       _ctrlfp                    00000001801cf7a0 f   libucrt:fpctrl.obj
 0001:001ce81c       _set_statfp                00000001801cf81c f   libucrt:fpctrl.obj
 0001:001ce83c       _statfp                    00000001801cf83c f   libucrt:fpctrl.obj
 0001:001ce850       __acrt_initialize_fma3     00000001801cf850 f   libucrt:fma3_available.obj
 0001:001ce8c0       __remainder_piby2d2f_forC  00000001801cf8c0 f   libucrt:remainder_piby2f_forc.obj
 0001:001cea4c       ?get_raw_ptd_noexit@__crt_cached_ptd_host@@QEAAPEAU__acrt_ptd@@XZ 00000001801cfa4c f i libucrt:invalid_parameter.obj
 0001:001ceab8       ?value@?$dual_state_global@P6AXPEB_W00I_K@Z@__crt_state_management@@QEAAAEAP6AXPEB_W00I_K@ZAEAV__crt_cached_ptd_host@@@Z 00000001801cfab8 f i libucrt:invalid_parameter.obj
 0001:001ceb04       __acrt_call_reportfault    00000001801cfb04 f   libucrt:invalid_parameter.obj
 0001:001cec60       __acrt_initialize_invalid_parameter_handler 00000001801cfc60 f   libucrt:invalid_parameter.obj
 0001:001cec68       _invalid_parameter         00000001801cfc68 f   libucrt:invalid_parameter.obj
 0001:001ced04       _invalid_parameter_internal 00000001801cfd04 f   libucrt:invalid_parameter.obj
 0001:001cedd4       _invalid_parameter_noinfo  00000001801cfdd4 f   libucrt:invalid_parameter.obj
 0001:001cedf4       _invoke_watson             00000001801cfdf4 f   libucrt:invalid_parameter.obj
 0001:001cee3c       __acrt_errno_from_os_error 00000001801cfe3c f   libucrt:errno.obj
 0001:001cee84       __acrt_errno_map_os_error  00000001801cfe84 f   libucrt:errno.obj
 0001:001ceecc       __acrt_errno_map_os_error_ptd 00000001801cfecc f   libucrt:errno.obj
 0001:001ceef0       __doserrno                 00000001801cfef0 f   libucrt:errno.obj
 0001:001cef10       _errno                     00000001801cff10 f   libucrt:errno.obj
 0001:001cef30       _calloc_base               00000001801cff30 f   libucrt:calloc_base.obj
 0001:001cefa8       _free_base                 00000001801cffa8 f   libucrt:free_base.obj
 0001:001cf1a4       __acrt_AppPolicyGetProcessTerminationMethodInternal 00000001801d01a4 f   libucrt:winapi_thunks.obj
 0001:001cf1fc       __acrt_AreFileApisANSI     00000001801d01fc f   libucrt:winapi_thunks.obj
 0001:001cf240       __acrt_FlsAlloc            00000001801d0240 f   libucrt:winapi_thunks.obj
 0001:001cf248       __acrt_FlsFree             00000001801d0248 f   libucrt:winapi_thunks.obj
 0001:001cf250       __acrt_FlsGetValue         00000001801d0250 f   libucrt:winapi_thunks.obj
 0001:001cf258       __acrt_FlsSetValue         00000001801d0258 f   libucrt:winapi_thunks.obj
 0001:001cf260       __acrt_InitializeCriticalSectionEx 00000001801d0260 f   libucrt:winapi_thunks.obj
 0001:001cf2d0       __acrt_LCMapStringEx       00000001801d02d0 f   libucrt:winapi_thunks.obj
 0001:001cf3bc       __acrt_LocaleNameToLCID    00000001801d03bc f   libucrt:winapi_thunks.obj
 0001:001cf41c       __acrt_initialize_winapi_thunks 00000001801d041c f   libucrt:winapi_thunks.obj
 0001:001cf440       __acrt_uninitialize_winapi_thunks 00000001801d0440 f   libucrt:winapi_thunks.obj
 0001:001cf484       _fcloseall                 00000001801d0484 f   libucrt:closeall.obj
 0001:001cf714       __acrt_stdio_flush_nolock  00000001801d0714 f   libucrt:fflush.obj
 0001:001cf7a0       _fflush_nolock             00000001801d07a0 f   libucrt:fflush.obj
 0001:001cf874       _flushall                  00000001801d0874 f   libucrt:fflush.obj
 0001:001cf87c       __acrt_stdio_free_buffer_nolock 00000001801d087c f   libucrt:_freebuf.obj
 0001:001cfab4       __acrt_initialize_lowio    00000001801d0ab4 f   libucrt:ioinit.obj
 0001:001cfaf0       __acrt_uninitialize_lowio  00000001801d0af0 f   libucrt:ioinit.obj
 0001:001cfb30       _malloc_base               00000001801d0b30 f   libucrt:malloc_base.obj
 0001:001cfb90       strnlen                    00000001801d0b90 f   libucrt:strnlen.obj
 0001:001cfce0       wcsnlen                    00000001801d0ce0 f   libucrt:strnlen.obj
 0001:001cfeb8       __acrt_update_locale_info  00000001801d0eb8 f   libucrt:locale_update.obj
 0001:001cfeec       __acrt_update_locale_info_explicit 00000001801d0eec f   libucrt:locale_update.obj
 0001:001cff24       __acrt_update_multibyte_info 00000001801d0f24 f   libucrt:locale_update.obj
 0001:001cff58       __acrt_update_multibyte_info_explicit 00000001801d0f58 f   libucrt:locale_update.obj
 0001:001d0ac0       __acrt_fp_format           00000001801d1ac0 f   libucrt:cvt.obj
 0001:001d0da8       _wctomb_internal           00000001801d1da8 f   libucrt:wctomb.obj
 0001:001d0f58       _mbtowc_internal           00000001801d1f58 f   libucrt:mbtowc.obj
 0001:001d10d0       _fileno                    00000001801d20d0 f   libucrt:fileno.obj
 0001:001d10f8       _get_printf_count_output   00000001801d20f8 f   libucrt:printf_count_output.obj
 0001:001d1110       _fputc_nolock_internal     00000001801d2110 f   libucrt:fputc.obj
 0001:001d1128       __acrt_should_use_temporary_buffer 00000001801d2128 f   libucrt:_sftbuf.obj
 0001:001d1170       __acrt_stdio_begin_temporary_buffering_nolock 00000001801d2170 f   libucrt:_sftbuf.obj
 0001:001d1238       __acrt_stdio_end_temporary_buffering_nolock 00000001801d2238 f   libucrt:_sftbuf.obj
 0001:001d15ec       __acrt_freeptd             00000001801d25ec f   libucrt:per_thread_data.obj
 0001:001d1630       __acrt_getptd              00000001801d2630 f   libucrt:per_thread_data.obj
 0001:001d1704       __acrt_getptd_head         00000001801d2704 f   libucrt:per_thread_data.obj
 0001:001d17a8       __acrt_getptd_noexit       00000001801d27a8 f   libucrt:per_thread_data.obj
 0001:001d1870       __acrt_getptd_noexit_explicit 00000001801d2870 f   libucrt:per_thread_data.obj
 0001:001d1930       __acrt_initialize_ptd      00000001801d2930 f   libucrt:per_thread_data.obj
 0001:001d196c       __acrt_uninitialize_ptd    00000001801d296c f   libucrt:per_thread_data.obj
 0001:001d1a00       __acrt_set_locale_changed  00000001801d2a00 f   libucrt:wsetlocale.obj
 0001:001d1a0c       __acrt_uninitialize_locale 00000001801d2a0c f   libucrt:wsetlocale.obj
 0001:001d1b60       _handle_error              00000001801d2b60 f   libucrt:libm_error.obj
 0001:001d1c88       _handle_errorf             00000001801d2c88 f   libucrt:libm_error.obj
 0001:001d1dbc       _handle_nan                00000001801d2dbc f   libucrt:libm_error.obj
 0001:001d1dd8       _handle_nanf               00000001801d2dd8 f   libucrt:libm_error.obj
 0001:001d1df0       _powf_special              00000001801d2df0 f   libucrt:pow_special.obj
 0001:001d1f40       __acrt_initialize_locks    00000001801d2f40 f   libucrt:locks.obj
 0001:001d1f88       __acrt_lock                00000001801d2f88 f   libucrt:locks.obj
 0001:001d1fa4       __acrt_uninitialize_locks  00000001801d2fa4 f   libucrt:locks.obj
 0001:001d1fdc       __acrt_unlock              00000001801d2fdc f   libucrt:locks.obj
 0001:001d1ff8       __acrt_get_process_end_policy 00000001801d2ff8 f   libucrt:win_policies.obj
 0001:001d2048       ??$__acrt_convert_wcs_mbs_cp@D_WV<lambda_7c9dea7b4ca7285d2cdb541a38da6275>@@U__crt_win32_buffer_internal_dynamic_resizing@@@@YAHQEBDAEAV?$__crt_win32_buffer@_WU__crt_win32_buffer_internal_dynamic_resizing@@@@AEBV<lambda_7c9dea7b4ca7285d2cdb541a38da6275>@@I@Z 00000001801d3048 f i libucrt:argv_wildcards.obj
 0001:001d21c4       ??$__acrt_convert_wcs_mbs_cp@_WDV<lambda_d8593a27d1aa8c02be35c86a17d324c4>@@U__crt_win32_buffer_internal_dynamic_resizing@@@@YAHQEB_WAEAV?$__crt_win32_buffer@DU__crt_win32_buffer_internal_dynamic_resizing@@@@AEBV<lambda_d8593a27d1aa8c02be35c86a17d324c4>@@I@Z 00000001801d31c4 f i libucrt:argv_wildcards.obj
 0001:001d2a6c       ??0_LocaleUpdate@@QEAA@QEAU__crt_locale_pointers@@@Z 00000001801d3a6c f i libucrt:argv_wildcards.obj
 0001:001d2b08       __acrt_expand_narrow_argv_wildcards 00000001801d3b08 f   libucrt:argv_wildcards.obj
 0001:001d2b10       ??$__acrt_convert_wcs_mbs_cp@_WDV<lambda_f788ae46380686e8b737efdd8c720d07>@@U__crt_win32_buffer_no_resizing@@@@YAHQEB_WAEAV?$__crt_win32_buffer@DU__crt_win32_buffer_no_resizing@@@@AEBV<lambda_f788ae46380686e8b737efdd8c720d07>@@I@Z 00000001801d3b10 f i libucrt:getmodulefilenamea.obj
 0001:001d2c2c       __acrt_GetModuleFileNameA  00000001801d3c2c f   libucrt:getmodulefilenamea.obj
 0001:001d3548       __acrt_initialize_multibyte 00000001801d4548 f   libucrt:mbctype.obj
 0001:001d35a8       __acrt_update_thread_multibyte_data 00000001801d45a8 f   libucrt:mbctype.obj
 0001:001d35c4       _setmbcp_nolock            00000001801d45c4 f   libucrt:mbctype.obj
 0001:001d38f8       _ismbblead                 00000001801d48f8 f   libucrt:ismbbyte.obj
 0001:001d390c       __acrt_initialize_command_line 00000001801d490c f   libucrt:argv_data.obj
 0001:001d3934       __acrt_MultiByteToWideChar 00000001801d4934 f   libucrt:multibytetowidechar.obj
 0001:001d3990       __acrt_WideCharToMultiByte 00000001801d4990 f   libucrt:widechartomultibyte.obj
 0001:001d3a40       __dcrt_get_narrow_environment_from_os 00000001801d4a40 f   libucrt:get_environment_from_os.obj
 0001:001d3b50       _recalloc_base             00000001801d4b50 f   libucrt:recalloc.obj
 0001:001d3be8       __acrt_initialize_heap     00000001801d4be8 f   libucrt:heap_handle.obj
 0001:001d3c04       __acrt_uninitialize_heap   00000001801d4c04 f   libucrt:heap_handle.obj
 0001:001d3c10       __acrt_execute_initializers 00000001801d4c10 f   libucrt:shared_initialization.obj
 0001:001d3ca4       __acrt_execute_uninitializers 00000001801d4ca4 f   libucrt:shared_initialization.obj
 0001:001d3cec       __acrt_initialize_new_handler 00000001801d4cec f   libucrt:new_handler.obj
 0001:001d3cf4       _callnewh                  00000001801d4cf4 f   libucrt:new_handler.obj
 0001:001d3d30       _query_new_handler         00000001801d4d30 f   libucrt:new_handler.obj
 0001:001d3dac       __acrt_get_sigabrt_handler 00000001801d4dac f   libucrt:signal.obj
 0001:001d3ddc       __acrt_initialize_signal_handlers 00000001801d4ddc f   libucrt:signal.obj
 0001:001d3dfc       raise                      00000001801d4dfc f   libucrt:signal.obj
 0001:001d407c       __acrt_has_user_matherr    00000001801d507c f   libucrt:matherr.obj
 0001:001d409c       __acrt_initialize_user_matherr 00000001801d509c f   libucrt:matherr.obj
 0001:001d40a4       __acrt_invoke_user_matherr 00000001801d50a4 f   libucrt:matherr.obj
 0001:001d40dc       __pctype_func              00000001801d50dc f   libucrt:ctype.obj
 0001:001d410c       _isctype_l                 00000001801d510c f   libucrt:isctype.obj
 0001:001d4230       _get_fpsr                  00000001801d5230 f   libucrt:fpsr.obj
 0001:001d4240       _set_fpsr                  00000001801d5240 f   libucrt:fpsr.obj
 0001:001d424a       _fclrf                     00000001801d524a f   libucrt:fpsr.obj
 0001:001d425e       _frnd                      00000001801d525e f   libucrt:fpsr.obj
 0001:001d4280       _query_new_mode            00000001801d5280 f   libucrt:new_mode.obj
 0001:001d4288       __acrt_DownlevelLocaleNameToLCID 00000001801d5288 f   libucrt:lcidtoname_downlevel.obj
 0001:001d4450       fclose                     00000001801d5450 f   libucrt:fclose.obj
 0001:001d4574       _commit                    00000001801d5574 f   libucrt:commit.obj
 0001:001d4e24       _write_internal            00000001801d5e24 f   libucrt:write.obj
 0001:001d4f4c       _write_nolock              00000001801d5f4c f   libucrt:write.obj
 0001:001d525c       __acrt_lowio_create_handle_array 00000001801d625c f   libucrt:osfinfo.obj
 0001:001d5304       __acrt_lowio_destroy_handle_array 00000001801d6304 f   libucrt:osfinfo.obj
 0001:001d5354       __acrt_lowio_ensure_fh_exists 00000001801d6354 f   libucrt:osfinfo.obj
 0001:001d53fc       __acrt_lowio_lock_fh       00000001801d63fc f   libucrt:osfinfo.obj
 0001:001d5424       __acrt_lowio_unlock_fh     00000001801d6424 f   libucrt:osfinfo.obj
 0001:001d544c       _free_osfhnd               00000001801d644c f   libucrt:osfinfo.obj
 0001:001d5508       _get_osfhandle             00000001801d6508 f   libucrt:osfinfo.obj
 0001:001d5580       __acrt_add_locale_ref      00000001801d6580 f   libucrt:locale_refcounting.obj
 0001:001d560c       __acrt_free_locale         00000001801d660c f   libucrt:locale_refcounting.obj
 0001:001d5784       __acrt_locale_add_lc_time_reference 00000001801d6784 f   libucrt:locale_refcounting.obj
 0001:001d57ac       __acrt_locale_free_lc_time_if_unreferenced 00000001801d67ac f   libucrt:locale_refcounting.obj
 0001:001d57e4       __acrt_locale_release_lc_time_reference 00000001801d67e4 f   libucrt:locale_refcounting.obj
 0001:001d580c       __acrt_release_locale_ref  00000001801d680c f   libucrt:locale_refcounting.obj
 0001:001d58b4       __acrt_update_thread_locale_data 00000001801d68b4 f   libucrt:locale_refcounting.obj
 0001:001d5924       _updatetlocinfoEx_nolock   00000001801d6924 f   libucrt:locale_refcounting.obj
 0001:001d598c       __acrt_fp_strflt_to_string 00000001801d698c f   libucrt:_fptostr.obj
 0001:001d5b10       ?divide@__crt_strtox@@YA_KAEAUbig_integer@1@AEBU21@@Z 00000001801d6b10 f i libucrt:cfout.obj
 0001:001d5f9c       __acrt_fltout              00000001801d6f9c f   libucrt:cfout.obj
 0001:001d7264       fegetround                 00000001801d8264 f   libucrt:fegetround.obj
 0001:001d7278       ?__c32rtomb_utf8@__crt_mbstring@@YA_KPEAD_UPEAU_Mbstatet@@AEAV__crt_cached_ptd_host@@@Z 00000001801d8278 f   libucrt:c32rtomb.obj
 0001:001d731c       ?__mbrtowc_utf8@__crt_mbstring@@YA_KPEA_WPEBD_KPEAU_Mbstatet@@AEAV__crt_cached_ptd_host@@@Z 00000001801d831c f   libucrt:mbrtowc.obj
 0001:001d7360       ?__mbsrtowcs_utf8@__crt_mbstring@@YA_KPEA_WPEAPEBD_KPEAU_Mbstatet@@AEAV__crt_cached_ptd_host@@@Z 00000001801d8360 f   libucrt:mbrtowc.obj
 0001:001d7678       __acrt_stdio_flush_and_write_narrow_nolock 00000001801d8678 f   libucrt:_flsbuf.obj
 0001:001d773c       _isatty                    00000001801d873c f   libucrt:isatty.obj
 0001:001d779c       __acrt_locale_free_monetary 00000001801d879c f   libucrt:initmon.obj
 0001:001d78a8       __acrt_locale_free_numeric 00000001801d88a8 f   libucrt:initnum.obj
 0001:001d7948       __acrt_locale_free_time    00000001801d8948 f   libucrt:inittime.obj
 0001:001d7a50       __acrt_GetStringTypeA      00000001801d8a50 f   libucrt:getstringtypea.obj
 0001:001d7bec       _raise_exc                 00000001801d8bec f   libucrt:fpexcept.obj
 0001:001d7c14       _raise_exc_ex              00000001801d8c14 f   libucrt:fpexcept.obj
 0001:001d7f24       _raise_excf                00000001801d8f24 f   libucrt:fpexcept.obj
 0001:001d7f50       _set_errno_from_matherr    00000001801d8f50 f   libucrt:fpexcept.obj
 0001:001d7f80       qsort                      00000001801d8f80 f   libucrt:qsort.obj
 0001:001d8390       strncpy_s                  00000001801d9390 f   libucrt:strncpy_s.obj
 0001:001d8520       strpbrk                    00000001801d9520 f   libucrt:strpbrk.obj
 0001:001d88e8       _mbsdec                    00000001801d98e8 f   libucrt:mbsdec.obj
 0001:001d88f0       _mbsdec_l                  00000001801d98f0 f   libucrt:mbsdec.obj
 0001:001d8ca4       __acrt_LCMapStringA        00000001801d9ca4 f   libucrt:lcmapstringa.obj
 0001:001d8d54       _msize_base                00000001801d9d54 f   libucrt:msize.obj
 0001:001d8d90       _realloc_base              00000001801d9d90 f   libucrt:realloc_base.obj
 0001:001d8e0c       __ascii_wcsnicmp           00000001801d9e0c f   libucrt:wcsnicmp.obj
 0001:001d8ed0       _close_internal            00000001801d9ed0 f   libucrt:close.obj
 0001:001d8f94       _close_nolock_internal     00000001801d9f94 f   libucrt:close.obj
 0001:001d9064       ?__acrt_stdio_free_stream@@YAXV__crt_stdio_stream@@@Z 00000001801da064 f   libucrt:stream.obj
 0001:001d9254       _lseeki64                  00000001801da254 f   libucrt:lseek.obj
 0001:001d92f0       _lseeki64_nolock_internal  00000001801da2f0 f   libucrt:lseek.obj
 0001:001d92f8       _putwch_nolock             00000001801da2f8 f   libucrt:putwch.obj
 0001:001d9334       _query_app_type            00000001801da334 f   libucrt:report_runtime_error.obj
 0001:001d933c       _controlfp_s               00000001801da33c f   libucrt:contrlfp.obj
 0001:001d93a0       fegetenv                   00000001801da3a0 f   libucrt:fegetenv.obj
 0001:001d93c0       fesetenv                   00000001801da3c0 f   libucrt:fesetenv.obj
 0001:001d940c       feholdexcept               00000001801da40c f   libucrt:feholdexcept.obj
 0001:001d945c       ceil                       00000001801da45c f   libucrt:ceil.obj
 0001:001d9520       log10                      00000001801da520 f   libucrt:log10.obj
 0001:001d9acc       __acrt_fenv_get_common_round_control 00000001801daacc f   libucrt:_fenvutils.obj
 0001:001d9ad8       __acrt_fenv_get_control    00000001801daad8 f   libucrt:_fenvutils.obj
 0001:001d9bbc       __acrt_fenv_get_status     00000001801dabbc f   libucrt:_fenvutils.obj
 0001:001d9c14       __acrt_fenv_set_control    00000001801dac14 f   libucrt:_fenvutils.obj
 0001:001d9d50       __acrt_fenv_set_status     00000001801dad50 f   libucrt:_fenvutils.obj
 0001:001d9dc4       ?reset_and_return@__crt_mbstring@@YA_K_KPEAU_Mbstatet@@@Z 00000001801dadc4 f   libucrt:common_utf8.obj
 0001:001d9dcc       ?return_illegal_sequence@__crt_mbstring@@YA_KPEAU_Mbstatet@@AEAV__crt_cached_ptd_host@@@Z 00000001801dadcc f   libucrt:common_utf8.obj
 0001:001d9de0       ?__mbrtoc32_utf8@__crt_mbstring@@YA_KPEA_UPEBD_KPEAU_Mbstatet@@AEAV__crt_cached_ptd_host@@@Z 00000001801dade0 f   libucrt:mbrtoc32.obj
 0001:001d9fbc       __acrt_stdio_allocate_buffer_nolock 00000001801dafbc f   libucrt:_getbuf.obj
 0001:001da028       __strncnt                  00000001801db028 f   libucrt:strncnt.obj
 0001:001da040       __dcrt_lowio_ensure_console_output_initialized 00000001801db040 f   libucrt:initcon.obj
 0001:001da094       __dcrt_terminate_console_output 00000001801db094 f   libucrt:initcon.obj
 0001:001da0b0       __dcrt_write_console       00000001801db0b0 f   libucrt:initcon.obj
 0001:001da170       _clearfp                   00000001801db170 f   libucrt:ieee.obj
 0001:001da1e0       _control87                 00000001801db1e0 f   libucrt:ieee.obj
 0001:001da4b0       _log10_special             00000001801db4b0 f   libucrt:log_special.obj
 0001:001da570       _FindPESection             00000001801db570 f   LIBCMT:pesect.obj
 0001:001da5c0       _IsNonwritableInCurrentImage 00000001801db5c0 f   LIBCMT:pesect.obj
 0001:001da610       _ValidateImageBase         00000001801db610 f   LIBCMT:pesect.obj
 0001:001da63c       __GSHandlerCheck           00000001801db63c f   LIBCMT:gshandler.obj
 0001:001da65c       __GSHandlerCheckCommon     00000001801db65c f   LIBCMT:gshandler.obj
 0001:001da6d0       __security_check_cookie    00000001801db6d0 f   LIBCMT:amdsecgs.obj
 0001:001da6f0       __GSHandlerCheck_SEH       00000001801db6f0 f   LIBCMT:gshandlerseh.obj
 0001:001da778       __raise_securityfailure    00000001801db778 f   LIBCMT:gs_report.obj
 0001:001da7ac       __report_gsfailure         00000001801db7ac f   LIBCMT:gs_report.obj
 0001:001da880       __report_rangecheckfailure 00000001801db880 f   LIBCMT:gs_report.obj
 0001:001da894       __report_securityfailure   00000001801db894 f   LIBCMT:gs_report.obj
 0001:001daa14       __GSHandlerCheck_EH        00000001801dba14 f   LIBCMT:gshandlereh.obj
 0001:001daa94       __C_specific_handler_noexcept 00000001801dba94 f   libvcruntime:chandler_noexcept.obj
 0001:001daae0       strrchr                    00000001801dbae0 f   libvcruntime:strrchr.obj
 0001:001dac30       memcmp                     00000001801dbc30 f   libvcruntime:memcmp.obj
 0001:001dad10       _guard_dispatch_icall_nop  00000001801dbd10 f   LIBCMT:guard_dispatch.obj
 0001:001dad30       _guard_xfg_dispatch_icall_nop 00000001801dbd30 f   LIBCMT:guard_xfg_dispatch.obj
 0002:00000000       __imp_GetLastError         00000001801dd000     kernel32:KERNEL32.dll
 0002:00000008       __imp_FreeLibrary          00000001801dd008     kernel32:KERNEL32.dll
 0002:00000010       __imp_GetProcAddress       00000001801dd010     kernel32:KERNEL32.dll
 0002:00000018       __imp_LoadLibraryA         00000001801dd018     kernel32:KERNEL32.dll
 0002:00000020       __imp_RaiseException       00000001801dd020     kernel32:KERNEL32.dll
 0002:00000028       __imp_GetSystemInfo        00000001801dd028     kernel32:KERNEL32.dll
 0002:00000030       __imp_VirtualProtect       00000001801dd030     kernel32:KERNEL32.dll
 0002:00000038       __imp_VirtualQuery         00000001801dd038     kernel32:KERNEL32.dll
 0002:00000040       __imp_GetModuleHandleW     00000001801dd040     kernel32:KERNEL32.dll
 0002:00000048       __imp_LoadLibraryExA       00000001801dd048     kernel32:KERNEL32.dll
 0002:00000050       __imp_InitializeSListHead  00000001801dd050     kernel32:KERNEL32.dll
 0002:00000058       __imp_RtlCaptureContext    00000001801dd058     kernel32:KERNEL32.dll
 0002:00000060       __imp_RtlLookupFunctionEntry 00000001801dd060     kernel32:KERNEL32.dll
 0002:00000068       __imp_RtlVirtualUnwind     00000001801dd068     kernel32:KERNEL32.dll
 0002:00000070       __imp_IsDebuggerPresent    00000001801dd070     kernel32:KERNEL32.dll
 0002:00000078       __imp_UnhandledExceptionFilter 00000001801dd078     kernel32:KERNEL32.dll
 0002:00000080       __imp_SetUnhandledExceptionFilter 00000001801dd080     kernel32:KERNEL32.dll
 0002:00000088       __imp_GetStartupInfoW      00000001801dd088     kernel32:KERNEL32.dll
 0002:00000090       __imp_IsProcessorFeaturePresent 00000001801dd090     kernel32:KERNEL32.dll
 0002:00000098       __imp_QueryPerformanceCounter 00000001801dd098     kernel32:KERNEL32.dll
 0002:000000a0       __imp_GetCurrentProcessId  00000001801dd0a0     kernel32:KERNEL32.dll
 0002:000000a8       __imp_GetCurrentThreadId   00000001801dd0a8     kernel32:KERNEL32.dll
 0002:000000b0       __imp_GetSystemTimeAsFileTime 00000001801dd0b0     kernel32:KERNEL32.dll
 0002:000000b8       __imp_InterlockedPushEntrySList 00000001801dd0b8     kernel32:KERNEL32.dll
 0002:000000c0       __imp_InterlockedFlushSList 00000001801dd0c0     kernel32:KERNEL32.dll
 0002:000000c8       __imp_RtlUnwindEx          00000001801dd0c8     kernel32:KERNEL32.dll
 0002:000000d0       __imp_SetLastError         00000001801dd0d0     kernel32:KERNEL32.dll
 0002:000000d8       __imp_EnterCriticalSection 00000001801dd0d8     kernel32:KERNEL32.dll
 0002:000000e0       __imp_LeaveCriticalSection 00000001801dd0e0     kernel32:KERNEL32.dll
 0002:000000e8       __imp_DeleteCriticalSection 00000001801dd0e8     kernel32:KERNEL32.dll
 0002:000000f0       __imp_InitializeCriticalSectionAndSpinCount 00000001801dd0f0     kernel32:KERNEL32.dll
 0002:000000f8       __imp_TlsAlloc             00000001801dd0f8     kernel32:KERNEL32.dll
 0002:00000100       __imp_TlsGetValue          00000001801dd100     kernel32:KERNEL32.dll
 0002:00000108       __imp_TlsSetValue          00000001801dd108     kernel32:KERNEL32.dll
 0002:00000110       __imp_TlsFree              00000001801dd110     kernel32:KERNEL32.dll
 0002:00000118       __imp_LoadLibraryExW       00000001801dd118     kernel32:KERNEL32.dll
 0002:00000120       __imp_EncodePointer        00000001801dd120     kernel32:KERNEL32.dll
 0002:00000128       __imp_RtlPcToFileHeader    00000001801dd128     kernel32:KERNEL32.dll
 0002:00000130       __imp_GetCurrentProcess    00000001801dd130     kernel32:KERNEL32.dll
 0002:00000138       __imp_ExitProcess          00000001801dd138     kernel32:KERNEL32.dll
 0002:00000140       __imp_TerminateProcess     00000001801dd140     kernel32:KERNEL32.dll
 0002:00000148       __imp_GetModuleHandleExW   00000001801dd148     kernel32:KERNEL32.dll
 0002:00000150       __imp_GetModuleFileNameW   00000001801dd150     kernel32:KERNEL32.dll
 0002:00000158       __imp_HeapAlloc            00000001801dd158     kernel32:KERNEL32.dll
 0002:00000160       __imp_HeapFree             00000001801dd160     kernel32:KERNEL32.dll
 0002:00000168       __imp_FlsAlloc             00000001801dd168     kernel32:KERNEL32.dll
 0002:00000170       __imp_FlsGetValue          00000001801dd170     kernel32:KERNEL32.dll
 0002:00000178       __imp_FlsSetValue          00000001801dd178     kernel32:KERNEL32.dll
 0002:00000180       __imp_FlsFree              00000001801dd180     kernel32:KERNEL32.dll
 0002:00000188       __imp_LCMapStringW         00000001801dd188     kernel32:KERNEL32.dll
 0002:00000190       __imp_GetStdHandle         00000001801dd190     kernel32:KERNEL32.dll
 0002:00000198       __imp_GetFileType          00000001801dd198     kernel32:KERNEL32.dll
 0002:000001a0       __imp_FindClose            00000001801dd1a0     kernel32:KERNEL32.dll
 0002:000001a8       __imp_FindFirstFileExW     00000001801dd1a8     kernel32:KERNEL32.dll
 0002:000001b0       __imp_FindNextFileW        00000001801dd1b0     kernel32:KERNEL32.dll
 0002:000001b8       __imp_IsValidCodePage      00000001801dd1b8     kernel32:KERNEL32.dll
 0002:000001c0       __imp_GetACP               00000001801dd1c0     kernel32:KERNEL32.dll
 0002:000001c8       __imp_GetOEMCP             00000001801dd1c8     kernel32:KERNEL32.dll
 0002:000001d0       __imp_GetCPInfo            00000001801dd1d0     kernel32:KERNEL32.dll
 0002:000001d8       __imp_GetCommandLineA      00000001801dd1d8     kernel32:KERNEL32.dll
 0002:000001e0       __imp_GetCommandLineW      00000001801dd1e0     kernel32:KERNEL32.dll
 0002:000001e8       __imp_MultiByteToWideChar  00000001801dd1e8     kernel32:KERNEL32.dll
 0002:000001f0       __imp_WideCharToMultiByte  00000001801dd1f0     kernel32:KERNEL32.dll
 0002:000001f8       __imp_GetEnvironmentStringsW 00000001801dd1f8     kernel32:KERNEL32.dll
 0002:00000200       __imp_FreeEnvironmentStringsW 00000001801dd200     kernel32:KERNEL32.dll
 0002:00000208       __imp_GetProcessHeap       00000001801dd208     kernel32:KERNEL32.dll
 0002:00000210       __imp_FlushFileBuffers     00000001801dd210     kernel32:KERNEL32.dll
 0002:00000218       __imp_WriteFile            00000001801dd218     kernel32:KERNEL32.dll
 0002:00000220       __imp_GetConsoleOutputCP   00000001801dd220     kernel32:KERNEL32.dll
 0002:00000228       __imp_GetConsoleMode       00000001801dd228     kernel32:KERNEL32.dll
 0002:00000230       __imp_SetStdHandle         00000001801dd230     kernel32:KERNEL32.dll
 0002:00000238       __imp_GetFileSizeEx        00000001801dd238     kernel32:KERNEL32.dll
 0002:00000240       __imp_SetFilePointerEx     00000001801dd240     kernel32:KERNEL32.dll
 0002:00000248       __imp_GetStringTypeW       00000001801dd248     kernel32:KERNEL32.dll
 0002:00000250       __imp_HeapSize             00000001801dd250     kernel32:KERNEL32.dll
 0002:00000258       __imp_HeapReAlloc          00000001801dd258     kernel32:KERNEL32.dll
 0002:00000260       __imp_CloseHandle          00000001801dd260     kernel32:KERNEL32.dll
 0002:00000268       __imp_CreateFileW          00000001801dd268     kernel32:KERNEL32.dll
 0002:00000270       __imp_WriteConsoleW        00000001801dd270     kernel32:KERNEL32.dll
 0002:00000278       \177KERNEL32_NULL_THUNK_DATA 00000001801dd278     kernel32:KERNEL32.dll
 0002:00000280       __guard_check_icall_fptr   00000001801dd280     LIBCMT:guard_support.obj
 0002:00000288       __guard_xfg_check_icall_fptr 00000001801dd288     LIBCMT:guard_support.obj
 0002:00000290       __guard_dispatch_icall_fptr 00000001801dd290     LIBCMT:guard_support.obj
 0002:00000298       __guard_xfg_dispatch_icall_fptr 00000001801dd298     LIBCMT:guard_support.obj
 0002:000002a0       __guard_xfg_table_dispatch_icall_fptr 00000001801dd2a0     LIBCMT:guard_support.obj
 0002:000002a8       __castguard_check_failure_os_handled_fptr 00000001801dd2a8     LIBCMT:guard_support.obj
 0002:000002b0       __guard_memcpy_fptr        00000001801dd2b0     libvcruntime:softmemtag.obj
 0002:000002b8       __xc_a                     00000001801dd2b8     LIBCMT:initializers.obj
 0002:00001c90       __xc_z                     00000001801dec90     LIBCMT:initializers.obj
 0002:00001c98       __xi_a                     00000001801dec98     LIBCMT:initializers.obj
 0002:00001ca0       __acrt_stdio_initializer   00000001801deca0     libucrt:stdio_initializer.obj
 0002:00001ca8       __acrt_tran_fma3_initializer 00000001801deca8     libucrt:fma3_initializer.obj
 0002:00001cb0       __acrt_multibyte_initializer 00000001801decb0     libucrt:multibyte_initializer.obj
 0002:00001cb8       __xi_z                     00000001801decb8     LIBCMT:initializers.obj
 0002:00001cc0       __xp_a                     00000001801decc0     LIBCMT:initializers.obj
 0002:00001cc8       __acrt_locale_terminator   00000001801decc8     libucrt:locale_initializer.obj
 0002:00001cd0       __dcrt_console_output_terminator 00000001801decd0     libucrt:console_output_initializer.obj
 0002:00001cd8       __acrt_stdio_terminator    00000001801decd8     libucrt:stdio_initializer.obj
 0002:00001ce0       __xp_z                     00000001801dece0     LIBCMT:initializers.obj
 0002:00001ce8       __xt_a                     00000001801dece8     LIBCMT:initializers.obj
 0002:00001cf0       __xt_z                     00000001801decf0     LIBCMT:initializers.obj
 0002:00001d00       ??_C@_08MDGMHCHN@PtrTable@ 00000001801ded00     CmPtrTable.obj
 0002:00001d0c       ??_C@_04GKJNKENE@void@     00000001801ded0c     CmPtrTable.obj
 0002:00001d18       ??_C@_07DFEBJDHE@mSingle@  00000001801ded18     CmPtrTable.obj
 0002:00001d20       ??_C@_05NLHHBMOH@PxU16@    00000001801ded20     CmPtrTable.obj
 0002:00001d28       ??_C@_06EPKHJPIM@mCount@   00000001801ded28     CmPtrTable.obj
 0002:00001d30       ??_C@_04DDKJGDCM@bool@     00000001801ded30     CmPtrTable.obj
 0002:00001d38       ??_C@_0M@DAGELID@mOwnsMemory@ 00000001801ded38     CmPtrTable.obj
 0002:00001d48       ??_C@_0M@MMPOMMLP@mBufferUsed@ 00000001801ded48     CmPtrTable.obj
 0002:00001d54       ??_C@_05LMJPANIN@PxU32@    00000001801ded54     CmPtrTable.obj
 0002:00001d60       ??_C@_09PMLNMEMN@mFreeSlot@ 00000001801ded60     CmPtrTable.obj
 0002:00001d70       ??_7PxCollection@physx@@6B@ 00000001801ded70     CmCollection.obj
 0002:00001df0       ??_C@_00CNPNBAHC@@         00000001801dedf0     CmCollection.obj
 0002:00001df8       ??_7Collection@Cm@physx@@6B@ 00000001801dedf8     CmCollection.obj
 0002:00001e80       ??_C@_0GE@GBACBMOC@PxCollection?3?3add?5called?5for?5an@ 00000001801dee80     CmCollection.obj
 0002:00001ef0       ??_C@_0HB@JNIAAJGM@C?3?2Users?2lukas?4ternelius?2Deskto@ 00000001801deef0     CmCollection.obj
 0002:00001f70       ??_C@_0EM@OMMGDOMK@PxCollection?3?3add?5called?5with?5a@ 00000001801def70     CmCollection.obj
 0002:00001fc0       ??_C@_0EL@CBFFIHFG@PxCollection?3?3remove?5called?5for@ 00000001801defc0     CmCollection.obj
 0002:00002010       ??_C@_0EP@DBNENNLL@PxCollection?3?3addId?5called?5for?5@ 00000001801df010     CmCollection.obj
 0002:00002060       ??_C@_0FL@DACPFKDD@PxCollection?3?3addId?5called?5with@ 00000001801df060     CmCollection.obj
 0002:000020c0       ??_C@_0EP@GMPAMDKI@PxCollection?3?3addId?5called?5with@ 00000001801df0c0     CmCollection.obj
 0002:00002110       ??_C@_0FO@DIHIGAFD@PxCollection?3?3removeId?5called?5w@ 00000001801df110     CmCollection.obj
 0002:00002170       ??_C@_0FF@MENHIPMD@PxCollection?3?3removeId?5called?5w@ 00000001801df170     CmCollection.obj
 0002:000021d0       ??_C@_0FK@BAFICJEM@PxCollection?3?3find?5called?5with?5@ 00000001801df1d0     CmCollection.obj
 0002:00002230       ??_C@_0DF@CLGAFPLL@PxCollection?3?3add?$CIPxCollection?$CG@ 00000001801df230     CmCollection.obj
 0002:00002268       ??_C@_0DN@DMJACFO@PxCollection?3?3add?$CIPxCollection?$CG@ 00000001801df268     CmCollection.obj
 0002:000022a8       ??_C@_0DI@DICAIAPC@PxCollection?3?3remove?$CIPxCollecti@ 00000001801df2a8     CmCollection.obj
 0002:000022e0       ??_C@_0DG@LOILDLGN@PxCollection?3?3getObjects?5called@ 00000001801df2e0     CmCollection.obj
 0002:00002318       ??_C@_0DD@GMICJLDJ@PxCollection?3?3getObjects?5called@ 00000001801df318     CmCollection.obj
 0002:00002350       ??_C@_0DC@GILGGBAI@PxCollection?3?3getIds?5called?5wit@ 00000001801df350     CmCollection.obj
 0002:00002388       ??_C@_0CP@LFEKADKN@PxCollection?3?3getIds?5called?5wit@ 00000001801df388     CmCollection.obj
 0002:000023c0       ??_C@_0HD@COFEHKMJ@C?3?2Users?2lukas?4ternelius?2Deskto@ 00000001801df3c0     CmCollection.obj
 0002:00002438       ??_C@_0BM@OIFKLHDN@?$DMallocation?5names?5disabled?$DO@ 00000001801df438     CmCollection.obj
 0002:00002458       ??_7RadixSort@Cm@physx@@6B@ 00000001801df458     CmRadixSort.obj
 0002:00002460       ??_7RadixSortBuffered@Cm@physx@@6B@ 00000001801df460     CmRadixSort.obj
 0002:00002470       ??_C@_0HA@IKOOKBLE@C?3?2Users?2lukas?4ternelius?2Deskto@ 00000001801df470     CmRadixSort.obj
 0002:000024e0       __xmm@00000001000000010000000100000001 00000001801df4e0     CmRadixSort.obj
 0002:000024f0       __xmm@00000003000000020000000100000000 00000001801df4f0     CmRadixSort.obj
 0002:00002500       __real@3d4ccccd            00000001801df500     CmVisualization.obj
 0002:00002504       __real@3e19999a            00000001801df504     CmVisualization.obj
 0002:00002508       __real@3e490fdb            00000001801df508     CmVisualization.obj
 0002:0000250c       __real@3e800000            00000001801df50c     CmVisualization.obj
 0002:00002510       __real@3e99999a            00000001801df510     CmVisualization.obj
 0002:00002514       __real@3ea0d97c            00000001801df514     CmVisualization.obj
 0002:00002518       __real@3eddb3d7            00000001801df518     CmVisualization.obj
 0002:0000251c       __real@3f3504f3            00000001801df51c     CmVisualization.obj
 0002:00002520       __real@3f800000            00000001801df520     CmVisualization.obj
 0002:00002524       __real@3fc00000            00000001801df524     CmVisualization.obj
 0002:00002528       __real@3fddb3d7            00000001801df528     CmVisualization.obj
 0002:0000252c       __real@40100000            00000001801df52c     CmVisualization.obj
 0002:00002530       __real@40c90fdb            00000001801df530     CmVisualization.obj
 0002:00002534       __real@bfddb3d7            00000001801df534     CmVisualization.obj
 0002:00002538       __real@c0000000            00000001801df538     CmVisualization.obj
 0002:00002540       __xmm@3f800000000000000000000000000000 00000001801df540     CmVisualization.obj
 0002:00002550       __xmm@7fffffff7fffffff7fffffff7fffffff 00000001801df550     CmVisualization.obj
 0002:00002560       __xmm@80000000800000008000000080000000 00000001801df560     CmVisualization.obj
 0002:00002570       ??_C@_0BB@CPDDPFKD@GetUpdatedModule@ 00000001801df570     CmWindowsModuleUpdateLoader.obj
 0002:00002590       ??_C@_0II@KGGOBNGG@C?3?2Users?2lukas?4ternelius?2Deskto@ 00000001801df590     CmWindowsModuleUpdateLoader.obj
 0002:00002618       ??_C@_0CP@PGOIOJOO@?$CFs?3?$CFi?3?5loadLibrary?5error?5when?5l@ 00000001801df618     CmWindowsModuleUpdateLoader.obj
 0002:00002648       ??_C@_0BA@EGLNOO@PhysXFoundation@ 00000001801df648     CmWindowsDelayLoadHook.obj
 0002:00002658       ??_C@_0M@ILKNCJKN@PhysXCommon@ 00000001801df658     CmWindowsDelayLoadHook.obj
 0002:00002690       __real@3f000000            00000001801df690     GuBox.obj
 0002:00002694       __real@3f7ff972            00000001801df694     GuBox.obj
 0002:000026a0       __xmm@000000003a83126f3a83126f3a83126f 00000001801df6a0     GuBox.obj
 0002:000026b0       __xmm@00000000ba83126fba83126fba83126f 00000001801df6b0     GuBox.obj
 0002:000026c0       __xmm@3a83126f3a83126f3a83126f3a83126f 00000001801df6c0     GuBox.obj
 0002:000026d0       __xmm@ba83126fba83126fba83126fba83126f 00000001801df6d0     GuBox.obj
 0002:00002700       ??_7EntityReport@Gu@physx@@6B@ 00000001801df700     GuSweepsHF.obj
 0002:00002700       ??_7OverlapCallback@PxBVH@physx@@6B@ 00000001801df700     GuQuerySystem.obj
 0002:00002700       ??_7OverlapReport@Gu@physx@@6B@ 00000001801df700     GuCCTSweepTests.obj
 0002:00002700       ??_7RaycastCallback@PxBVH@physx@@6B@ 00000001801df700     GuQuerySystem.obj
 0002:00002700       ??_7RemapCallback@RTreeCooker@physx@@6B@ 00000001801df700     GuCookingTriangleMesh.obj
 0002:00002720       __real@3b03126f            00000001801df720     GuCCTSweepTests.obj
 0002:00002724       __real@40000000            00000001801df724     GuCCTSweepTests.obj
 0002:00002760       ??_C@_0CD@CGJJEFHC@Gu?3?3overlap?$CI?$CJ?3?5pose0?5is?5not?5val@ 00000001801df760     GuGeometryQuery.obj
 0002:00002790       ??_C@_0HI@DACDLMBK@C?3?2Users?2lukas?4ternelius?2Deskto@ 00000001801df790     GuGeometryQuery.obj
 0002:00002808       ??_C@_0CD@IIPBNEOD@Gu?3?3overlap?$CI?$CJ?3?5pose1?5is?5not?5val@ 00000001801df808     GuGeometryQuery.obj
 0002:00002830       ??_7SupportLocal@Gu@physx@@6B@ 00000001801df830     GuGeometryQuery.obj
 0002:00002850       ??_C@_0CO@DGHGHPPJ@PxGeometryQuery?3?3sweep?$CI?$CJ?3?5pose0@ 00000001801df850     GuGeometryQuery.obj
 0002:00002880       ??_C@_0HH@OIBHGODL@C?3?2Users?2lukas?4ternelius?2Deskto@ 00000001801df880     GuGeometryQuery.obj
 0002:000028f8       ??_C@_0CO@JIBOOOGI@PxGeometryQuery?3?3sweep?$CI?$CJ?3?5pose1@ 00000001801df8f8     GuGeometryQuery.obj
 0002:00002928       ??_C@_0DA@JEEBDBEM@PxGeometryQuery?3?3sweep?$CI?$CJ?3?5unitD@ 00000001801df928     GuGeometryQuery.obj
 0002:00002958       ??_C@_0DB@KCEKJBPE@PxGeometryQuery?3?3sweep?$CI?$CJ?3?5dista@ 00000001801df958     GuGeometryQuery.obj
 0002:00002990       ??_C@_0FM@HAJNNJNC@PxGeometryQuery?3?3sweep?$CI?$CJ?3?5sweep@ 00000001801df990     GuGeometryQuery.obj
 0002:000029f0       ??_C@_0CB@JDDBKCNL@Provided?5geometry?50?5is?5not?5vali@ 00000001801df9f0     GuGeometryQuery.obj
 0002:00002a18       ??_C@_0CB@CKMKHJDD@Provided?5geometry?51?5is?5not?5vali@ 00000001801dfa18     GuGeometryQuery.obj
 0002:00002a40       ??_C@_0GL@GJKJELMB@PxGeometryQuery?3?3sweep?$CI?$CJ?3?5first@ 00000001801dfa40     GuGeometryQuery.obj
 0002:00002ab0       ??_C@_0DB@OMDGMOND@PxGeometryQuery?3?3raycast?$CI?$CJ?3?5ray@ 00000001801dfab0     GuGeometryQuery.obj
 0002:00002ae8       ??_C@_0DE@MGFNMBNA@PxGeometryQuery?3?3raycast?$CI?$CJ?3?5ray@ 00000001801dfae8     GuGeometryQuery.obj
 0002:00002b20       ??_C@_0CP@NHLDPNEB@PxGeometryQuery?3?3raycast?$CI?$CJ?3?5pos@ 00000001801dfb20     GuGeometryQuery.obj
 0002:00002b50       ??_C@_0DB@HPNPNEMP@PxGeometryQuery?3?3raycast?$CI?$CJ?3?5max@ 00000001801dfb50     GuGeometryQuery.obj
 0002:00002b88       ??_C@_0DC@BLMIOBO@PxGeometryQuery?3?3raycast?$CI?$CJ?3?5max@ 00000001801dfb88     GuGeometryQuery.obj
 0002:00002bc0       ??_C@_0DP@IPJGHFJE@PxGeometryQuery?3?3raycast?$CI?$CJ?3?5ray@ 00000001801dfbc0     GuGeometryQuery.obj
 0002:00002c00       ??_C@_0DF@BMEFDPAL@PxGeometryQuery?3?3pointDistance?$CI@ 00000001801dfc00     GuGeometryQuery.obj
 0002:00002c40       ??_C@_0HD@CIHHMJFE@PxGeometryQuery?3?3pointDistance?$CI@ 00000001801dfc40     GuGeometryQuery.obj
 0002:00002cb8       ??_C@_0DJ@FHLFMELL@PxGeometryQuery?3?3computeGeomBou@ 00000001801dfcb8     GuGeometryQuery.obj
 0002:00002cf8       ??_C@_0DL@LECAKFBF@PxGeometryQuery?3?3computePenetra@ 00000001801dfcf8     GuGeometryQuery.obj
 0002:00002d38       ??_C@_0DL@BKEIDEIE@PxGeometryQuery?3?3computePenetra@ 00000001801dfd38     GuGeometryQuery.obj
 0002:00002d78       ??_7?$SupportLocalImpl@VBoxV@Gu@physx@@@Gu@physx@@6B@ 00000001801dfd78     GuGeometryQuery.obj
 0002:00002d98       ??_7?$SupportLocalImpl@VConvexHullV@Gu@physx@@@Gu@physx@@6B@ 00000001801dfd98     GuGeometryQuery.obj
 0002:00002dc0       ??_C@_0GL@KDFLOHAD@C?3?2Users?2lukas?4ternelius?2Deskto@ 00000001801dfdc0     GuGeometryQuery.obj
 0002:00002e2c       __real@30d1b7e9            00000001801dfe2c     GuGeometryQuery.obj
 0002:00002e30       __real@322bcc77            00000001801dfe30     GuGeometryQuery.obj
 0002:00002e34       __real@358637bd            00000001801dfe34     GuGeometryQuery.obj
 0002:00002e38       __real@38d1b717            00000001801dfe38     GuGeometryQuery.obj
 0002:00002e3c       __real@3a83126f            00000001801dfe3c     GuGeometryQuery.obj
 0002:00002e40       __real@3ccccccd            00000001801dfe40     GuGeometryQuery.obj
 0002:00002e44       __real@3dcccccd            00000001801dfe44     GuGeometryQuery.obj
 0002:00002e48       __real@49742400            00000001801dfe48     GuGeometryQuery.obj
 0002:00002e4c       __real@7f7fffff            00000001801dfe4c     GuGeometryQuery.obj
 0002:00002e50       __real@bf800000            00000001801dfe50     GuGeometryQuery.obj
 0002:00002e60       __xmm@0000000000000000000000003f800000 00000001801dfe60     GuGeometryQuery.obj
 0002:00002e70       __xmm@00000000000000003f80000000000000 00000001801dfe70     GuGeometryQuery.obj
 0002:00002e80       __xmm@00000000000000003f8000003f800000 00000001801dfe80     GuGeometryQuery.obj
 0002:00002e90       __xmm@000000003f8000000000000000000000 00000001801dfe90     GuGeometryQuery.obj
 0002:00002ea0       __xmm@000000003f8000003f8000003f800000 00000001801dfea0     GuGeometryQuery.obj
 0002:00002eb0       __xmm@00000000ffffffffffffffffffffffff 00000001801dfeb0     GuGeometryQuery.obj
 0002:00002ec0       __xmm@3d4ccccd3d4ccccd3d4ccccd3d4ccccd 00000001801dfec0     GuGeometryQuery.obj
 0002:00002ed0       __xmm@3e19999a3e19999a3e19999a3e19999a 00000001801dfed0     GuGeometryQuery.obj
 0002:00002ee0       __xmm@3e4ccccd3e4ccccd3e4ccccd3e4ccccd 00000001801dfee0     GuGeometryQuery.obj
 0002:00002ef0       __xmm@3e8000003e8000003e8000003e800000 00000001801dfef0     GuGeometryQuery.obj
 0002:00002f00       __xmm@3f7ef9db3f7ef9db3f7ef9db3f7ef9db 00000001801dff00     GuGeometryQuery.obj
 0002:00002f10       __xmm@3f7ff2e53f7ff2e53f7ff2e53f7ff2e5 00000001801dff10     GuGeometryQuery.obj
 0002:00002f20       __xmm@3f8000003f8000003f8000003f800000 00000001801dff20     GuGeometryQuery.obj
 0002:00002f30       __xmm@7f7fffff7f7fffff7f7fffff7f7fffff 00000001801dff30     GuGeometryQuery.obj
 0002:00002f40       __xmm@bf000000bf000000bf000000bf000000 00000001801dff40     GuGeometryQuery.obj
 0002:00002f70       ??_C@_0HF@CIJONIKD@C?3?2Users?2lukas?4ternelius?2Deskto@ 00000001801dff70     GuMeshFactory.obj
 0002:00003000       ??_C@_0EM@BDFDGBD@Inserting?5object?5failed?3?5Object@ 00000001801e0000     GuMeshFactory.obj
 0002:00003070       ??_7CallbackRaycast@RTree@Gu@physx@@6B@ 00000001801e0070     GuMidphaseRTree.obj
 0002:00003070       ??_7CallbackRefit@RTree@Gu@physx@@6B@ 00000001801e0070     GuTriangleMeshRTree.obj
 0002:00003070       ??_7PxInsertionCallback@physx@@6B@ 00000001801e0070     GuMeshFactory.obj
 0002:00003080       ??_7PxCollisionMeshMappingData@physx@@6B@ 00000001801e0080     GuMeshFactory.obj
 0002:00003090       ??_7MeshFactory@Gu@physx@@6B@ 00000001801e0090     GuMeshFactory.obj
 0002:00003098       ??_7MeshDataBase@Gu@physx@@6B@ 00000001801e0098     GuMeshFactory.obj
 0002:000030a0       ??_C@_0HF@MGEINGCE@C?3?2Users?2lukas?4ternelius?2Deskto@ 00000001801e00a0     GuMeshFactory.obj
 0002:00003118       ??_7TriangleMeshData@Gu@physx@@6B@ 00000001801e0118     GuMeshFactory.obj
 0002:00003120       ??_7RTreeTriangleData@Gu@physx@@6B@ 00000001801e0120     GuMeshFactory.obj
 0002:00003128       ??_7BV4TriangleData@Gu@physx@@6B@ 00000001801e0128     GuMeshFactory.obj
 0002:00003130       ??_7SoftBodyCollisionData@Gu@physx@@6B@ 00000001801e0130     GuMeshFactory.obj
 0002:00003138       ??_7CollisionMeshMappingData@Gu@physx@@6B@ 00000001801e0138     GuMeshFactory.obj
 0002:00003148       ??_7SoftBodySimulationData@Gu@physx@@6B@ 00000001801e0148     GuMeshFactory.obj
 0002:00003150       ??_C@_0GP@NHELMDAL@Loading?5triangle?5mesh?5failed?3?5D@ 00000001801e0150     GuMeshFactory.obj
 0002:000031c0       ??_C@_0BP@CDOKDACA@RTree?5binary?5image?5load?5error?4@ 00000001801e01c0     GuMeshFactory.obj
 0002:000031e0       ??_C@_0BN@MJPNIELF@BV4?5binary?5image?5load?5error?4@ 00000001801e01e0     GuMeshFactory.obj
 0002:00003200       ??_C@_0BO@JDPABAOF@BV32?5binary?5image?5load?5error?4@ 00000001801e0200     GuMeshFactory.obj
 0002:00003220       ??_C@_0GL@KKDGOOHK@C?3?2Users?2lukas?4ternelius?2Deskto@ 00000001801e0220     GuMeshFactory.obj
 0002:00003290       __xmm@cdcdcdcdcdcdcdcdcdcdcdcdcdcdcdcd 00000001801e0290     GuMeshFactory.obj
 0002:000032a0       __xmm@fe7fffff7e7fffff7e7fffff7e7fffff 00000001801e02a0     GuMeshFactory.obj
 0002:000032d0       ??_C@_06EJKDJEDO@PxBase@   00000001801e02d0     GuMetaData.obj
 0002:000032d8       ??_C@_07GFCEJNGM@Valency@  00000001801e02d8     GuMetaData.obj
 0002:000032e0       ??_C@_07NHGKEEIN@mOffset@  00000001801e02e0     GuMetaData.obj
 0002:000032e8       ??_C@_0BB@BAGHBMNJ@BigConvexRawData@ 00000001801e02e8     GuMetaData.obj
 0002:00003300       ??_C@_07PBDEJAAC@mSubdiv@  00000001801e0300     GuMetaData.obj
 0002:00003308       ??_C@_0L@HNPACPGH@mNbSamples@ 00000001801e0308     GuMetaData.obj
 0002:00003314       ??_C@_04NCKNBPPK@PxU8@     00000001801e0314     GuMetaData.obj
 0002:00003320       ??_C@_08DEPEKJNI@mSamples@ 00000001801e0320     GuMetaData.obj
 0002:00003330       ??_C@_08IJDNJBMI@mNbVerts@ 00000001801e0330     GuMetaData.obj
 0002:00003340       ??_C@_0M@MMKMIJAF@mNbAdjVerts@ 00000001801e0340     GuMetaData.obj
 0002:00003350       ??_C@_0L@EOKMNILC@mValencies@ 00000001801e0350     GuMetaData.obj
 0002:00003360       ??_C@_0P@DLGEAMHJ@mAdjacentVerts@ 00000001801e0360     GuMetaData.obj
 0002:00003370       ??_C@_04GGOEHDKB@Dim3@     00000001801e0370     GuMetaData.obj
 0002:00003378       ??_C@_01FJMABOPO@x@        00000001801e0378     GuMetaData.obj
 0002:0000337c       ??_C@_01EANLCPLP@y@        00000001801e037c     GuMetaData.obj
 0002:00003380       ??_C@_01GLPGHMHM@z@        00000001801e0380     GuMetaData.obj
 0002:00003384       ??_C@_03NGLDENDA@SDF@      00000001801e0384     GuMetaData.obj
 0002:00003388       ??_C@_06KDGGGLIJ@PxVec3@   00000001801e0388     GuMetaData.obj
 0002:00003390       ??_C@_0L@COALOJDH@mMeshLower@ 00000001801e0390     GuMetaData.obj
 0002:0000339c       ??_C@_06GIEBFILM@PxReal@   00000001801e039c     GuMetaData.obj
 0002:000033a8       ??_C@_08LAPKNLAN@mSpacing@ 00000001801e03a8     GuMetaData.obj
 0002:000033b4       ??_C@_05FFBHHGJO@mDims@    00000001801e03b4     GuMetaData.obj
 0002:000033c0       ??_C@_08BEIPGJN@mNumSdfs@  00000001801e03c0     GuMetaData.obj
 0002:000033cc       ??_C@_04PNLOLEIP@mSdf@     00000001801e03cc     GuMetaData.obj
 0002:000033d8       ??_C@_0N@ILJLOAFB@mSubgridSize@ 00000001801e03d8     GuMetaData.obj
 0002:000033e8       ??_C@_0P@EMNLEPPL@mNumStartSlots@ 00000001801e03e8     GuMetaData.obj
 0002:000033f8       ??_C@_0BD@BIMMHJEO@mSubgridStartSlots@ 00000001801e03f8     GuMetaData.obj
 0002:00003410       ??_C@_0BA@OKNFKLGG@mNumSubgridSdfs@ 00000001801e0410     GuMetaData.obj
 0002:00003420       ??_C@_0M@PGCPOAID@mSubgridSdf@ 00000001801e0420     GuMetaData.obj
 0002:00003430       ??_C@_0BK@KJPHDIOI@mSdfSubgrids3DTexBlockDim@ 00000001801e0430     GuMetaData.obj
 0002:00003450       ??_C@_0BF@PONLKCNL@mSubgridsMinSdfValue@ 00000001801e0450     GuMetaData.obj
 0002:00003468       ??_C@_0BF@GOKILCDB@mSubgridsMaxSdfValue@ 00000001801e0468     GuMetaData.obj
 0002:00003480       ??_C@_0BF@NMEHBGBK@mBytesPerSparsePixel@ 00000001801e0480     GuMetaData.obj
 0002:00003498       ??_C@_0O@PFOPBKAM@BigConvexData@ 00000001801e0498     GuMetaData.obj
 0002:000034a8       ??_C@_05PLKALGFN@mData@    00000001801e04a8     GuMetaData.obj
 0002:000034b0       ??_C@_08PEMCLHEM@mVBuffer@ 00000001801e04b0     GuMetaData.obj
 0002:000034c0       ??_C@_09FBMAGD@Alignment@  00000001801e04c0     GuMetaData.obj
 0002:000034d0       ??_C@_0BE@KFHIBEEA@InternalObjectsData@ 00000001801e04d0     GuMetaData.obj
 0002:000034e8       ??_C@_07NKGFFIBH@mRadius@  00000001801e04e8     GuMetaData.obj
 0002:000034f0       ??_C@_08EHFCACAE@mExtents@ 00000001801e04f0     GuMetaData.obj
 0002:00003500       ??_C@_0BA@LFMGGCBK@HullPolygonData@ 00000001801e0500     GuMetaData.obj
 0002:00003510       ??_C@_06BOHHGLB@mPlane@    00000001801e0510     GuMetaData.obj
 0002:00003518       ??_C@_06EHMLHGLN@mVRef8@   00000001801e0518     GuMetaData.obj
 0002:00003520       ??_C@_09BAHHHINI@mMinIndex@ 00000001801e0520     GuMetaData.obj
 0002:00003530       ??_C@_0P@GBLBPIPB@ConvexHullData@ 00000001801e0530     GuMetaData.obj
 0002:00003540       ??_C@_09JDCJAPKD@PxBounds3@ 00000001801e0540     GuMetaData.obj
 0002:0000354c       ??_C@_05NDNHIFA@mAABB@     00000001801e054c     GuMetaData.obj
 0002:00003558       ??_C@_0O@LNOGEMJI@mCenterOfMass@ 00000001801e0558     GuMetaData.obj
 0002:00003568       ??_C@_09CNMCBBKH@mPolygons@ 00000001801e0568     GuMetaData.obj
 0002:00003578       ??_C@_0BC@KKPDCFJC@mBigConvexRawData@ 00000001801e0578     GuMetaData.obj
 0002:00003590       ??_C@_08MPNAAJLD@mSdfData@ 00000001801e0590     GuMetaData.obj
 0002:000035a0       ??_C@_08ELDMKGKH@mNbEdges@ 00000001801e05a0     GuMetaData.obj
 0002:000035b0       ??_C@_0BA@CGLOHBAC@mNbHullVertices@ 00000001801e05b0     GuMetaData.obj
 0002:000035c0       ??_C@_0M@HGFFLLDM@mNbPolygons@ 00000001801e05c0     GuMetaData.obj
 0002:000035d0       ??_C@_09BHJEMDGO@mInternal@ 00000001801e05d0     GuMetaData.obj
 0002:000035e0       ??_C@_0L@GMFHOMKA@ConvexMesh@ 00000001801e05e0     GuMetaData.obj
 0002:000035f0       ??_C@_09ILEBDLJH@mHullData@ 00000001801e05f0     GuMetaData.obj
 0002:000035fc       ??_C@_03DKDIKGNC@mNb@      00000001801e05fc     GuMetaData.obj
 0002:00003600       ??_C@_0P@ENLHFHMD@mBigConvexData@ 00000001801e0600     GuMetaData.obj
 0002:00003610       ??_C@_05ILALLCHK@mMass@    00000001801e0610     GuMetaData.obj
 0002:00003618       ??_C@_07DBPDADGB@PxMat33@  00000001801e0618     GuMetaData.obj
 0002:00003620       ??_C@_08FNBHNDBI@mInertia@ 00000001801e0620     GuMetaData.obj
 0002:00003630       ??_C@_0O@FCKNKLMJ@GuMeshFactory@ 00000001801e0630     GuMetaData.obj
 0002:00003640       ??_C@_0N@EGBCLMAK@mMeshFactory@ 00000001801e0640     GuMetaData.obj
 0002:00003650       ??_C@_0BE@CJJAMAMK@PxHeightFieldSample@ 00000001801e0650     GuMetaData.obj
 0002:00003664       ??_C@_05MBLIPEMA@PxI16@    00000001801e0664     GuMetaData.obj
 0002:0000366c       ??_C@_06LNLHEAAG@height@   00000001801e066c     GuMetaData.obj
 0002:00003678       ??_C@_0N@HHDGHJN@PxBitAndByte@ 00000001801e0678     GuMetaData.obj
 0002:00003688       ??_C@_0P@MBBMLBO@materialIndex0@ 00000001801e0688     GuMetaData.obj
 0002:00003698       ??_C@_0P@BFAKPKFP@materialIndex1@ 00000001801e0698     GuMetaData.obj
 0002:000036a8       ??_C@_0BD@EBLPJEOE@PxHeightFieldFlags@ 00000001801e06a8     GuMetaData.obj
 0002:000036c0       ??_C@_0BK@FNNCFFCN@PxHeightFieldFormat?3?3Enum@ 00000001801e06c0     GuMetaData.obj
 0002:000036e0       ??_C@_0BA@CLNFMAAA@HeightFieldData@ 00000001801e06e0     GuMetaData.obj
 0002:000036f0       ??_C@_04IMCGAIPI@rows@     00000001801e06f0     GuMetaData.obj
 0002:000036f8       ??_C@_07HIFEPIJN@columns@  00000001801e06f8     GuMetaData.obj
 0002:00003700       ??_C@_08MOAGOABI@rowLimit@ 00000001801e0700     GuMetaData.obj
 0002:00003710       ??_C@_08BAGEHOBO@colLimit@ 00000001801e0710     GuMetaData.obj
 0002:00003720       ??_C@_09LKDBLADF@nbColumns@ 00000001801e0720     GuMetaData.obj
 0002:00003730       ??_C@_07ODIFGGLK@samples@  00000001801e0730     GuMetaData.obj
 0002:00003738       ??_C@_0BE@POHEGOJG@convexEdgeThreshold@ 00000001801e0738     GuMetaData.obj
 0002:0000374c       ??_C@_05GECEPKB@flags@     00000001801e074c     GuMetaData.obj
 0002:00003754       ??_C@_06DLEPGFEF@format@   00000001801e0754     GuMetaData.obj
 0002:00003760       ??_C@_0BF@MOGDNMPL@PxMaterialTableIndex@ 00000001801e0760     GuMetaData.obj
 0002:00003778       ??_C@_0M@JMJICJJO@HeightField@ 00000001801e0778     GuMetaData.obj
 0002:00003788       ??_C@_0O@ENGHMLJP@mSampleStride@ 00000001801e0788     GuMetaData.obj
 0002:00003798       ??_C@_0L@EBEEMFFB@mMinHeight@ 00000001801e0798     GuMetaData.obj
 0002:000037a8       ??_C@_0L@EAEIFPOF@mMaxHeight@ 00000001801e07a8     GuMetaData.obj
 0002:000037b8       ??_C@_0N@FEFJOKKE@mModifyCount@ 00000001801e07b8     GuMetaData.obj
 0002:000037c8       ??_C@_09PHDKHCK@RTreePage@ 00000001801e07c8     GuMetaData.obj
 0002:000037d4       ??_C@_04LLPOBGED@minx@     00000001801e07d4     GuMetaData.obj
 0002:000037dc       ??_C@_04KCOFCHAC@miny@     00000001801e07dc     GuMetaData.obj
 0002:000037e4       ??_C@_04IJMIHEMB@minz@     00000001801e07e4     GuMetaData.obj
 0002:000037ec       ??_C@_04GGOBOBGO@maxx@     00000001801e07ec     GuMetaData.obj
 0002:000037f4       ??_C@_04HPPKNACP@maxy@     00000001801e07f4     GuMetaData.obj
 0002:000037fc       ??_C@_04FENHIDOM@maxz@     00000001801e07fc     GuMetaData.obj
 0002:00003804       ??_C@_04HHDFEJON@ptrs@     00000001801e0804     GuMetaData.obj
 0002:0000380c       ??_C@_05FFEIGAJF@RTree@    00000001801e080c     GuMetaData.obj
 0002:00003814       ??_C@_06OMCHPNEO@PxVec4@   00000001801e0814     GuMetaData.obj
 0002:00003820       ??_C@_0L@NBIFEFLN@mBoundsMin@ 00000001801e0820     GuMetaData.obj
 0002:00003830       ??_C@_0L@MDAOKBNC@mBoundsMax@ 00000001801e0830     GuMetaData.obj
 0002:00003840       ??_C@_0N@NJEHLCOF@mInvDiagonal@ 00000001801e0840     GuMetaData.obj
 0002:00003850       ??_C@_0BA@BEFIGPFG@mDiagonalScaler@ 00000001801e0850     GuMetaData.obj
 0002:00003860       ??_C@_09DICGGKGO@mPageSize@ 00000001801e0860     GuMetaData.obj
 0002:00003870       ??_C@_0O@BOFFCNOL@mNumRootPages@ 00000001801e0870     GuMetaData.obj
 0002:00003880       ??_C@_0L@JKLGBKAE@mNumLevels@ 00000001801e0880     GuMetaData.obj
 0002:00003890       ??_C@_0M@PHDOHJGK@mTotalNodes@ 00000001801e0890     GuMetaData.obj
 0002:000038a0       ??_C@_0M@GDGHALAO@mTotalPages@ 00000001801e08a0     GuMetaData.obj
 0002:000038ac       ??_C@_06MHCBBJGP@mFlags@   00000001801e08ac     GuMetaData.obj
 0002:000038b4       ??_C@_06MMNBLHOK@mPages@   00000001801e08b4     GuMetaData.obj
 0002:000038c0       ??_C@_0P@JNLGHJNH@SourceMeshBase@ 00000001801e08c0     GuMetaData.obj
 0002:000038d0       ??_C@_06JFCLJMNN@mVerts@   00000001801e08d0     GuMetaData.obj
 0002:000038d8       ??_C@_05GNIIDDHH@mType@    00000001801e08d8     GuMetaData.obj
 0002:000038e0       ??_C@_06DHAAKLFK@mRemap@   00000001801e08e0     GuMetaData.obj
 0002:000038e8       ??_C@_0L@LEOGNOEC@SourceMesh@ 00000001801e08e8     GuMetaData.obj
 0002:000038f8       ??_C@_07MPIKOOAP@mNbTris@  00000001801e08f8     GuMetaData.obj
 0002:00003900       ??_C@_0N@FBMOMEHF@mTriangles32@ 00000001801e0900     GuMetaData.obj
 0002:00003910       ??_C@_0N@DGCGNFBP@mTriangles16@ 00000001801e0910     GuMetaData.obj
 0002:00003920       ??_C@_0O@NLNHFNO@QuantizedAABB@ 00000001801e0920     GuMetaData.obj
 0002:00003930       ??_C@_0BC@OOGBEMHH@mData?$FL0?$FN?4mExtents@ 00000001801e0930     GuMetaData.obj
 0002:00003948       ??_C@_0BB@OCEDKIEF@mData?$FL0?$FN?4mCenter@ 00000001801e0948     GuMetaData.obj
 0002:00003960       ??_C@_0BC@HFMEAABI@mData?$FL1?$FN?4mExtents@ 00000001801e0960     GuMetaData.obj
 0002:00003978       ??_C@_0BB@CDMNHHIF@mData?$FL1?$FN?4mCenter@ 00000001801e0978     GuMetaData.obj
 0002:00003990       ??_C@_0BC@CFKNCOI@mData?$FL2?$FN?4mExtents@ 00000001801e0990     GuMetaData.obj
 0002:000039a8       ??_C@_0BB@LKCPBBIE@mData?$FL2?$FN?4mCenter@ 00000001801e09a8     GuMetaData.obj
 0002:000039c0       ??_C@_0O@MJJKKPFN@BVDataPackedQ@ 00000001801e09c0     GuMetaData.obj
 0002:000039d0       ??_C@_0O@JFMLAIPJ@CenterExtents@ 00000001801e09d0     GuMetaData.obj
 0002:000039e0       ??_C@_07GNKDIIKJ@mCenter@  00000001801e09e0     GuMetaData.obj
 0002:000039e8       ??_C@_0P@KBMJDPLO@BVDataPackedNQ@ 00000001801e09e8     GuMetaData.obj
 0002:000039f8       ??_C@_0M@PNCEBOG@LocalBounds@ 00000001801e09f8     GuMetaData.obj
 0002:00003a04       ??_C@_05KNFBNCOH@float@    00000001801e0a04     GuMetaData.obj
 0002:00003a10       ??_C@_0BC@LADJKHPL@mExtentsMagnitude@ 00000001801e0a10     GuMetaData.obj
 0002:00003a28       ??_C@_07HELIOLAF@BV4Tree@  00000001801e0a28     GuMetaData.obj
 0002:00003a30       ??_C@_0P@EMMDNPMH@mMeshInterface@ 00000001801e0a30     GuMetaData.obj
 0002:00003a40       ??_C@_0N@DCKMHLCL@mLocalBounds@ 00000001801e0a40     GuMetaData.obj
 0002:00003a50       ??_C@_08EEJOMIJL@mNbNodes@ 00000001801e0a50     GuMetaData.obj
 0002:00003a5c       ??_C@_06FIIIMFIO@mNodes@   00000001801e0a5c     GuMetaData.obj
 0002:00003a68       ??_C@_09FGKNPI@mInitData@  00000001801e0a68     GuMetaData.obj
 0002:00003a78       ??_C@_0BC@CLDEHKCO@mCenterOrMinCoeff@ 00000001801e0a78     GuMetaData.obj
 0002:00003a90       ??_C@_0BD@LAOLBNJ@mExtentsOrMaxCoeff@ 00000001801e0a90     GuMetaData.obj
 0002:00003aa8       ??_C@_0P@JEECKKBL@mUserAllocated@ 00000001801e0aa8     GuMetaData.obj
 0002:00003ab8       ??_C@_0L@GLIMNECG@mQuantized@ 00000001801e0ab8     GuMetaData.obj
 0002:00003ac8       ??_C@_0L@CCOJDAID@mIsEdgeSet@ 00000001801e0ac8     GuMetaData.obj
 0002:00003ad8       ??_C@_08BNDBAGDH@mPadding@ 00000001801e0ad8     GuMetaData.obj
 0002:00003ae8       ??_C@_0N@OJNNNLIB@TriangleMesh@ 00000001801e0ae8     GuMetaData.obj
 0002:00003af8       ??_C@_0M@OGEDMEAL@mNbVertices@ 00000001801e0af8     GuMetaData.obj
 0002:00003b08       ??_C@_0N@MGGDNHNI@mNbTriangles@ 00000001801e0b08     GuMetaData.obj
 0002:00003b18       ??_C@_09LNNEGOJA@mVertices@ 00000001801e0b18     GuMetaData.obj
 0002:00003b28       ??_C@_0L@KBOFAKLO@mTriangles@ 00000001801e0b28     GuMetaData.obj
 0002:00003b38       ??_C@_0P@MHDFIHLD@mExtraTrigData@ 00000001801e0b38     GuMetaData.obj
 0002:00003b48       ??_C@_0N@MGIKKCI@mGeomEpsilon@ 00000001801e0b48     GuMetaData.obj
 0002:00003b58       ??_C@_0BB@IFLOOCNA@mMaterialIndices@ 00000001801e0b58     GuMetaData.obj
 0002:00003b70       ??_C@_0L@OPJMBFMI@mFaceRemap@ 00000001801e0b70     GuMetaData.obj
 0002:00003b80       ??_C@_0N@BIOECAPM@mAdjacencies@ 00000001801e0b80     GuMetaData.obj
 0002:00003b90       ??_C@_09CICJHLPI@mEdgeList@ 00000001801e0b90     GuMetaData.obj
 0002:00003ba0       ??_C@_0BD@IPKCNNIK@mLocalCenterOfMass@ 00000001801e0ba0     GuMetaData.obj
 0002:00003bb8       ??_C@_0BA@OCOIGPII@mGRB_triIndices@ 00000001801e0bb8     GuMetaData.obj
 0002:00003bc8       ??_C@_0BE@JPINNDAH@mGRB_triAdjacencies@ 00000001801e0bc8     GuMetaData.obj
 0002:00003be0       ??_C@_0P@EDFJJHEF@mGRB_faceRemap@ 00000001801e0be0     GuMetaData.obj
 0002:00003bf0       ??_C@_0BG@EEALPPCP@mGRB_faceRemapInverse@ 00000001801e0bf0     GuMetaData.obj
 0002:00003c08       ??_C@_0N@NAKPIGJP@Gu?3?3BV32Tree@ 00000001801e0c08     GuMetaData.obj
 0002:00003c18       ??_C@_0O@CKMBAIFN@mGRB_BV32Tree@ 00000001801e0c18     GuMetaData.obj
 0002:00003c28       ??_C@_0BJ@LEBGJKBE@mAccumulatedTrianglesRef@ 00000001801e0c28     GuMetaData.obj
 0002:00003c48       ??_C@_0BF@OJMCNCDP@mTrianglesReferences@ 00000001801e0c48     GuMetaData.obj
 0002:00003c60       ??_C@_0BH@LDGPOFA@mNbTrianglesReferences@ 00000001801e0c60     GuMetaData.obj
 0002:00003c78       ??_C@_0BC@IFGECKF@RTreeTriangleMesh@ 00000001801e0c78     GuMetaData.obj
 0002:00003c8c       ??_C@_06JDIHDDGN@mRTree@   00000001801e0c8c     GuMetaData.obj
 0002:00003c98       ??_C@_0BA@LNNFPOKA@BV4TriangleMesh@ 00000001801e0c98     GuMetaData.obj
 0002:00003ca8       ??_C@_08FKLPEGDB@mBV4Tree@ 00000001801e0ca8     GuMetaData.obj
 0002:00003cb8       ??_7?$SupportLocalImpl@VConvexHullNoScaleV@Gu@physx@@@Gu@physx@@6B@ 00000001801e0cb8     GuMTD.obj
 0002:00003d00       ?absMask@?1??FAbs@aos@physx@@YA?AT__m128@@T4@@Z@4QBIB 00000001801e0d00     GuMTD.obj
 0002:00003d10       ??_7GjkConvex@Gu@physx@@6B@ 00000001801e0d10     GuMTD.obj
 0002:00003d40       ??_7?$LocalConvex@VCapsuleV@Gu@physx@@@Gu@physx@@6B@ 00000001801e0d40     GuMTD.obj
 0002:00003d70       ??_7?$LocalConvex@VConvexHullV@Gu@physx@@@Gu@physx@@6B@ 00000001801e0d70     GuMTD.obj
 0002:00003da0       __real@2edbe6ff            00000001801e0da0     GuMTD.obj
 0002:00003da4       __real@34000000            00000001801e0da4     GuMTD.obj
 0002:00003da8       __real@ff7fffff            00000001801e0da8     GuMTD.obj
 0002:00003db0       __xmm@34000000340000003400000034000000 00000001801e0db0     GuMTD.obj
 0002:00003dc0       __xmm@358637bd358637bd358637bd358637bd 00000001801e0dc0     GuMTD.obj
 0002:00003dd0       __xmm@3dcccccd3dcccccd3dcccccd3dcccccd 00000001801e0dd0     GuMTD.obj
 0002:00003de0       __xmm@3f7ff1413f7ff1413f7ff1413f7ff141 00000001801e0de0     GuMTD.obj
 0002:00003e10       ??_7?$RelativeConvex@VBoxV@Gu@physx@@@Gu@physx@@6B@ 00000001801e0e10     GuOverlapTests.obj
 0002:00003e40       ??_7?$RelativeConvex@VConvexHullV@Gu@physx@@@Gu@physx@@6B@ 00000001801e0e40     GuOverlapTests.obj
 0002:00003ea0       __real@1e3ce508            00000001801e0ea0     GuRaycastTests.obj
 0002:00003ea4       __real@28800000            00000001801e0ea4     GuRaycastTests.obj
 0002:00003ea8       __real@33d6bf95            00000001801e0ea8     GuRaycastTests.obj
 0002:00003eac       __real@3727c5ac            00000001801e0eac     GuRaycastTests.obj
 0002:00003eb0       __real@3f0147ae            00000001801e0eb0     GuRaycastTests.obj
 0002:00003eb4       __real@3f7ffffe            00000001801e0eb4     GuRaycastTests.obj
 0002:00003eb8       __real@3f800347            00000001801e0eb8     GuRaycastTests.obj
 0002:00003ebc       __real@41200000            00000001801e0ebc     GuRaycastTests.obj
 0002:00003ec0       __real@80000000            00000001801e0ec0     GuRaycastTests.obj
 0002:00003ec4       __real@b3d6bf95            00000001801e0ec4     GuRaycastTests.obj
 0002:00003ec8       __real@b8d1b717            00000001801e0ec8     GuRaycastTests.obj
 0002:00003ecc       __real@c1200000            00000001801e0ecc     GuRaycastTests.obj
 0002:00003f00       ??_7?$MeshHitCallback@UPxGeomRaycastHit@physx@@@Gu@physx@@6B@ 00000001801e0f00     GuSweepMTD.obj
 0002:00003f10       ??_7MeshMTDGenerationCallback@@6B@ 00000001801e0f10     GuSweepMTD.obj
 0002:00003f20       ??_7MidPhaseQueryLocalReport@@6B@ 00000001801e0f20     GuSweepMTD.obj
 0002:00003f30       __real@3f8147ae            00000001801e0f30     GuSweepMTD.obj
 0002:00003f34       __real@3f933333            00000001801e0f34     GuSweepMTD.obj
 0002:00003f60       __real@3c23d70a            00000001801e0f60     GuSweepSharedTests.obj
 0002:00003f64       __real@42c80000            00000001801e0f64     GuSweepSharedTests.obj
 0002:00003f70       __xmm@ffffffffffffffffffffffffffffffff 00000001801e0f70     GuSweepSharedTests.obj
 0002:00003fa0       ??_7?$LocalConvex@VBoxV@Gu@physx@@@Gu@physx@@6B@ 00000001801e0fa0     GuSweepTests.obj
 0002:00003fd0       ??_7?$LocalConvex@VTriangleV@Gu@physx@@@Gu@physx@@6B@ 00000001801e0fd0     GuSweepTests.obj
 0002:00004000       __xmm@00000002000000020000000200000002 00000001801e1000     GuSweepTests.obj
 0002:00004010       __xmm@3eaaaa9f3eaaaa9f3eaaaa9f3eaaaa9f 00000001801e1010     GuSweepTests.obj
 0002:000040c8       ??_7PxRunnable@physx@@6B@  00000001801e10c8     GuSDF.obj
 0002:000040e0       ??_C@_0GN@GEONGNHK@C?3?2Users?2lukas?4ternelius?2Deskto@ 00000001801e10e0     GuSDF.obj
 0002:00004150       ??_7PointOntoTriangleMeshProjector@Gu@physx@@6B@ 00000001801e1150     GuSDF.obj
 0002:00004168       ??_7?$PxThreadT@V?$PxReflectionAllocator@VPxThreadImpl@physx@@@physx@@@physx@@6B@ 00000001801e1168     GuSDF.obj
 0002:00004178       ??_C@_06FJHNOCKE@thread@   00000001801e1178     GuSDF.obj
 0002:00004180       ??_C@_0BAK@OPLLKLNG@SDF?5creation?3?5Mesh?5is?5not?5suita@ 00000001801e1180     GuSDF.obj
 0002:00004290       ??_C@_0FB@OMEANACP@SDF?5creation?3?5Input?5mesh?5is?5not@ 00000001801e1290     GuSDF.obj
 0002:000042f0       ??_C@_0GM@HEBNBGFB@C?3?2Users?2lukas?4ternelius?2Deskto@ 00000001801e12f0     GuSDF.obj
 0002:00004360       ??_C@_0GK@EDJAHFLB@C?3?2Users?2lukas?4ternelius?2Deskto@ 00000001801e1360     GuSDF.obj
 0002:000043d0       ??_C@_0HD@MMGJIJMI@C?3?2Users?2lukas?4ternelius?2Deskto@ 00000001801e13d0     GuSDF.obj
 0002:00004444       __real@37800080            00000001801e1444     GuSDF.obj
 0002:00004448       __real@3b808081            00000001801e1448     GuSDF.obj
 0002:0000444c       __real@3e2aaaab            00000001801e144c     GuSDF.obj
 0002:00004450       __real@3eaaaaab            00000001801e1450     GuSDF.obj
 0002:00004454       __real@3f7d70a4            00000001801e1454     GuSDF.obj
 0002:00004458       __real@7e7fffff            00000001801e1458     GuSDF.obj
 0002:0000445c       __real@bf000000            00000001801e145c     GuSDF.obj
 0002:00004460       __real@fe7fffff            00000001801e1460     GuSDF.obj
 0002:00004470       __xmm@00000001000000010000000100000000 00000001801e1470     GuSDF.obj
 0002:00004480       __real@437f0000            00000001801e1480     GuCookingSDF.obj
 0002:00004484       __real@477fff00            00000001801e1484     GuCookingSDF.obj
 0002:000044b0       ??_7?$RelativeConvex@UCustomConvexV@@@Gu@physx@@6B@ 00000001801e14b0     GuGjkQuery.obj
 0002:000044e0       ??_7?$LocalConvex@UCustomConvexV@@@Gu@physx@@6B@ 00000001801e14e0     GuGjkQuery.obj
 0002:00004510       ??_7?$LocalConvex@UPointConvexV@@@Gu@physx@@6B@ 00000001801e1510     GuGjkQuery.obj
 0002:00004560       __real@3da2f983            00000001801e1560     GuWindingNumber.obj
 0002:00004564       __real@3e22f983            00000001801e1564     GuWindingNumber.obj
 0002:00004568       __real@3f99999a            00000001801e1568     GuWindingNumber.obj
 0002:000045d0       __real@3c343958            00000001801e15d0     GuCCDSweepConvexMesh.obj
 0002:000045d4       __real@3ca3d70a            00000001801e15d4     GuCCDSweepConvexMesh.obj
 0002:000045d8       __real@3f0ccccd            00000001801e15d8     GuCCDSweepConvexMesh.obj
 0002:000045dc       __real@3f8ccccd            00000001801e15dc     GuCCDSweepConvexMesh.obj
 0002:000045e0       __real@b58637bd            00000001801e15e0     GuCCDSweepConvexMesh.obj
 0002:00004610       ??_7?$RelativeConvex@VCapsuleV@Gu@physx@@@Gu@physx@@6B@ 00000001801e1610     GuCCDSweepPrimitives.obj
 0002:00004640       ??_7?$RelativeConvex@VTriangleV@Gu@physx@@@Gu@physx@@6B@ 00000001801e1640     GuCCDSweepPrimitives.obj
 0002:00004670       __real@3ba3d70a            00000001801e1670     GuCCDSweepPrimitives.obj
 0002:00004674       __real@501502f9            00000001801e1674     GuCCDSweepPrimitives.obj
 0002:000046a0       ??_C@_0HM@MBALMFKP@C?3?2Users?2lukas?4ternelius?2Deskto@ 00000001801e16a0     GuAdjacencies.obj
 0002:00004720       ??_C@_0DA@FMEHLBKI@Adjacencies?3?3UpdateLink?3?5invali@ 00000001801e1720     GuAdjacencies.obj
 0002:00004750       ??_C@_0EA@CPHOACLK@Adjacencies?3?3CreateDatabase?3?5ca@ 00000001801e1750     GuAdjacencies.obj
 0002:00004790       ??_C@_0HJ@NEPJKMLN@C?3?2Users?2lukas?4ternelius?2Deskto@ 00000001801e1790     GuEdgeList.obj
 0002:00004810       ??_C@_0CO@GBNJFPN@EdgeList?3?3CreateFacesToEdges?3?5N@ 00000001801e1810     GuEdgeList.obj
 0002:00004840       ??_C@_0CO@EHJBBMNK@EdgeList?3?3ComputeActiveEdges?3?5N@ 00000001801e1840     GuEdgeList.obj
 0002:00004870       ??_C@_0DI@GBHLFOFP@ActiveEdges?3?3ComputeConvexEdges@ 00000001801e1870     GuEdgeList.obj
 0002:000048a8       ??_C@_0DM@JOGBLHDI@ActiveEdges?3?3ComputeConvexEdges@ 00000001801e18a8     GuEdgeList.obj
 0002:000048f0       ??_C@_0ED@FEMJKPEL@ActiveEdges?3?3ComputeConvexEdges@ 00000001801e18f0     GuEdgeList.obj
 0002:00004940       ??_C@_0EB@BFDPMFCD@ActiveEdges?3?3ComputeConvexEdges@ 00000001801e1940     GuEdgeList.obj
 0002:00004984       __real@bf7fbe77            00000001801e1984     GuEdgeList.obj
 0002:00004988       ??_7Quantizer@Gu@physx@@6B@ 00000001801e1988     GuQuantizer.obj
 0002:000049b0       ??_7QuantizerImpl@@6B@     00000001801e19b0     GuQuantizer.obj
 0002:000049e0       ??_C@_0HK@HMOJEDHP@C?3?2Users?2lukas?4ternelius?2Deskto@ 00000001801e19e0     GuQuantizer.obj
 0002:00004a5c       __real@3f0020c5            00000001801e1a5c     GuQuantizer.obj
 0002:00004a60       __real@3f8020c5            00000001801e1a60     GuQuantizer.obj
 0002:00004a70       ??_C@_0HM@OEFAOIPL@C?3?2Users?2lukas?4ternelius?2Deskto@ 00000001801e1a70     GuMeshCleaner.obj
 0002:00004aec       __real@40800000            00000001801e1aec     GuMeshCleaner.obj
 0002:00004af0       ??_C@_0HO@IPFGOGMG@C?3?2Users?2lukas?4ternelius?2Deskto@ 00000001801e1af0     GuVertexReducer.obj
 0002:00004c70       __real@3f7fbe77            00000001801e1c70     GuContactBoxBox.obj
 0002:00004cc0       __real@3f7ff2e5            00000001801e1cc0     GuContactCapsuleCapsule.obj
 0002:00004d50       __real@358637be            00000001801e1d50     GuContactCapsuleMesh.obj
 0002:00004d54       __real@ba83126f            00000001801e1d54     GuContactCapsuleMesh.obj
 0002:00004db0       ??_7ConvexMeshContactGenerationCallback@@6B@ 00000001801e1db0     GuContactConvexMesh.obj
 0002:00004e30       __real@3ec90fdb            00000001801e1e30     GuContactPolygonPolygon.obj
 0002:00004e34       __real@3f490fdb            00000001801e1e34     GuContactPolygonPolygon.obj
 0002:00004e38       __real@3f96cbe4            00000001801e1e38     GuContactPolygonPolygon.obj
 0002:00004e3c       __real@3fc90fdb            00000001801e1e3c     GuContactPolygonPolygon.obj
 0002:00004e40       __real@3ffb53d2            00000001801e1e40     GuContactPolygonPolygon.obj
 0002:00004e44       __real@4016cbe4            00000001801e1e44     GuContactPolygonPolygon.obj
 0002:00004e48       __real@402feddf            00000001801e1e48     GuContactPolygonPolygon.obj
 0002:00004e80       ??_C@_0DL@OAFGOMGB@Dropping?5contacts?5in?5sphere?5vs?5@ 00000001801e1e80     GuContactSphereMesh.obj
 0002:00004ec0       ??_C@_0ID@KDIAADOD@C?3?2Users?2lukas?4ternelius?2Deskto@ 00000001801e1ec0     GuContactSphereMesh.obj
 0002:00004f80       ??_C@_0HO@NNNFICOC@C?3?2Users?2lukas?4ternelius?2Deskto@ 00000001801e1f80     GuBigConvexData.obj
 0002:00005020       ??_C@_0N@CDGINLLF@PxConvexMesh@ 00000001801e2020     GuConvexMesh.obj
 0002:00005030       ??_7PxBase@physx@@6B@      00000001801e2030     GuConvexMesh.obj
 0002:00005058       ??_C@_0CE@IDAGNPDH@isKindOf?5called?5with?5invalid?5st@ 00000001801e2058     GuConvexMesh.obj
 0002:00005080       ??_C@_0N@OPPDBGAG@PxRefCounted@ 00000001801e2080     GuConvexMesh.obj
 0002:00005090       ??_C@_0GO@FDKPJPAK@C?3?2Users?2lukas?4ternelius?2Deskto@ 00000001801e2090     GuConvexMesh.obj
 0002:00005100       ??_7ConvexMesh@Gu@physx@@6B@ 00000001801e2100     GuConvexMesh.obj
 0002:000051a0       ??_C@_0HL@BPPKAEJC@C?3?2Users?2lukas?4ternelius?2Deskto@ 00000001801e21a0     GuConvexMesh.obj
 0002:00005220       ??_C@_0DM@NEJKOFIP@Loading?5convex?5mesh?5failed?3?5Dep@ 00000001801e2220     GuConvexMesh.obj
 0002:00005260       ??_C@_0DB@PAHEPIEL@PxConvexMesh?3?3release?3?5double?5d@ 00000001801e2260     GuConvexMesh.obj
 0002:000052a0       ??_C@_0HD@NKMKDJED@C?3?2Users?2lukas?4ternelius?2Deskto@ 00000001801e22a0     GuConvexMesh.obj
 0002:00005340       __xmm@000000000000000000000000ffffffff 00000001801e2340     GuConvexSupportTable.obj
 0002:00005350       __xmm@0000000000000000ffffffff00000000 00000001801e2350     GuConvexSupportTable.obj
 0002:00005360       __xmm@0000000000000000ffffffffffffffff 00000001801e2360     GuConvexSupportTable.obj
 0002:00005370       __xmm@00000000ffffffff0000000000000000 00000001801e2370     GuConvexSupportTable.obj
 0002:00005380       __xmm@00000000ffffffff00000000ffffffff 00000001801e2380     GuConvexSupportTable.obj
 0002:00005390       __xmm@00000000ffffffffffffffff00000000 00000001801e2390     GuConvexSupportTable.obj
 0002:00005420       __xmm@2b8cbccc2b8cbccc2b8cbccc2b8cbccc 00000001801e2420     GuDistancePointTriangle.obj
 0002:00005470       __xmm@3f0000003f0000003f0000003f000000 00000001801e2470     GuDistanceSegmentSegment.obj
 0002:000054a0       __real@2b8cbccc            00000001801e24a0     GuDistanceSegmentTriangle.obj
 0002:000054b0       __xmm@3f8000013f8000013f8000013f800001 00000001801e24b0     GuDistanceSegmentTriangle.obj
 0002:000054c0       __xmm@b4000000b4000000b4000000b4000000 00000001801e24c0     GuDistanceSegmentTriangle.obj
 0002:000054f0       __real@26901d7d            00000001801e24f0     GuDistanceTriangleTriangle.obj
 0002:00005570       __xmm@38d1b71738d1b71738d1b71738d1b717 00000001801e2570     GuGJKSimplex.obj
 0002:000055a0       ??_C@_0O@PBAKPCEC@PxHeightField@ 00000001801e25a0     GuHeightField.obj
 0002:000055b0       ??_C@_0GP@KJEAIIK@C?3?2Users?2lukas?4ternelius?2Deskto@ 00000001801e25b0     GuHeightField.obj
 0002:00005620       ??_7HeightField@Gu@physx@@6B@ 00000001801e2620     GuHeightField.obj
 0002:000056d8       ??_C@_0DC@BDMMBOKH@PxHeightField?3?3release?3?5double?5@ 00000001801e26d8     GuHeightField.obj
 0002:00005710       ??_C@_0DF@LLAFPPKJ@Gu?3?3HeightField?3?3modifySamples?3@ 00000001801e2710     GuHeightField.obj
 0002:00005750       ??_C@_0HI@NBCAIPHA@C?3?2Users?2lukas?4ternelius?2Deskto@ 00000001801e2750     GuHeightField.obj
 0002:000057c8       ??_C@_0CI@DMKEKGNK@Gu?3?3HeightField?3?3load?3?5PX_ALLOC@ 00000001801e27c8     GuHeightField.obj
 0002:000057f0       ??_C@_0DG@LACOBMDE@Gu?3?3HeightField?3?3loadFromDesc?3?5@ 00000001801e27f0     GuHeightField.obj
 0002:00005830       ??_C@_0GM@DADJFPJN@C?3?2Users?2lukas?4ternelius?2Deskto@ 00000001801e2830     GuHeightField.obj
 0002:000058c0       ??_C@_0DH@EJDJIMCB@HeightFieldShape?3?3getTriangle?3?5@ 00000001801e28c0     GuHeightFieldUtil.obj
 0002:00005900       ??_C@_0HM@ELHAJMCI@C?3?2Users?2lukas?4ternelius?2Deskto@ 00000001801e2900     GuHeightFieldUtil.obj
 0002:0000597c       __real@3a03126f            00000001801e297c     GuHeightFieldUtil.obj
 0002:00005980       __real@3f19999a            00000001801e2980     GuHeightFieldUtil.obj
 0002:00005990       __xmm@40000000000000000000000000000000 00000001801e2990     GuHeightFieldUtil.obj
 0002:00005a20       ??_7HeightFieldTraceSegmentReport@@6B@ 00000001801e2a20     GuSweepsHF.obj
 0002:00005a30       ??_7CapsuleTraceSegmentReport@@6B@ 00000001801e2a30     GuSweepsHF.obj
 0002:00005a40       ??_7ConvexTraceSegmentReport@@6B@ 00000001801e2a40     GuSweepsHF.obj
 0002:00005a50       ??_7BoxTraceSegmentReport@@6B@ 00000001801e2a50     GuSweepsHF.obj
 0002:00005a60       __real@aedbe6ff            00000001801e2a60     GuSweepsHF.obj
 0002:00005a90       __real@3089705f            00000001801e2a90     GuIntersectionRayBox.obj
 0002:00005a94       __real@b4000000            00000001801e2a94     GuIntersectionRayBox.obj
 0002:00005aa0       __xmm@000000003089705f3089705f3089705f 00000001801e2aa0     GuIntersectionRayBox.obj
 0002:00005ab0       __xmm@00000000bf800000bf800000bf800000 00000001801e2ab0     GuIntersectionRayBox.obj
 0002:00005b00       ??_7SourceMeshBase@Gu@physx@@6B@ 00000001801e2b00     GuBV4.obj
 0002:00005b28       ??_7SourceMesh@Gu@physx@@6B@ 00000001801e2b28     GuBV4.obj
 0002:00005b50       ??_7TetrahedronSourceMesh@Gu@physx@@6B@ 00000001801e2b50     GuBV4.obj
 0002:00005b80       ??_C@_0HC@JLALNFLF@C?3?2Users?2lukas?4ternelius?2Deskto@ 00000001801e2b80     GuBV4.obj
 0002:00005c00       __xmm@ff7fffffff7fffffff7fffffff7fffff 00000001801e2c00     GuBV4.obj
 0002:00005c30       ??_C@_0HH@DPAPOECC@C?3?2Users?2lukas?4ternelius?2Deskto@ 00000001801e2c30     GuBV4Build.obj
 0002:00005ca8       __real@38000100            00000001801e2ca8     GuBV4Build.obj
 0002:00005cac       __real@3e93cd3a            00000001801e2cac     GuBV4Build.obj
 0002:00005cb0       __real@46fffe00            00000001801e2cb0     GuBV4Build.obj
 0002:00005cb4       __real@be93cd3a            00000001801e2cb4     GuBV4Build.obj
 0002:00005ce0       __xmm@0000ffff0000ffff0000ffff0000ffff 00000001801e2ce0     GuBV4_AABBSweep.obj
 0002:00005cf0       __xmm@3089705f3089705f3089705f3089705f 00000001801e2cf0     GuBV4_AABBSweep.obj
 0002:00005d00       __xmm@33d6bf9533d6bf9533d6bf9533d6bf95 00000001801e2d00     GuBV4_AABBSweep.obj
 0002:00005d10       __xmm@40000000400000004000000040000000 00000001801e2d10     GuBV4_AABBSweep.obj
 0002:00005da0       __xmm@322bcc77322bcc77322bcc77322bcc77 00000001801e2da0     GuBV4_MeshMeshOverlap.obj
 0002:00005df0       __real@00000000            00000001801e2df0     GuBV4_Raycast.obj
 0002:00005e20       __real@4f7fffff            00000001801e2e20     GuBV4_SphereOverlap.obj
 0002:00005e70       __xmm@000000007f7fffff0000000000000000 00000001801e2e70     GuMidphaseBV4.obj
 0002:00005ee0       ??_C@_0DK@FFHPKGEP@PxMeshQuery?3?3getTriangle?3?5trian@ 00000001801e2ee0     GuMeshQuery.obj
 0002:00005f20       ??_C@_0HI@NCMIHHBL@C?3?2Users?2lukas?4ternelius?2Deskto@ 00000001801e2f20     GuMeshQuery.obj
 0002:00005fa0       ??_C@_0FD@EHCCILIF@Adjacency?5information?5not?5creat@ 00000001801e2fa0     GuMeshQuery.obj
 0002:00006000       ??_C@_0FA@MCAAGAGM@findOverlapTriangleMesh?3?5Only?5b@ 00000001801e3000     GuMeshQuery.obj
 0002:00006050       ??_C@_0FL@BKNMAHIA@PxMeshQuery?3?3findOverlapTriangl@ 00000001801e3050     GuMeshQuery.obj
 0002:000060b0       ??_C@_0EM@BEFNLPHI@findOverlapHeightField?3?5Only?5bo@ 00000001801e30b0     GuMeshQuery.obj
 0002:00006100       ??_C@_0CJ@NLNHIMDM@PxMeshQuery?3?3sweep?$CI?$CJ?3?5pose?5is?5n@ 00000001801e3100     GuMeshQuery.obj
 0002:00006130       ??_C@_0CM@BFKJPOOO@PxMeshQuery?3?3sweep?$CI?$CJ?3?5unitDir?5i@ 00000001801e3130     GuMeshQuery.obj
 0002:00006160       ??_C@_0CN@JKBDLLPP@PxMeshQuery?3?3sweep?$CI?$CJ?3?5distance?5@ 00000001801e3160     GuMeshQuery.obj
 0002:00006190       ??_C@_0DN@DPNNFGGF@PxMeshQuery?3?3sweep?$CI?$CJ?3?5sweep?5dis@ 00000001801e3190     GuMeshQuery.obj
 0002:000061d0       ??_C@_0BA@MBAFFELP@MeshQuery?4sweep@ 00000001801e31d0     GuMeshQuery.obj
 0002:000061e0       ??_C@_0FJ@GNAHJJCM@PxMeshQuery?3?3sweep?$CI?$CJ?3?5geometry?5@ 00000001801e31e0     GuMeshQuery.obj
 0002:0000623c       __real@4cbebc20            00000001801e323c     GuMeshQuery.obj
 0002:00006260       ??_7Callback@RTree@Gu@physx@@6B@ 00000001801e3260     GuMidphaseRTree.obj
 0002:00006278       ??_7?$RayRTreeCallback@$00$0A@@@6BCallbackRaycast@RTree@Gu@physx@@@ 00000001801e3278     GuMidphaseRTree.obj
 0002:00006278       ??_7?$RayRTreeCallback@$0A@$0A@@@6BCallbackRaycast@RTree@Gu@physx@@@ 00000001801e3278     GuMidphaseRTree.obj
 0002:00006288       ??_7?$RayRTreeCallback@$00$0A@@@6BCallback@RTree@Gu@physx@@@ 00000001801e3288     GuMidphaseRTree.obj
 0002:00006288       ??_7?$RayRTreeCallback@$0A@$0A@@@6BCallback@RTree@Gu@physx@@@ 00000001801e3288     GuMidphaseRTree.obj
 0002:000062a0       ??_7RayMeshColliderCallback@@6B@ 00000001801e32a0     GuMidphaseRTree.obj
 0002:000062b0       ??_C@_0EN@DPPFLBLF@Point?9mesh?5distance?5query?5not?5s@ 00000001801e32b0     GuMidphaseRTree.obj
 0002:00006300       ??_C@_0HM@IFNDCLNN@C?3?2Users?2lukas?4ternelius?2Deskto@ 00000001801e3300     GuMidphaseRTree.obj
 0002:00006380       ??_7?$RayRTreeCallback@$0A@$00@@6BCallbackRaycast@RTree@Gu@physx@@@ 00000001801e3380     GuMidphaseRTree.obj
 0002:00006390       ??_7?$RayRTreeCallback@$0A@$00@@6BCallback@RTree@Gu@physx@@@ 00000001801e3390     GuMidphaseRTree.obj
 0002:000063a8       ??_7?$RayRTreeCallback@$00$00@@6BCallbackRaycast@RTree@Gu@physx@@@ 00000001801e33a8     GuMidphaseRTree.obj
 0002:000063b8       ??_7?$RayRTreeCallback@$00$00@@6BCallback@RTree@Gu@physx@@@ 00000001801e33b8     GuMidphaseRTree.obj
 0002:00006430       __xmm@7f7fffff000000000000000000000000 00000001801e3430     GuMidphaseRTree.obj
 0002:000064b0       ??_7?$PxReportCallback@UPxGeomIndexPair@physx@@@physx@@6B@ 00000001801e34b0     GuOverlapTestsMesh.obj
 0002:000064d0       ??_C@_0EP@CEFGCJKJ@PxGeometryQuery?3?3overlap?$CI?$CJ?3?5onl@ 00000001801e34d0     GuOverlapTestsMesh.obj
 0002:00006520       ??_C@_0HP@NGKBDJAC@C?3?2Users?2lukas?4ternelius?2Deskto@ 00000001801e3520     GuOverlapTestsMesh.obj
 0002:000065c0       ?MN@RTreePage@Gu@physx@@2MB 00000001801e35c0     GuRTree.obj
 0002:000065c4       ?MX@RTreePage@Gu@physx@@2MB 00000001801e35c4     GuRTree.obj
 0002:000065d0       ??_C@_0HE@KHLFNPEK@C?3?2Users?2lukas?4ternelius?2Deskto@ 00000001801e35d0     GuRTree.obj
 0002:000066c0       ??_7SweepShapeMeshHitCallback@Gu@physx@@6B@ 00000001801e36c0     GuSweepsMesh.obj
 0002:000066d0       ??_7SweepCapsuleMeshHitCallback@Gu@physx@@6B@ 00000001801e36d0     GuSweepsMesh.obj
 0002:000066e0       ??_7SweepBoxMeshHitCallback@Gu@physx@@6B@ 00000001801e36e0     GuSweepsMesh.obj
 0002:000066f0       ??_7SweepConvexMeshHitCallback@Gu@physx@@6B@ 00000001801e36f0     GuSweepsMesh.obj
 0002:00006720       ??_C@_0P@GGNFNHKF@PxTriangleMesh@ 00000001801e3720     GuTriangleMesh.obj
 0002:00006730       ??_C@_0HA@OKDPGMJG@C?3?2Users?2lukas?4ternelius?2Deskto@ 00000001801e3730     GuTriangleMesh.obj
 0002:000067a0       ??_7TriangleMesh@Gu@physx@@6B@ 00000001801e37a0     GuTriangleMesh.obj
 0002:00006878       ??_C@_0DD@LOOPMCGG@PxTriangleMesh?3?3release?3?5double@ 00000001801e3878     GuTriangleMesh.obj
 0002:000068b0       ??_C@_0FH@PMPAJDGI@PxTriangleMesh?3?3getVerticesForM@ 00000001801e38b0     GuTriangleMesh.obj
 0002:00006910       ??_C@_0HL@CBKKKLHD@C?3?2Users?2lukas?4ternelius?2Deskto@ 00000001801e3910     GuTriangleMesh.obj
 0002:00006990       ??_C@_0EF@GMNFLDH@PxTriangleMesh?3?3refitBVH?$CI?$CJ?5is?5n@ 00000001801e3990     GuTriangleMesh.obj
 0002:000069e0       __xmm@38383838383838383838383838383838 00000001801e39e0     GuTriangleMesh.obj
 0002:00006a10       ??_C@_0BE@CNJKIINO@PxBVH34TriangleMesh@ 00000001801e3a10     GuTriangleMeshBV4.obj
 0002:00006a28       ??_7BV4TriangleMesh@Gu@physx@@6B@ 00000001801e3a28     GuTriangleMeshBV4.obj
 0002:00006b00       ??_C@_0EF@JLFNNPLP@BVH34?5trees?3?5refit?5operation?5on@ 00000001801e3b00     GuTriangleMeshBV4.obj
 0002:00006b50       ??_C@_0HO@BBOPLGGG@C?3?2Users?2lukas?4ternelius?2Deskto@ 00000001801e3b50     GuTriangleMeshBV4.obj
 0002:00006bd0       __real@3951b717            00000001801e3bd0     GuTriangleMeshBV4.obj
 0002:00006c00       ??_C@_0BE@EIFHCCBO@PxBVH33TriangleMesh@ 00000001801e3c00     GuTriangleMeshRTree.obj
 0002:00006c18       ??_7RTreeTriangleMesh@Gu@physx@@6B@ 00000001801e3c18     GuTriangleMeshRTree.obj
 0002:00006cf0       ??_7?$RefitCallback@G@physx@@6B@ 00000001801e3cf0     GuTriangleMeshRTree.obj
 0002:00006d00       ??_7?$RefitCallback@I@physx@@6B@ 00000001801e3d00     GuTriangleMeshRTree.obj
 0002:00006d30       ??_C@_0HD@MHNDKNMH@C?3?2Users?2lukas?4ternelius?2Deskto@ 00000001801e3d30     GuBV32.obj
 0002:00006dd0       ??_C@_0HI@IHACKJCO@C?3?2Users?2lukas?4ternelius?2Deskto@ 00000001801e3dd0     GuBV32Build.obj
 0002:00006e70       ??_C@_0BC@FDAIDHBP@PxTetrahedronMesh@ 00000001801e3e70     GuTetrahedronMesh.obj
 0002:00006e90       ??_C@_0HD@EDOFENBE@C?3?2Users?2lukas?4ternelius?2Deskto@ 00000001801e3e90     GuTetrahedronMesh.obj
 0002:00006f08       ??_C@_0BC@FBICGJIB@PxSoftBodyAuxData@ 00000001801e3f08     GuTetrahedronMesh.obj
 0002:00006f20       ??_C@_0P@CLLFGFAA@PxSoftBodyMesh@ 00000001801e3f20     GuTetrahedronMesh.obj
 0002:00006f30       ??_7SoftBodyAuxData@Gu@physx@@6B@ 00000001801e3f30     GuTetrahedronMesh.obj
 0002:00006f78       ??_7TetrahedronMesh@Gu@physx@@6B@ 00000001801e3f78     GuTetrahedronMesh.obj
 0002:00006ff0       ??_7BVTetrahedronMesh@Gu@physx@@6B@ 00000001801e3ff0     GuTetrahedronMesh.obj
 0002:00007068       ??_7SoftBodyMesh@Gu@physx@@6B@ 00000001801e4068     GuTetrahedronMesh.obj
 0002:000070e8       ??_C@_0DG@JJNMDPMD@PxTetrahedronMesh?3?3release?3?5dou@ 00000001801e40e8     GuTetrahedronMesh.obj
 0002:00007120       ??_C@_0DD@GGFGEPII@PxSoftBodyMesh?3?3release?3?5double@ 00000001801e4120     GuTetrahedronMesh.obj
 0002:00007160       ??_C@_0HO@PDKMFMPC@C?3?2Users?2lukas?4ternelius?2Deskto@ 00000001801e4160     GuTetrahedronMesh.obj
 0002:00007220       __xmm@00000000358637bd358637bd358637bd 00000001801e4220     GuPCMContactBoxBox.obj
 0002:00007230       __xmm@3f4ccccd3f4ccccd3f4ccccd3f4ccccd 00000001801e4230     GuPCMContactBoxBox.obj
 0002:00007240       __xmm@3f8003473f8003473f8003473f800347 00000001801e4240     GuPCMContactBoxBox.obj
 0002:00007250       __xmm@ffffffff00000000ffffffffffffffff 00000001801e4250     GuPCMContactBoxBox.obj
 0002:00007280       ??_7?$LocalConvex@VConvexHullNoScaleV@Gu@physx@@@Gu@physx@@6B@ 00000001801e4280     GuPCMContactBoxConvex.obj
 0002:000072b0       __xmm@3f3504f33f3504f33f3504f33f3504f3 00000001801e42b0     GuPCMContactBoxConvex.obj
 0002:00007300       __xmm@ffffffffffffffffffffffff00000000 00000001801e4300     GuPCMContactCapsuleCapsule.obj
 0002:00007330       __xmm@3fa000003fa000003fa000003fa00000 00000001801e4330     GuPCMContactCapsuleConvex.obj
 0002:00007360       ??_7PCMCapsuleVsHeightfieldContactGenerationCallback@@6B@ 00000001801e4360     GuPCMContactCapsuleHeightField.obj
 0002:00007370       __real@3f7f3b64            00000001801e4370     GuPCMContactCapsuleHeightField.obj
 0002:000073c0       __xmm@3f7ff9723f7ff9723f7ff9723f7ff972 00000001801e43c0     GuPCMContactCapsuleMesh.obj
 0002:000073d0       __xmm@3f7fffef3f7fffef3f7fffef3f7fffef 00000001801e43d0     GuPCMContactCapsuleMesh.obj
 0002:000073e0       __xmm@60ad78ec60ad78ec60ad78ec60ad78ec 00000001801e43e0     GuPCMContactCapsuleMesh.obj
 0002:00007410       ??_7?$SupportLocalImpl@VTriangleV@Gu@physx@@@Gu@physx@@6B@ 00000001801e4410     GuPCMContactConvexCommon.obj
 0002:00007430       __xmm@3cf5c2803cf5c2803cf5c2803cf5c280 00000001801e4430     GuPCMContactConvexCommon.obj
 0002:00007440       __xmm@3f7851ec3f7851ec3f7851ec3f7851ec 00000001801e4440     GuPCMContactConvexCommon.obj
 0002:00007470       ??_7?$RelativeConvex@VConvexHullNoScaleV@Gu@physx@@@Gu@physx@@6B@ 00000001801e4470     GuPCMContactConvexConvex.obj
 0002:000074d0       __xmm@3f19999a3f19999a3f19999a3f19999a 00000001801e44d0     GuPCMContactConvexHeightField.obj
 0002:00007540       __xmm@3f34fdf43f34fdf43f34fdf43f34fdf4 00000001801e4540     GuPCMContactGenBoxConvex.obj
 0002:00007570       __xmm@3f80a3d73f80a3d73f80a3d73f80a3d7 00000001801e4570     GuPCMContactGenSphereCapsule.obj
 0002:00007580       __xmm@bba3d70abba3d70abba3d70abba3d70a 00000001801e4580     GuPCMContactGenSphereCapsule.obj
 0002:000075b0       __xmm@3f7ffd613f7ffd613f7ffd613f7ffd61 00000001801e45b0     GuPCMContactPlaneBox.obj
 0002:000075e0       __real@3b23d70b            00000001801e45e0     GuPCMContactPlaneCapsule.obj
 0002:000075f0       __xmm@3ca3d70a3ca3d70a3ca3d70a3ca3d70a 00000001801e45f0     GuPCMContactPlaneCapsule.obj
 0002:00007620       __xmm@3a03126f3a03126f3a03126f3a03126f 00000001801e4620     GuPCMContactPlaneConvex.obj
 0002:00007740       __xmm@3727c5ac3727c5ac3727c5ac3727c5ac 00000001801e4740     GuPCMContactSphereSphere.obj
 0002:00007770       __xmm@3f7f06f73f7f06f73f7f06f73f7f06f7 00000001801e4770     GuPCMContactCustomGeometry.obj
 0002:00007780       ?gPCMBoxPolygonData@Gu@physx@@3QBEB 00000001801e4780     GuPCMShapeConvex.obj
 0002:00007800       ?invalidateThresholds@Gu@physx@@3QBMB 00000001801e4800     GuPersistentContactManifold.obj
 0002:00007818       ?invalidateQuatThresholds@Gu@physx@@3QBMB 00000001801e4818     GuPersistentContactManifold.obj
 0002:00007830       ?invalidateThresholds2@Gu@physx@@3QBMB 00000001801e4830     GuPersistentContactManifold.obj
 0002:00007840       ?invalidateQuatThresholds2@Gu@physx@@3QBMB 00000001801e4840     GuPersistentContactManifold.obj
 0002:00007850       __xmm@00000000340000003400000034000000 00000001801e4850     GuPersistentContactManifold.obj
 0002:00007860       __xmm@000000003f8000003f80000000000000 00000001801e4860     GuPersistentContactManifold.obj
 0002:00007870       __xmm@00000000bf8000003f80000000000000 00000001801e4870     GuPersistentContactManifold.obj
 0002:00007880       __xmm@ffffffffffffffff00000000ffffffff 00000001801e4880     GuPersistentContactManifold.obj
 0002:000078b0       __xmm@c1200000c1200000c1200000c1200000 00000001801e48b0     GuPCMContactGenUtil.obj
 0002:00007900       __real@b727c5ac            00000001801e4900     GuSweepBoxSphere.obj
 0002:00007970       ??_C@_0HP@BEILFMFA@C?3?2Users?2lukas?4ternelius?2Deskto@ 00000001801e4970     GuSweepCapsuleBox.obj
 0002:00007a30       __real@3f7fff58            00000001801e4a30     GuSweepCapsuleTriangle.obj
 0002:00007aa0       ??_C@_0CH@DHJGKCPD@Gu?3?3computeBounds?3?5Unknown?5shap@ 00000001801e4aa0     GuBounds.obj
 0002:00007ad0       ??_C@_0HA@CHCHMPNK@C?3?2Users?2lukas?4ternelius?2Deskto@ 00000001801e4ad0     GuBounds.obj
 0002:00007b40       __real@34800000            00000001801e4b40     GuBounds.obj
 0002:00007b44       __real@3f7fffef            00000001801e4b44     GuBounds.obj
 0002:00007b50       __xmm@3f8147ae3f8147ae3f8147ae3f8147ae 00000001801e4b50     GuBounds.obj
 0002:00007b80       ??_C@_0HC@KEHJJGNF@C?3?2Users?2lukas?4ternelius?2Deskto@ 00000001801e4b80     GuAABBTree.obj
 0002:00007c00       __xmm@5a60b17f5a60b17f5a60b17f5a60b17f 00000001801e4c00     GuAABBTree.obj
 0002:00007c10       __xmm@da60b17fda60b17fda60b17fda60b17f 00000001801e4c10     GuAABBTree.obj
 0002:00007c80       ??_C@_0HN@IOHKAGIM@C?3?2Users?2lukas?4ternelius?2Deskto@ 00000001801e4c80     GuIncrementalAABBTree.obj
 0002:00007d00       ??_C@_0GK@HPKFEDGP@C?3?2Users?2lukas?4ternelius?2Deskto@ 00000001801e4d00     GuIncrementalAABBTree.obj
 0002:00007d6c       __real@40400000            00000001801e4d6c     GuIncrementalAABBTree.obj
 0002:00007d70       ??_C@_0GN@MNPCDKN@C?3?2Users?2lukas?4ternelius?2Deskto@ 00000001801e4d70     GuSAH.obj
 0002:00007e00       ??_7PxBVH@physx@@6B@       00000001801e4e00     GuBVH.obj
 0002:00007e78       ??_C@_05OKJNPKBM@PxBVH@    00000001801e4e78     GuBVH.obj
 0002:00007e80       ??_C@_0GH@EILHDFKA@C?3?2Users?2lukas?4ternelius?2Deskto@ 00000001801e4e80     GuBVH.obj
 0002:00007ee8       ??_7RefCountable@Cm@physx@@6B@ 00000001801e4ee8     GuBVH.obj
 0002:00007ef8       ??_7BVH@Gu@physx@@6BPxBVH@2@@ 00000001801e4ef8     GuBVH.obj
 0002:00007f70       ??_7BVH@Gu@physx@@6BRefCountable@Cm@2@@ 00000001801e4f70     GuBVH.obj
 0002:00007f80       ??_C@_0GN@BOLHLAFI@C?3?2Users?2lukas?4ternelius?2Deskto@ 00000001801e4f80     GuBVH.obj
 0002:00007ff0       ??_C@_0CK@HAIOEINI@PxBVH?3?3release?3?5double?5deletion@ 00000001801e4ff0     GuBVH.obj
 0002:00008040       ??_C@_0ID@MGLCBMOO@C?3?2Users?2lukas?4ternelius?2Deskto@ 00000001801e5040     GuIncrementalAABBPrunerCore.obj
 0002:000080c4       __real@3f80a3d7            00000001801e50c4     GuIncrementalAABBPrunerCore.obj
 0002:000080f0       ??_7BasePruner@Gu@physx@@6B@ 00000001801e50f0     GuIncrementalAABBPruner.obj
 0002:00008108       ??_7IncrementalAABBPruner@Gu@physx@@6B@ 00000001801e5108     GuIncrementalAABBPruner.obj
 0002:00008190       ??_C@_0BM@FLAABPLG@SceneQuery?4prunerAddObjects@ 00000001801e5190     GuIncrementalAABBPruner.obj
 0002:000081b0       ??_C@_0BP@EAAOKPEE@SceneQuery?4prunerUpdateObjects@ 00000001801e51b0     GuIncrementalAABBPruner.obj
 0002:000081d0       ??_C@_0BP@EHMBNBOH@SceneQuery?4prunerRemoveObjects@ 00000001801e51d0     GuIncrementalAABBPruner.obj
 0002:000081f0       ??_C@_0BI@HOKOKBIM@SceneQuery?4prunerCommit@ 00000001801e51f0     GuIncrementalAABBPruner.obj
 0002:00008210       ??_C@_0HP@POBLJGN@C?3?2Users?2lukas?4ternelius?2Deskto@ 00000001801e5210     GuIncrementalAABBPruner.obj
 0002:000082b0       ??_C@_0BE@PKINCBHP@PruningPool?3?3resize@ 00000001801e52b0     GuPruningPool.obj
 0002:000082d0       ??_C@_0HF@DKAOANOG@C?3?2Users?2lukas?4ternelius?2Deskto@ 00000001801e52d0     GuPruningPool.obj
 0002:00008348       ??_C@_0BI@HMDEMGJB@PruningPool?3?3addObjects@ 00000001801e5348     GuPruningPool.obj
 0002:00008360       ??_C@_0BK@JPNIEHEJ@PruningPool?3?3removeObject@ 00000001801e5360     GuPruningPool.obj
 0002:00008380       ??_C@_0BJ@GNLAFFBD@PruningPool?3?3shiftOrigin@ 00000001801e5380     GuPruningPool.obj
 0002:000083a0       ??_C@_0CE@MGPCCKGE@PruningPool?3?3updateAndInflateBo@ 00000001801e53a0     GuPruningPool.obj
 0002:00008410       ??_7BucketPruner@Gu@physx@@6B@ 00000001801e5410     GuBucketPruner.obj
 0002:000084a0       ??_C@_0HG@HFPAPEBK@C?3?2Users?2lukas?4ternelius?2Deskto@ 00000001801e54a0     GuBucketPruner.obj
 0002:00008518       __real@bf13cd3a            00000001801e5518     GuBucketPruner.obj
 0002:00008520       __xmm@000000007e7fffff7e7fffff7e7fffff 00000001801e5520     GuBucketPruner.obj
 0002:00008530       __xmm@00000000fe7ffffffe7ffffffe7fffff 00000001801e5530     GuBucketPruner.obj
 0002:00008540       __xmm@3f13cd3a3f13cd3a3f13cd3a3f13cd3a 00000001801e5540     GuBucketPruner.obj
 0002:00008550       __xmm@bf13cd3abf13cd3abf13cd3a3f13cd3a 00000001801e5550     GuBucketPruner.obj
 0002:00008560       __xmm@bf8000003f8000003f800000bf800000 00000001801e5560     GuBucketPruner.obj
 0002:00008570       __xmm@bf8000003f800000bf8000003f800000 00000001801e5570     GuBucketPruner.obj
 0002:00008580       __xmm@bf800000bf8000003f8000003f800000 00000001801e5580     GuBucketPruner.obj
 0002:00008590       __xmm@bf800000bf800000bf8000003f800000 00000001801e5590     GuBucketPruner.obj
 0002:000085a0       ?mIndices@MaverickNode@Gu@physx@@2QBIB 00000001801e55a0     GuMaverickNode.obj
 0002:00008600       ??_C@_0HO@KHOGJPBP@C?3?2Users?2lukas?4ternelius?2Deskto@ 00000001801e5600     GuExtendedBucketPruner.obj
 0002:000086a0       ??_7CompanionPruner@Gu@physx@@6B@ 00000001801e56a0     GuSecondaryPruner.obj
 0002:00008720       ??_7CompanionPrunerBucket@@6B@ 00000001801e5720     GuSecondaryPruner.obj
 0002:000087a0       ??_7CompanionPrunerIncremental@@6B@ 00000001801e57a0     GuSecondaryPruner.obj
 0002:00008820       ??_7CompanionPrunerAABBTree@@6B@ 00000001801e5820     GuSecondaryPruner.obj
 0002:000088a0       ??_C@_0HJ@BNKJNJBO@C?3?2Users?2lukas?4ternelius?2Deskto@ 00000001801e58a0     GuSecondaryPruner.obj
 0002:00008940       ??_7AABBPruner@Gu@physx@@6B@ 00000001801e5940     GuAABBPruner.obj
 0002:000089e0       ??_C@_0CC@JANKLMNO@SceneQuery?4bucketPrunerAddObjec@ 00000001801e59e0     GuAABBPruner.obj
 0002:00008a10       ??_C@_0LA@IHBEIKND@SceneQuery?5static?5AABB?5Tree?5reb@ 00000001801e5a10     GuAABBPruner.obj
 0002:00008ac0       ??_C@_0HE@JEJHOGDH@C?3?2Users?2lukas?4ternelius?2Deskto@ 00000001801e5ac0     GuAABBPruner.obj
 0002:00008b38       ??_C@_0CB@JOCHAJIC@SceneQuery?4prunerNewTreeFinaliz@ 00000001801e5b38     GuAABBPruner.obj
 0002:00008b60       ??_C@_0BP@IOICCIGM@SceneQuery?4prunerNewTreeSwitch@ 00000001801e5b60     GuAABBPruner.obj
 0002:00008b80       ??_C@_0CA@LJGALBJD@SceneQuery?4prunerNewTreeMapping@ 00000001801e5b80     GuAABBPruner.obj
 0002:00008ba0       ??_C@_0CD@OCIEMIME@SceneQuery?4prunerNewTreeFinalRe@ 00000001801e5ba0     GuAABBPruner.obj
 0002:00008bc8       ??_C@_0CG@PMFEEPAE@SceneQuery?4prunerNewTreeRemoveO@ 00000001801e5bc8     GuAABBPruner.obj
 0002:00008bf0       ??_C@_0BL@NAENOAHO@SceneQuery?4prunerBuildStep@ 00000001801e5bf0     GuAABBPruner.obj
 0002:00008c10       ??_C@_0CC@MJCIDELA@SceneQuery?4prunerNewTreeFullRef@ 00000001801e5c10     GuAABBPruner.obj
 0002:00008c38       ??_C@_0BI@DAHHAEPA@SceneQuery?4prepareBuild@ 00000001801e5c38     GuAABBPruner.obj
 0002:00008c50       ??_C@_0CF@PDMDBIIO@SceneQuery?4prunerFullRebuildAAB@ 00000001801e5c50     GuAABBPruner.obj
 0002:00008c78       ??_C@_0CE@GKMPPEJP@SceneQuery?4prunerUpdateBucketPr@ 00000001801e5c78     GuAABBPruner.obj
 0002:00008ca0       ??_C@_0CI@MKOHFNNO@SceneQuery?4prunerRefitUpdatedAn@ 00000001801e5ca0     GuAABBPruner.obj
 0002:00008cd0       ??_C@_0HH@DNLILOPB@C?3?2Users?2lukas?4ternelius?2Deskto@ 00000001801e5cd0     GuActorShapeMap.obj
 0002:00008d70       ??_C@_0BF@DNABLJAF@Invalid?5pruner?5index@ 00000001801e5d70     GuQuerySystem.obj
 0002:00008d90       ??_C@_0HF@GEGIPFGM@C?3?2Users?2lukas?4ternelius?2Deskto@ 00000001801e5d90     GuQuerySystem.obj
 0002:00008e08       ??_C@_0BO@MMDENGGP@QuerySystem?4processDirtyLists@ 00000001801e5e08     GuQuerySystem.obj
 0002:00008e28       ??_C@_0BE@PHJMAGEL@QuerySystem?3?3update@ 00000001801e5e28     GuQuerySystem.obj
 0002:00008e40       ??_C@_0BK@GODFCMPK@QuerySystem?4commitUpdates@ 00000001801e5e40     GuQuerySystem.obj
 0002:00008e90       ??_C@_0CA@NAJNANMC@QuerySystem?4createTreeOfPruners@ 00000001801e5e90     GuQuerySystem.obj
 0002:00008ed0       ??_C@_0HB@DGJAHOO@C?3?2Users?2lukas?4ternelius?2Deskto@ 00000001801e5ed0     GuFactory.obj
 0002:00008f50       ?reductionFactors@SubSortQuick@physx@@2QBMB 00000001801e5f50     GuRTreeCooking.obj
 0002:00008f60       ?stopAtTrisPerLeaf1@SubSortQuick@physx@@2QBIB 00000001801e5f60     GuRTreeCooking.obj
 0002:00009030       ??_C@_0HO@EBDCNFOK@C?3?2Users?2lukas?4ternelius?2Deskto@ 00000001801e6030     GuRTreeCooking.obj
 0002:000090b0       __real@41100000            00000001801e60b0     GuRTreeCooking.obj
 0002:000090b4       __real@41700000            00000001801e60b4     GuRTreeCooking.obj
 0002:000090b8       __real@42200000            00000001801e60b8     GuRTreeCooking.obj
 0002:000090c0       __xmm@00000004000000030000000200000001 00000001801e60c0     GuRTreeCooking.obj
 0002:000090f0       ??_C@_0HM@EDKCFCKN@C?3?2Users?2lukas?4ternelius?2Deskto@ 00000001801e60f0     GuCookingBVH.obj
 0002:00009170       ??_C@_0DL@JHPKHGFA@Cooking?3?3cookBVH?3?5user?9provided@ 00000001801e6170     GuCookingBVH.obj
 0002:000091b0       ??_C@_0DN@PLNPGFEB@Cooking?3?3createBVH?3?5user?9provid@ 00000001801e61b0     GuCookingBVH.obj
 0002:000091f0       ??_C@_0EL@JCJBAPHL@Cooking?3?3cookHeightField?3?5user?9@ 00000001801e61f0     GuCookingHF.obj
 0002:00009240       ??_C@_0HL@FNHEPEKF@C?3?2Users?2lukas?4ternelius?2Deskto@ 00000001801e6240     GuCookingHF.obj
 0002:000092c0       ??_C@_0EN@FCEPCAFC@Cooking?3?3createHeightField?3?5use@ 00000001801e62c0     GuCookingHF.obj
 0002:00009310       ??_C@_0EK@EKAIJEBL@Cooking?3?3cookConvexMesh?3?5user?9p@ 00000001801e6310     GuCookingConvexMesh.obj
 0002:00009360       ??_C@_0FA@GFFGAPML@Cooking?3?3cookConvexMesh?3?5provid@ 00000001801e6360     GuCookingConvexMesh.obj
 0002:000093b0       ??_C@_0EP@PKDCPNNO@Cooking?3?3cookConvexMesh?3?5provid@ 00000001801e63b0     GuCookingConvexMesh.obj
 0002:00009400       ??_C@_0EO@LKFMMDE@Cooking?3?3cookConvexMesh?3?5user?9p@ 00000001801e6400     GuCookingConvexMesh.obj
 0002:00009450       ??_C@_0EL@KJEPJALG@Cooking?3?3cookConvexMesh?3?5user?9p@ 00000001801e6450     GuCookingConvexMesh.obj
 0002:000094a0       ??_C@_0FM@LHMEBKMM@Cooking?3?3cookConvexMesh?3?5GPU?9co@ 00000001801e64a0     GuCookingConvexMesh.obj
 0002:00009500       ??_C@_0FJ@FHCFFABE@Cooking?3?3cookConvexMesh?3?5GPU?9co@ 00000001801e6500     GuCookingConvexMesh.obj
 0002:00009560       ??_C@_0LM@CHONPBFM@Cooking?3?3cookConvexMesh?3?5GPU?9co@ 00000001801e6560     GuCookingConvexMesh.obj
 0002:00009620       ??_C@_0ID@NIHHGEPD@C?3?2Users?2lukas?4ternelius?2Deskto@ 00000001801e6620     GuCookingConvexMesh.obj
 0002:000096d0       ??_7TriangleMeshBuilder@physx@@6B@ 00000001801e66d0     GuCookingTriangleMesh.obj
 0002:000096f8       ??_7RTreeTriangleMeshBuilder@physx@@6B@ 00000001801e66f8     GuCookingTriangleMesh.obj
 0002:00009720       ??_7BV4TriangleMeshBuilder@physx@@6B@ 00000001801e6720     GuCookingTriangleMesh.obj
 0002:00009750       ??_C@_0IF@LLLMGO@C?3?2Users?2lukas?4ternelius?2Deskto@ 00000001801e6750     GuCookingTriangleMesh.obj
 0002:000097e0       ??_C@_0EM@DBPINPE@TriangleMeshBuilder?3?3cleanMesh?3@ 00000001801e67e0     GuCookingTriangleMesh.obj
 0002:00009830       ??_C@_0EF@MLNDPEDJ@TriangleMeshBuilder?3?3cleanMesh?3@ 00000001801e6830     GuCookingTriangleMesh.obj
 0002:00009880       ??_C@_0FJ@HHJLKGDF@TriangleMesh?3?5triangles?5are?5too@ 00000001801e6880     GuCookingTriangleMesh.obj
 0002:000098e0       ??_C@_0CN@KGPHHHLK@TriangleMesh?3?5mesh?5is?5too?5big?5f@ 00000001801e68e0     GuCookingTriangleMesh.obj
 0002:00009910       ??_C@_0DD@CMJGDCNN@TriangleMesh?3?3loadFromDesc?3?5des@ 00000001801e6910     GuCookingTriangleMesh.obj
 0002:00009950       ??_C@_0ED@ILJJNHIP@TriangleMesh?3?3loadFromDesc?3?5mPa@ 00000001801e6950     GuCookingTriangleMesh.obj
 0002:00009998       ??_C@_0CK@BJFFGDPK@input?5mesh?5contains?5corrupted?5v@ 00000001801e6998     GuCookingTriangleMesh.obj
 0002:000099c8       ??_C@_0CC@BPIMLJA@input?5sdf?5contains?5corrupted?5da@ 00000001801e69c8     GuCookingTriangleMesh.obj
 0002:000099f0       ??_C@_0BK@JIDHMMCE@BV4?5tree?5failed?5to?5build?4@ 00000001801e69f0     GuCookingTriangleMesh.obj
 0002:00009a10       ??_C@_0BL@DHNECNBE@BV32?5tree?5failed?5to?5build?4@ 00000001801e6a10     GuCookingTriangleMesh.obj
 0002:00009a30       ??_7RTreeCookerRemap@@6B@  00000001801e6a30     GuCookingTriangleMesh.obj
 0002:00009a40       ??_C@_0FC@PJIHAFK@Cooking?3?3validateTriangleMesh?3?5@ 00000001801e6a40     GuCookingTriangleMesh.obj
 0002:00009b20       ??_7PxCollisionTetrahedronMeshData@physx@@6B@ 00000001801e6b20     GuCookingTetrahedronMesh.obj
 0002:00009b50       ??_7PxSimulationTetrahedronMeshData@physx@@6B@ 00000001801e6b50     GuCookingTetrahedronMesh.obj
 0002:00009b70       ??_7CollisionTetrahedronMeshData@Gu@physx@@6B@ 00000001801e6b70     GuCookingTetrahedronMesh.obj
 0002:00009ba0       ??_7SimulationTetrahedronMeshData@Gu@physx@@6B@ 00000001801e6ba0     GuCookingTetrahedronMesh.obj
 0002:00009bc0       ??_C@_0II@IIGBMIJE@C?3?2Users?2lukas?4ternelius?2Deskto@ 00000001801e6bc0     GuCookingTetrahedronMesh.obj
 0002:00009c48       ??_7?$LocalConvex@VTetrahedronV@Gu@physx@@@Gu@physx@@6B@ 00000001801e6c48     GuCookingTetrahedronMesh.obj
 0002:00009c78       ??_C@_0CD@OJGNHLOE@BV4_AABBTree?5tree?5failed?5to?5bui@ 00000001801e6c78     GuCookingTetrahedronMesh.obj
 0002:00009ca0       ??_C@_0DG@NCNIEEHB@TetrahedronMesh?3?3loadFromDesc?3?5@ 00000001801e6ca0     GuCookingTetrahedronMesh.obj
 0002:00009ce0       ??_C@_0EG@CJIFGLMC@TetrahedronMesh?3?3loadFromDesc?3?5@ 00000001801e6ce0     GuCookingTetrahedronMesh.obj
 0002:00009d28       __real@be2aaaab            00000001801e6d28     GuCookingTetrahedronMesh.obj
 0002:00009d30       __xmm@00000003000000030000000300000003 00000001801e6d30     GuCookingTetrahedronMesh.obj
 0002:00009d60       __real@3bc79ca10c924223    00000001801e6d60     GuCookingVolumeIntegration.obj
 0002:00009d68       __real@3f91111111111111    00000001801e6d68     GuCookingVolumeIntegration.obj
 0002:00009d70       __real@3fa5555555555555    00000001801e6d70     GuCookingVolumeIntegration.obj
 0002:00009d78       __real@3fa999999999999a    00000001801e6d78     GuCookingVolumeIntegration.obj
 0002:00009d80       __real@3fb5555555555555    00000001801e6d80     GuCookingVolumeIntegration.obj
 0002:00009d88       __real@3fc5555555555555    00000001801e6d88     GuCookingVolumeIntegration.obj
 0002:00009d90       __real@3fe0000000000000    00000001801e6d90     GuCookingVolumeIntegration.obj
 0002:00009d98       __real@3ff0000000000000    00000001801e6d98     GuCookingVolumeIntegration.obj
 0002:00009da0       __real@4008000000000000    00000001801e6da0     GuCookingVolumeIntegration.obj
 0002:00009da8       __real@4010000000000000    00000001801e6da8     GuCookingVolumeIntegration.obj
 0002:00009db0       __real@bf91111111111111    00000001801e6db0     GuCookingVolumeIntegration.obj
 0002:00009db8       __real@bfa999999999999a    00000001801e6db8     GuCookingVolumeIntegration.obj
 0002:00009dc0       __real@bfb5555555555555    00000001801e6dc0     GuCookingVolumeIntegration.obj
 0002:00009dc8       __real@bfc5555555555555    00000001801e6dc8     GuCookingVolumeIntegration.obj
 0002:00009dd0       __xmm@3c0888893c0888893c0888893c088889 00000001801e6dd0     GuCookingVolumeIntegration.obj
 0002:00009de0       __xmm@3c8888893c8888893c8888893c888889 00000001801e6de0     GuCookingVolumeIntegration.obj
 0002:00009df0       __xmm@3d2aaaab3d2aaaab3d2aaaab3d2aaaab 00000001801e6df0     GuCookingVolumeIntegration.obj
 0002:00009e00       __xmm@3e2aaaab3e2aaaab3e2aaaab3e2aaaab 00000001801e6e00     GuCookingVolumeIntegration.obj
 0002:00009e10       __xmm@3f811111111111113f81111111111111 00000001801e6e10     GuCookingVolumeIntegration.obj
 0002:00009e20       __xmm@3f811111111111113f91111111111111 00000001801e6e20     GuCookingVolumeIntegration.obj
 0002:00009e30       __xmm@3f911111111111113f91111111111111 00000001801e6e30     GuCookingVolumeIntegration.obj
 0002:00009e40       __xmm@3fa55555555555553fa5555555555555 00000001801e6e40     GuCookingVolumeIntegration.obj
 0002:00009e50       __xmm@3fa55555555555553fc5555555555555 00000001801e6e50     GuCookingVolumeIntegration.obj
 0002:00009e60       __xmm@3fd55555555555553fd5555555555555 00000001801e6e60     GuCookingVolumeIntegration.obj
 0002:00009e70       __xmm@3fe00000000000003fe0000000000000 00000001801e6e70     GuCookingVolumeIntegration.obj
 0002:00009e80       __xmm@7fffffffffffffff7fffffffffffffff 00000001801e6e80     GuCookingVolumeIntegration.obj
 0002:00009e90       __xmm@80000000000000008000000000000000 00000001801e6e90     GuCookingVolumeIntegration.obj
 0002:00009ea0       ??_7ConvexHullLib@physx@@6B@ 00000001801e6ea0     GuCookingQuickHullConvexHullLib.obj
 0002:00009ec0       ??_7QuickHullConvexHullLib@physx@@6B@ 00000001801e6ec0     GuCookingQuickHullConvexHullLib.obj
 0002:00009ee0       ??_C@_0IP@FHIIOEBD@C?3?2Users?2lukas?4ternelius?2Deskto@ 00000001801e6ee0     GuCookingQuickHullConvexHullLib.obj
 0002:00009f70       ??_C@_0GA@EPPAEJPM@QuickHullConvexHullLib?3?3findSim@ 00000001801e6f70     GuCookingQuickHullConvexHullLib.obj
 0002:00009fd0       ??_C@_0FB@NEBIJMML@QuickHullConvexHullLib?3?3findSim@ 00000001801e6fd0     GuCookingQuickHullConvexHullLib.obj
 0002:0000a030       ??_C@_0FB@CLLCBEMM@QuickHullConvexHullLib?3?3findSim@ 00000001801e7030     GuCookingQuickHullConvexHullLib.obj
 0002:0000a084       __real@34c00000            00000001801e7084     GuCookingQuickHullConvexHullLib.obj
 0002:0000a088       ??_C@_0DP@PJBJBEGF@Meshmerizer?3?3extractHullPolygon@ 00000001801e7088     GuCookingConvexPolygonsBuilder.obj
 0002:0000a0d0       ??_C@_0IO@GPEMBNLB@C?3?2Users?2lukas?4ternelius?2Deskto@ 00000001801e70d0     GuCookingConvexPolygonsBuilder.obj
 0002:0000a160       ??_C@_0DL@IAFKOCCK@ConvexHullBuilder?3?5convex?5hull?5@ 00000001801e7160     GuCookingConvexPolygonsBuilder.obj
 0002:0000a1a0       ??_C@_0GF@OJLJHAMH@ConvexHullBuilder?3?3CreateTriang@ 00000001801e71a0     GuCookingConvexPolygonsBuilder.obj
 0002:0000a230       ??_C@_0DF@LLFJIJGM@Gu?3?3ConvexMesh?3?3loadFromDesc?3?5d@ 00000001801e7230     GuCookingConvexMeshBuilder.obj
 0002:0000a270       ??_C@_0HK@JOGKIEAA@Gu?3?3ConvexMesh?3?5Mesh?5has?5a?5nega@ 00000001801e7270     GuCookingConvexMeshBuilder.obj
 0002:0000a2f0       ??_C@_0DH@NJPPHFFD@Gu?3?3ConvexMesh?3?5Error?5computing@ 00000001801e72f0     GuCookingConvexMeshBuilder.obj
 0002:0000a328       ??_C@_0DJ@LJDLGLDJ@Gu?3?3ConvexMesh?3?3loadConvexHull?3@ 00000001801e7328     GuCookingConvexMeshBuilder.obj
 0002:0000a370       ??_C@_0HJ@KJANPPOE@ConvexMeshBuilder?3?3computeHullP@ 00000001801e7370     GuCookingConvexMeshBuilder.obj
 0002:0000a3f0       ??_C@_0IK@HDNMENAA@C?3?2Users?2lukas?4ternelius?2Deskto@ 00000001801e73f0     GuCookingConvexMeshBuilder.obj
 0002:0000a480       ??_C@_0O@JMAGMMGG@PxHullPolygon@ 00000001801e7480     GuCookingConvexMeshBuilder.obj
 0002:0000a490       __real@3f13cd3a            00000001801e7490     GuCookingConvexMeshBuilder.obj
 0002:0000a4c0       ??_C@_0II@PJOGJIIP@C?3?2Users?2lukas?4ternelius?2Deskto@ 00000001801e74c0     GuCookingConvexHullUtils.obj
 0002:0000a548       __real@3e20d97c            00000001801e7548     GuCookingConvexHullUtils.obj
 0002:0000a550       ??_C@_0IG@GILANMCG@C?3?2Users?2lukas?4ternelius?2Deskto@ 00000001801e7550     GuCookingConvexHullLib.obj
 0002:0000a5e0       ??_C@_0JE@PABBNGEL@ConvexHullLib?3?3cleanupVertices?3@ 00000001801e75e0     GuCookingConvexHullLib.obj
 0002:0000a6a0       ??_C@_0IK@LNHIONFF@C?3?2Users?2lukas?4ternelius?2Deskto@ 00000001801e76a0     GuCookingConvexHullBuilder.obj
 0002:0000a730       ??_C@_0EB@DCEIFDGC@ConvexHullBuilder?3?3init?3?5convex@ 00000001801e7730     GuCookingConvexHullBuilder.obj
 0002:0000a780       ??_C@_0FM@KICBLCBH@Gu?3?3ConvexMesh?3?3checkHullPolygo@ 00000001801e7780     GuCookingConvexHullBuilder.obj
 0002:0000a7e0       ??_C@_0GO@HBFIOGLL@Gu?3?3ConvexMesh?3?3checkHullPolygo@ 00000001801e77e0     GuCookingConvexHullBuilder.obj
 0002:0000a850       ??_C@_0HF@OLJFBIEL@ConvexHullBuilder?3?5convex?5hull?5@ 00000001801e7850     GuCookingConvexHullBuilder.obj
 0002:0000a8d0       ??_C@_0OG@JNHFOIL@ConvexHullBuilder?3?5convex?5hull?5@ 00000001801e78d0     GuCookingConvexHullBuilder.obj
 0002:0000a9c0       ??_C@_0EJ@NIOIBAKH@Cooking?3?3cookConvexMesh?3?5non?9ma@ 00000001801e79c0     GuCookingConvexHullBuilder.obj
 0002:0000aa30       ??_C@_0IN@OMJDMBMF@C?3?2Users?2lukas?4ternelius?2Deskto@ 00000001801e7a30     GuCookingBigConvexDataBuilder.obj
 0002:0000aac0       __sz_PhysXFoundation_64_dll 00000001801e7ac0     PhysXFoundation_64:PhysXFoundation_64.dll
 0002:0000aad8       ??_C@_1BK@DBDEIDLH@?$AAK?$AAE?$AAR?$AAN?$AAE?$AAL?$AA3?$AA2?$AA?4?$AAD?$AAL?$AAL@ 00000001801e7ad8     Delayimp:delayhlp.obj
 0002:0000aaf8       ??_C@_0BI@OMNLIJDB@AcquireSRWLockExclusive@ 00000001801e7af8     Delayimp:delayhlp.obj
 0002:0000ab10       ??_C@_0BI@HMIEPCNJ@ReleaseSRWLockExclusive@ 00000001801e7b10     Delayimp:delayhlp.obj
 0002:0000ab28       __pfnDliFailureHook2       00000001801e7b28     Delayimp:delayhk1.obj
 0002:0000ab38       ??_7type_info@@6B@         00000001801e7b38     LIBCMT:std_type_info_static.obj
 0002:0000aba0       _pDefaultRawDllMain        00000001801e7ba0     LIBCMT:dll_dllmain.obj
 0002:0000aba0       _pRawDllMain               00000001801e7ba0     LIBCMT:dll_dllmain.obj
 0002:0000abb0       _load_config_used          00000001801e7bb0     LIBCMT:loadcfg.obj
 0002:0000acf0       _pDestructExceptionObject  00000001801e7cf0     libvcruntime:ehhelpers.obj
 0002:0000b410       ??_C@_08EHJDFFNH@__based?$CI@ 00000001801e8410     libvcruntime:undname.obj
 0002:0000b420       ??_C@_07KOLFKCDI@__cdecl@  00000001801e8420     libvcruntime:undname.obj
 0002:0000b428       ??_C@_08GHMPAG@__pascal@   00000001801e8428     libvcruntime:undname.obj
 0002:0000b438       ??_C@_09IFJBGAPI@__stdcall@ 00000001801e8438     libvcruntime:undname.obj
 0002:0000b448       ??_C@_0L@NPHFGOKO@__thiscall@ 00000001801e8448     libvcruntime:undname.obj
 0002:0000b458       ??_C@_0L@JMKHOMEK@__fastcall@ 00000001801e8458     libvcruntime:undname.obj
 0002:0000b468       ??_C@_0N@BCKKPABJ@__vectorcall@ 00000001801e8468     libvcruntime:undname.obj
 0002:0000b478       ??_C@_09HIJEGCPM@__clrcall@ 00000001801e8478     libvcruntime:undname.obj
 0002:0000b484       ??_C@_06GHPCKEAG@__eabi@   00000001801e8484     libvcruntime:undname.obj
 0002:0000b490       ??_C@_09IOPIDJLG@__swift_1@ 00000001801e8490     libvcruntime:undname.obj
 0002:0000b4a0       ??_C@_09KFNFGKHF@__swift_2@ 00000001801e84a0     libvcruntime:undname.obj
 0002:0000b4b0       ??_C@_09LMMOFLDE@__swift_3@ 00000001801e84b0     libvcruntime:undname.obj
 0002:0000b4c0       ??_C@_07JOMMBBKO@__ptr64@  00000001801e84c0     libvcruntime:undname.obj
 0002:0000b4c8       ??_C@_0L@PILCLIHE@__restrict@ 00000001801e84c8     libvcruntime:undname.obj
 0002:0000b4d8       ??_C@_0M@GFIIJFMG@__unaligned@ 00000001801e84d8     libvcruntime:undname.obj
 0002:0000b4e8       ??_C@_09DHDLOLLB@restrict?$CI@ 00000001801e84e8     libvcruntime:undname.obj
 0002:0000b4f4       ??_C@_04NIHEBCM@?5new@     00000001801e84f4     libvcruntime:undname.obj
 0002:0000b500       ??_C@_07FPCDHGMM@?5delete@ 00000001801e8500     libvcruntime:undname.obj
 0002:0000b508       ??_C@_01NEMOKFLO@?$DN@     00000001801e8508     libvcruntime:undname.obj
 0002:0000b50c       ??_C@_02GPIOPFAK@?$DO?$DO@ 00000001801e850c     libvcruntime:undname.obj
 0002:0000b510       ??_C@_02FODMEDOG@?$DM?$DM@ 00000001801e8510     libvcruntime:undname.obj
 0002:0000b514       ??_C@_01DCLJPIOD@?$CB@     00000001801e8514     libvcruntime:undname.obj
 0002:0000b518       ??_C@_02EGOFBIJA@?$DN?$DN@ 00000001801e8518     libvcruntime:undname.obj
 0002:0000b51c       ??_C@_02FDNJECIE@?$CB?$DN@ 00000001801e851c     libvcruntime:undname.obj
 0002:0000b520       ??_C@_02GPECMEKF@?$FL?$FN@ 00000001801e8520     libvcruntime:undname.obj
 0002:0000b528       ??_C@_08LHJFAFGD@operator@ 00000001801e8528     libvcruntime:undname.obj
 0002:0000b534       ??_C@_02HBOOOICD@?9?$DO@   00000001801e8534     libvcruntime:undname.obj
 0002:0000b538       ??_C@_01NBENCBCI@?$CK@     00000001801e8538     libvcruntime:undname.obj
 0002:0000b53c       ??_C@_02ECNGHCIF@?$CL?$CL@ 00000001801e853c     libvcruntime:undname.obj
 0002:0000b540       ??_C@_02BAABKJLB@?9?9@     00000001801e8540     libvcruntime:undname.obj
 0002:0000b544       ??_C@_01JOAMLHOP@?9@       00000001801e8544     libvcruntime:undname.obj
 0002:0000b548       ??_C@_01MIFGBAGJ@?$CL@     00000001801e8548     libvcruntime:undname.obj
 0002:0000b54c       ??_C@_01HNPIGOCE@?$CG@     00000001801e854c     libvcruntime:undname.obj
 0002:0000b550       ??_C@_03MNHNFDLC@?9?$DO?$CK@ 00000001801e8550     libvcruntime:undname.obj
 0002:0000b554       ??_C@_01KMDKNFGN@?1@       00000001801e8554     libvcruntime:undname.obj
 0002:0000b558       ??_C@_01FGNFDNOH@?$CF@     00000001801e8558     libvcruntime:undname.obj
 0002:0000b55c       ??_C@_01MNNFJEPP@?$DM@     00000001801e855c     libvcruntime:undname.obj
 0002:0000b560       ??_C@_02EHCHHCKH@?$DM?$DN@ 00000001801e8560     libvcruntime:undname.obj
 0002:0000b564       ??_C@_01PPODPGHN@?$DO@     00000001801e8564     libvcruntime:undname.obj
 0002:0000b568       ??_C@_02EEKDKGMJ@?$DO?$DN@ 00000001801e8568     libvcruntime:undname.obj
 0002:0000b56c       ??_C@_01IHBHIGKO@?0@       00000001801e856c     libvcruntime:undname.obj
 0002:0000b570       ??_C@_02HCKGKOFO@?$CI?$CJ@ 00000001801e8570     libvcruntime:undname.obj
 0002:0000b574       ??_C@_01PJKLJHI@?$HO@      00000001801e8574     libvcruntime:undname.obj
 0002:0000b578       ??_C@_01JKBOJNNK@?$FO@     00000001801e8578     libvcruntime:undname.obj
 0002:0000b57c       ??_C@_01DNKMNLPK@?$HM@     00000001801e857c     libvcruntime:undname.obj
 0002:0000b580       ??_C@_02PPKAJPJL@?$CG?$CG@ 00000001801e8580     libvcruntime:undname.obj
 0002:0000b584       ??_C@_02NONPIBCD@?$HM?$HM@ 00000001801e8584     libvcruntime:undname.obj
 0002:0000b588       ??_C@_02FPIMKNGF@?$CK?$DN@ 00000001801e8588     libvcruntime:undname.obj
 0002:0000b58c       ??_C@_02FOEOMHFC@?$CL?$DN@ 00000001801e858c     libvcruntime:undname.obj
 0002:0000b590       ??_C@_02FKMDLLOA@?9?$DN@   00000001801e8590     libvcruntime:undname.obj
 0002:0000b594       ??_C@_02FJEHGPIO@?1?$DN@   00000001801e8594     libvcruntime:undname.obj
 0002:0000b598       ??_C@_02FENAOKFI@?$CF?$DN@ 00000001801e8598     libvcruntime:undname.obj
 0002:0000b59c       ??_C@_03IKFCCPFF@?$DO?$DO?$DN@ 00000001801e859c     libvcruntime:undname.obj
 0002:0000b5a0       ??_C@_03CDNPDDLA@?$DM?$DM?$DN@ 00000001801e85a0     libvcruntime:undname.obj
 0002:0000b5a4       ??_C@_02FGJGFEAB@?$CG?$DN@ 00000001801e85a4     libvcruntime:undname.obj
 0002:0000b5a8       ??_C@_02DHLNPPGH@?$HM?$DN@ 00000001801e85a8     libvcruntime:undname.obj
 0002:0000b5ac       ??_C@_02MHEGNOJ@?$FO?$DN@  00000001801e85ac     libvcruntime:undname.obj
 0002:0000b5b0       ??_C@_09IFPLHPGF@?$GAvftable?8@ 00000001801e85b0     libvcruntime:undname.obj
 0002:0000b5c0       ??_C@_09BLBHBJP@?$GAvbtable?8@ 00000001801e85c0     libvcruntime:undname.obj
 0002:0000b5d0       ??_C@_07FEEIOKP@?$GAvcall?8@ 00000001801e85d0     libvcruntime:undname.obj
 0002:0000b5d8       ??_C@_08LLFFHHDJ@?$GAtypeof?8@ 00000001801e85d8     libvcruntime:undname.obj
 0002:0000b5e8       ??_C@_0BF@KDPPACIK@?$GAlocal?5static?5guard?8@ 00000001801e85e8     libvcruntime:undname.obj
 0002:0000b600       ??_C@_08OBABFOLI@?$GAstring?8@ 00000001801e8600     libvcruntime:undname.obj
 0002:0000b610       ??_C@_0BD@JDLKDPAB@?$GAvbase?5destructor?8@ 00000001801e8610     libvcruntime:undname.obj
 0002:0000b628       ??_C@_0BN@DEGPLNFK@?$GAvector?5deleting?5destructor?8@ 00000001801e8628     libvcruntime:undname.obj
 0002:0000b648       ??_C@_0BO@OBMKPJIG@?$GAdefault?5constructor?5closure?8@ 00000001801e8648     libvcruntime:undname.obj
 0002:0000b668       ??_C@_0BN@IMDCHIKM@?$GAscalar?5deleting?5destructor?8@ 00000001801e8668     libvcruntime:undname.obj
 0002:0000b688       ??_C@_0BO@PFGOCPJJ@?$GAvector?5constructor?5iterator?8@ 00000001801e8688     libvcruntime:undname.obj
 0002:0000b6a8       ??_C@_0BN@LFPFMEDL@?$GAvector?5destructor?5iterator?8@ 00000001801e86a8     libvcruntime:undname.obj
 0002:0000b6c8       ??_C@_0CE@IKBNEHA@?$GAvector?5vbase?5constructor?5itera@ 00000001801e86c8     libvcruntime:undname.obj
 0002:0000b6f0       ??_C@_0BL@NILFHHPC@?$GAvirtual?5displacement?5map?8@ 00000001801e86f0     libvcruntime:undname.obj
 0002:0000b710       ??_C@_0CB@JONCMFFK@?$GAeh?5vector?5constructor?5iterator@ 00000001801e8710     libvcruntime:undname.obj
 0002:0000b738       ??_C@_0CA@GCEOPDGL@?$GAeh?5vector?5destructor?5iterator?8@ 00000001801e8738     libvcruntime:undname.obj
 0002:0000b758       ??_C@_0CH@OOJPLCPH@?$GAeh?5vector?5vbase?5constructor?5it@ 00000001801e8758     libvcruntime:undname.obj
 0002:0000b780       ??_C@_0BL@LLKPOHJI@?$GAcopy?5constructor?5closure?8@ 00000001801e8780     libvcruntime:undname.obj
 0002:0000b7a0       ??_C@_0BA@KBCDOMBN@?$GAudt?5returning?8@ 00000001801e87a0     libvcruntime:undname.obj
 0002:0000b7b0       ??_C@_03KLGMFNMG@?$GAEH@   00000001801e87b0     libvcruntime:undname.obj
 0002:0000b7b4       ??_C@_05KHLCHHI@?$GARTTI@  00000001801e87b4     libvcruntime:undname.obj
 0002:0000b7c0       ??_C@_0BA@KKLDJDLB@?$GAlocal?5vftable?8@ 00000001801e87c0     libvcruntime:undname.obj
 0002:0000b7d0       ??_C@_0CE@IIHCMGGL@?$GAlocal?5vftable?5constructor?5clos@ 00000001801e87d0     libvcruntime:undname.obj
 0002:0000b7f4       ??_C@_06FHBGPFGH@?5new?$FL?$FN@ 00000001801e87f4     libvcruntime:undname.obj
 0002:0000b800       ??_C@_09LBNFPBCA@?5delete?$FL?$FN@ 00000001801e8800     libvcruntime:undname.obj
 0002:0000b810       ??_C@_0P@HJKNJFNN@?$GAomni?5callsig?8@ 00000001801e8810     libvcruntime:undname.obj
 0002:0000b820       ??_C@_0BL@CNOONJFP@?$GAplacement?5delete?5closure?8@ 00000001801e8820     libvcruntime:undname.obj
 0002:0000b840       ??_C@_0BN@CKNJLHMB@?$GAplacement?5delete?$FL?$FN?5closure?8@ 00000001801e8840     libvcruntime:undname.obj
 0002:0000b860       ??_C@_0CG@CFDHKGGD@?$GAmanaged?5vector?5constructor?5ite@ 00000001801e8860     libvcruntime:undname.obj
 0002:0000b888       ??_C@_0CF@IMGKMJNO@?$GAmanaged?5vector?5destructor?5iter@ 00000001801e8888     libvcruntime:undname.obj
 0002:0000b8b0       ??_C@_0CG@HLDDJMAG@?$GAeh?5vector?5copy?5constructor?5ite@ 00000001801e88b0     libvcruntime:undname.obj
 0002:0000b8d8       ??_C@_0CM@FCBBDIGB@?$GAeh?5vector?5vbase?5copy?5construct@ 00000001801e88d8     libvcruntime:undname.obj
 0002:0000b908       ??_C@_0BL@CLIPGLGB@?$GAdynamic?5initializer?5for?5?8@ 00000001801e8908     libvcruntime:undname.obj
 0002:0000b928       ??_C@_0CB@PDBIFEP@?$GAdynamic?5atexit?5destructor?5for?5@ 00000001801e8928     libvcruntime:undname.obj
 0002:0000b950       ??_C@_0CD@CGAJBKEJ@?$GAvector?5copy?5constructor?5iterat@ 00000001801e8950     libvcruntime:undname.obj
 0002:0000b978       ??_C@_0CJ@GJELGAMM@?$GAvector?5vbase?5copy?5constructor?5@ 00000001801e8978     libvcruntime:undname.obj
 0002:0000b9a8       ??_C@_0CL@FGIJHLCE@?$GAmanaged?5vector?5copy?5constructo@ 00000001801e89a8     libvcruntime:undname.obj
 0002:0000b9d8       ??_C@_0BM@PMGGMLDN@?$GAlocal?5static?5thread?5guard?8@ 00000001801e89d8     libvcruntime:undname.obj
 0002:0000b9f8       ??_C@_0N@BDNMDMOL@operator?5?$CC?$CC?5@ 00000001801e89f8     libvcruntime:undname.obj
 0002:0000ba08       ??_C@_0BC@GGEBGALA@operator?5co_await@ 00000001801e8a08     libvcruntime:undname.obj
 0002:0000ba20       ??_C@_0M@GAAIMMOH@operator?$DM?$DN?$DO@ 00000001801e8a20     libvcruntime:undname.obj
 0002:0000ba30       ??_C@_0BC@DAFEJGAK@?5Type?5Descriptor?8@ 00000001801e8a30     libvcruntime:undname.obj
 0002:0000ba48       ??_C@_0BM@LDKODKLH@?5Base?5Class?5Descriptor?5at?5?$CI@ 00000001801e8a48     libvcruntime:undname.obj
 0002:0000ba68       ??_C@_0BD@LGICGFMM@?5Base?5Class?5Array?8@ 00000001801e8a68     libvcruntime:undname.obj
 0002:0000ba80       ??_C@_0BN@MECKDCOJ@?5Class?5Hierarchy?5Descriptor?8@ 00000001801e8a80     libvcruntime:undname.obj
 0002:0000baa0       ??_C@_0BK@CFCOFLF@?5Complete?5Object?5Locator?8@ 00000001801e8aa0     libvcruntime:undname.obj
 0002:0000bac0       ??_C@_0BG@JNJLAMPM@?$GAanonymous?5namespace?8@ 00000001801e8ac0     libvcruntime:undname.obj
 0002:0000bad8       ??_C@_04HEJADOOB@CV?3?5@   00000001801e8ad8     libvcruntime:undname.obj
 0002:0000bae0       ??_C@_02MOLJINC@?3?3@      00000001801e8ae0     libvcruntime:undname.obj
 0002:0000bae8       ??_C@_0BE@JAEOCHPE@template?9parameter?9@ 00000001801e8ae8     libvcruntime:undname.obj
 0002:0000bb00       ??_C@_0BF@LNLGBBNL@?$GAtemplate?9parameter?9@ 00000001801e8b00     libvcruntime:undname.obj
 0002:0000bb18       ??_C@_0O@KHGCOMHP@generic?9type?9@ 00000001801e8b18     libvcruntime:undname.obj
 0002:0000bb28       ??_C@_0P@ODDENDLM@?$GAgeneric?9type?9@ 00000001801e8b28     libvcruntime:undname.obj
 0002:0000bb38       ??_C@_02OHHJMEON@?8?8@     00000001801e8b38     libvcruntime:undname.obj
 0002:0000bb40       ??_C@_0BN@IBLMMFAP@?$GAnon?9type?9template?9parameter@ 00000001801e8b40     libvcruntime:undname.obj
 0002:0000bb60       ??_C@_03DLDNIBIK@?$CFlf@   00000001801e8b60     libvcruntime:undname.obj
 0002:0000bb64       ??_C@_04OFALKAJ@?$DP?$DP_C@ 00000001801e8b64     libvcruntime:undname.obj
 0002:0000bb6c       ??_C@_03KHICJKCI@?4?4?4@   00000001801e8b6c     libvcruntime:undname.obj
 0002:0000bb70       ??_C@_04HIBGFPH@NULL@      00000001801e8b70     libvcruntime:undname.obj
 0002:0000bb78       ??_C@_02DPKJAMEF@?$CFd@    00000001801e8b78     libvcruntime:undname.obj
 0002:0000bb80       ??_C@_0BK@IHCCFNEL@?$GAtemplate?9type?9parameter?9@ 00000001801e8b80     libvcruntime:undname.obj
 0002:0000bba0       ??_C@_0BK@OFCNNNKO@?$GAgeneric?9class?9parameter?9@ 00000001801e8ba0     libvcruntime:undname.obj
 0002:0000bbc0       ??_C@_0BL@NGJBLFIL@?$GAgeneric?9method?9parameter?9@ 00000001801e8bc0     libvcruntime:undname.obj
 0002:0000bbe0       ??_C@_07OHNGEDJK@nullptr@  00000001801e8be0     libvcruntime:undname.obj
 0002:0000bbe8       ??_C@_06COJIGPIB@lambda@   00000001801e8be8     libvcruntime:undname.obj
 0002:0000bbf0       ??_C@_0BE@EODMJLIF@?$GAtemplate?9parameter@ 00000001801e8bf0     libvcruntime:undname.obj
 0002:0000bc04       ??_C@_03OPGICMGF@?$HN?8?5@ 00000001801e8c04     libvcruntime:undname.obj
 0002:0000bc08       ??_C@_02IGFCGPIL@?$HN?8@   00000001801e8c08     libvcruntime:undname.obj
 0002:0000bc10       ??_C@_0N@CBHHHENL@?$GAvtordispex?$HL@ 00000001801e8c10     libvcruntime:undname.obj
 0002:0000bc20       ??_C@_0L@GHPFDFH@?$GAvtordisp?$HL@ 00000001801e8c20     libvcruntime:undname.obj
 0002:0000bc30       ??_C@_0L@HNGCOGAE@?$GAadjustor?$HL@ 00000001801e8c30     libvcruntime:undname.obj
 0002:0000bc40       ??_C@_0CB@KJDOOODE@?$GAlocal?5static?5destructor?5helper@ 00000001801e8c40     libvcruntime:undname.obj
 0002:0000bc68       ??_C@_0DB@ILEFOCIJ@?$GAtemplate?5static?5data?5member?5co@ 00000001801e8c68     libvcruntime:undname.obj
 0002:0000bca0       ??_C@_0DA@HGFJFBBE@?$GAtemplate?5static?5data?5member?5de@ 00000001801e8ca0     libvcruntime:undname.obj
 0002:0000bcd0       ??_C@_07PGOEDBHP@static?5@ 00000001801e8cd0     libvcruntime:undname.obj
 0002:0000bcd8       ??_C@_08NIEOINHE@virtual?5@ 00000001801e8cd8     libvcruntime:undname.obj
 0002:0000bce8       ??_C@_09LAPHOOG@private?3?5@ 00000001801e8ce8     libvcruntime:undname.obj
 0002:0000bcf8       ??_C@_0M@GAIFPFIP@protected?3?5@ 00000001801e8cf8     libvcruntime:undname.obj
 0002:0000bd08       ??_C@_08GPDDCMKI@public?3?5@ 00000001801e8d08     libvcruntime:undname.obj
 0002:0000bd18       ??_C@_08KJLFOPNE@?$FLthunk?$FN?3@ 00000001801e8d18     libvcruntime:undname.obj
