 PhysXCommon_64

 Timestamp is 65980a19 (Fri Jan  5 14:54:33 2024)

 Preferred load address is 0000000180000000

 Start         Length     Name                   Class
 0001:00000000 00003530H .text$di                CODE
 0001:00003530 001d4630H .text$mn                CODE
 0001:001d7b60 00000040H .text$mn$00             CODE
 0001:001d7ba0 00000680H .text$x                 CODE
 0001:001d8220 0000000fH .text$yd                CODE
 0002:00000000 00000280H .idata$5                DATA
 0002:00000280 00000038H .00cfg                  DATA
 0002:000002b8 00000008H .CRT$XCA                DATA
 0002:000002c0 000019d0H .CRT$XCU                DATA
 0002:00001c90 00000008H .CRT$XCZ                DATA
 0002:00001c98 00000008H .CRT$XIA                DATA
 0002:00001ca0 00000018H .CRT$XIC                DATA
 0002:00001cb8 00000008H .CRT$XIZ                DATA
 0002:00001cc0 00000008H .CRT$XPA                DATA
 0002:00001cc8 00000010H .CRT$XPX                DATA
 0002:00001cd8 00000008H .CRT$XPXA               DATA
 0002:00001ce0 00000008H .CRT$XPZ                DATA
 0002:00001ce8 00000008H .CRT$XTA                DATA
 0002:00001cf0 00000010H .CRT$XTZ                DATA
 0002:00001cf8 00000000H .gehcont$y              DATA
 0002:00001cf8 00000000H .gfids$y                DATA
 0002:00001d00 00012100H .rdata                  DATA
 0002:00013e00 00000000H .rdata$CastGuardVftablesA DATA
 0002:00013e00 00000000H .rdata$CastGuardVftablesC DATA
 0002:00013e00 0000043cH .rdata$r                DATA
 0002:0001423c 0000022cH .rdata$voltmd           DATA
 0002:00014468 00000458H .rdata$zzzdbg           DATA
 0002:000148c0 00000008H .rtc$IAA                DATA
 0002:000148c8 00000008H .rtc$IZZ                DATA
 0002:000148d0 00000008H .rtc$TAA                DATA
 0002:000148d8 00000008H .rtc$TZZ                DATA
 0002:000148e0 00014ef0H .xdata                  DATA
 0002:000297d0 00000084H .xdata$x                DATA
 0002:00029854 00000020H .didat$2                DATA
 0002:00029874 00000024H .didat$3                DATA
 0002:00029898 000000c8H .didat$4                DATA
 0002:00029960 00000418H .didat$6                DATA
 0002:00029d78 000000c8H .didat$7                DATA
 0002:00029e40 0000c614H .edata                  DATA
 0002:00036454 00000014H .idata$2                DATA
 0002:00036468 00000018H .idata$3                DATA
 0002:00036480 00000280H .idata$4                DATA
 0002:00036700 000005beH .idata$6                DATA
 0003:00000000 00001c40H .data                   DATA
 0003:00001c40 000011d8H .data$r                 DATA
 0003:00002e18 000000f0H .data$rs                DATA
 0003:00002f08 000000c8H .didat$5                DATA
 0003:00002fd0 0000461cH .bss                    DATA
 0004:00000000 0000c57cH .pdata                  DATA
 0005:00000000 0000236cH _RDATA                  DATA
 0006:00000000 000000a0H .rsrc$01                DATA
 0006:000000a0 000004b0H .rsrc$02                DATA

  Address         Publics by Value              Rva+Base               Lib:Object

 0000:00000000       __AbsoluteZero             0000000000000000     <absolute>
 0000:00000000       ___safe_se_handler_count   0000000000000000     <absolute>
 0000:00000000       ___safe_se_handler_table   0000000000000000     <absolute>
 0000:00000000       __arm64x_extra_rfe_table   0000000000000000     <absolute>
 0000:00000000       __arm64x_extra_rfe_table_size 0000000000000000     <absolute>
 0000:00000000       __arm64x_native_entrypoint 0000000000000000     <absolute>
 0000:00000000       __arm64x_redirection_metadata 0000000000000000     <absolute>
 0000:00000000       __arm64x_redirection_metadata_count 0000000000000000     <absolute>
 0000:00000000       __dynamic_value_reloc_table 0000000000000000     <absolute>
 0000:00000000       __enclave_config           0000000000000000     <absolute>
 0000:00000000       __guard_check_icall_a64n_fptr 0000000000000000     <absolute>
 0000:00000000       __guard_eh_cont_count      0000000000000000     <absolute>
 0000:00000000       __guard_eh_cont_table      0000000000000000     <absolute>
 0000:00000000       __guard_fids_count         0000000000000000     <absolute>
 0000:00000000       __guard_fids_table         0000000000000000     <absolute>
 0000:00000000       __guard_iat_count          0000000000000000     <absolute>
 0000:00000000       __guard_iat_table          0000000000000000     <absolute>
 0000:00000000       __guard_longjmp_count      0000000000000000     <absolute>
 0000:00000000       __guard_longjmp_table      0000000000000000     <absolute>
 0000:00000000       __hybrid_auxiliary_delayload_iat 0000000000000000     <absolute>
 0000:00000000       __hybrid_auxiliary_delayload_iat_copy 0000000000000000     <absolute>
 0000:00000000       __hybrid_auxiliary_iat     0000000000000000     <absolute>
 0000:00000000       __hybrid_auxiliary_iat_copy 0000000000000000     <absolute>
 0000:00000000       __hybrid_code_map          0000000000000000     <absolute>
 0000:00000000       __hybrid_code_map_count    0000000000000000     <absolute>
 0000:00000000       __hybrid_image_info_bitfield 0000000000000000     <absolute>
 0000:00000000       __x64_code_ranges_to_entry_points 0000000000000000     <absolute>
 0000:00000000       __x64_code_ranges_to_entry_points_count 0000000000000000     <absolute>
 0000:00000100       __guard_flags              0000000000000100     <absolute>
 0000:00000000       __ImageBase                0000000180000000     <linker-defined>
 0001:00003530       ??0PtrTable@Cm@physx@@QEAA@W4PxEMPTY@2@@Z 0000000180004530 f i CmPtrTable.obj
 0001:00003550       ??0PtrTable@Cm@physx@@QEAA@XZ 0000000180004550 f   CmPtrTable.obj
 0001:00003560       ??1AABBTreeBuildNode@Gu@physx@@QEAA@XZ 0000000180004560 f   GuMeshFactory.obj
 0001:00003560       ??1BigConvexDataBuilder@physx@@QEAA@XZ 0000000180004560 f   GuCookingBigConvexDataBuilder.obj
 0001:00003560       ??1Box@Gu@physx@@QEAA@XZ   0000000180004560 f   GuBox.obj
 0001:00003560       ??1HeightFieldData@Gu@physx@@QEAA@XZ 0000000180004560 f   GuCCTSweepTests.obj
 0001:00003560       ??1PtrTable@Cm@physx@@QEAA@XZ 0000000180004560 f   CmPtrTable.obj
 0001:00003560       ?build@CompanionPrunerIncremental@@UEAAXXZ 0000000180004560 f   GuSecondaryPruner.obj
 0001:00003560       ?checkTreeLeaf@IncrementalAABBTree@Gu@physx@@QEAAXPEAVIncrementalAABBTreeNode@23@I@Z 0000000180004560 f   GuIncrementalAABBTree.obj
 0001:00003560       ?execute@?$PxThreadT@V?$PxReflectionAllocator@VPxThreadImpl@physx@@@physx@@@physx@@UEAAXXZ 0000000180004560 f   GuSDF.obj
 0001:00003560       ?execute@PxRunnable@physx@@UEAAXXZ 0000000180004560 f   GuSDF.obj
 0001:00003560       ?merge@BucketPruner@Gu@physx@@UEAAXPEBX@Z 0000000180004560 f   GuBucketPruner.obj
 0001:00003560       ?merge@IncrementalAABBPruner@Gu@physx@@UEAAXPEBX@Z 0000000180004560 f   GuIncrementalAABBPruner.obj
 0001:00003560       ?onMeshIndexFormatChange@TriangleMeshBuilder@physx@@UEAAXXZ 0000000180004560 f   GuCookingTriangleMesh.obj
 0001:00003560       ?profile@Callback@RTree@Gu@physx@@UEAAXXZ 0000000180004560 f   GuMidphaseRTree.obj
 0001:00003560       ?purge@BucketPruner@Gu@physx@@UEAAXXZ 0000000180004560 f   GuBucketPruner.obj
 0001:00003560       ?requiresObjects@ConvexMesh@Gu@physx@@UEAAXAEAVPxProcessPxBaseCallback@3@@Z 0000000180004560 f   GuConvexMesh.obj
 0001:00003560       ?requiresObjects@HeightField@Gu@physx@@UEAAXAEAVPxProcessPxBaseCallback@3@@Z 0000000180004560 f   GuHeightField.obj
 0001:00003560       ?requiresObjects@SoftBodyMesh@Gu@physx@@UEAAXAEAVPxProcessPxBaseCallback@3@@Z 0000000180004560 f   GuTetrahedronMesh.obj
 0001:00003560       ?requiresObjects@TriangleMesh@Gu@physx@@UEAAXAEAVPxProcessPxBaseCallback@3@@Z 0000000180004560 f   GuTriangleMesh.obj
 0001:00003560       ?swapIndex@CompanionPrunerAABBTree@@UEAAXII@Z 0000000180004560 f   GuSecondaryPruner.obj
 0001:00003560       ?swapIndex@CompanionPrunerBucket@@UEAAXII@Z 0000000180004560 f   GuSecondaryPruner.obj
 0001:00003560       ?timeStampChange@CompanionPrunerAABBTree@@UEAAXXZ 0000000180004560 f   GuSecondaryPruner.obj
 0001:00003560       ?timeStampChange@CompanionPrunerBucket@@UEAAXXZ 0000000180004560 f   GuSecondaryPruner.obj
 0001:00003560       ?visualize@BasePruner@Gu@physx@@UEBAXAEAVPxRenderOutput@3@II@Z 0000000180004560 f   GuIncrementalAABBPruner.obj
 0001:00003560       _guard_check_icall_nop     0000000180004560 f   LIBCMT:guard_support.obj
 0001:00003570       ??4AABBTreeBounds@Gu@physx@@QEAAAEAV012@AEBV012@@Z 0000000180004570 f i GuMeshFactory.obj
 0001:00003570       ??4CmModuleUpdateLoader@Cm@physx@@QEAAAEAV012@AEBV012@@Z 0000000180004570 f i CmWindowsModuleUpdateLoader.obj
 0001:00003570       ??4PtrTable@Cm@physx@@QEAAAEAU012@AEBU012@@Z 0000000180004570 f i CmPtrTable.obj
 0001:00003580       ?add@PtrTable@Cm@physx@@QEAAXPEAXAEAVPtrTableStorageManager@23@@Z 0000000180004580 f   CmPtrTable.obj
 0001:00003690       ?clear@PtrTable@Cm@physx@@QEAAXAEAVPtrTableStorageManager@23@@Z 0000000180004690 f   CmPtrTable.obj
 0001:00003700       ?exportExtraData@PtrTable@Cm@physx@@QEAAXAEAVPxSerializationContext@3@@Z 0000000180004700 f   CmPtrTable.obj
 0001:00003750       ?find@PtrTable@Cm@physx@@QEBAIPEBX@Z 0000000180004750 f   CmPtrTable.obj
 0001:00003780       ?getBinaryMetaData@PtrTable@Cm@physx@@SAXAEAVPxOutputStream@3@@Z 0000000180004780 f   CmPtrTable.obj
 0001:00003970       ?getCount@PtrTable@Cm@physx@@QEBAIXZ 0000000180004970 f i CmPtrTable.obj
 0001:00003980       ?getPtrs@PtrTable@Cm@physx@@QEAAPEAPEAXXZ 0000000180004980 f i CmPtrTable.obj
 0001:00003980       ?getPtrs@PtrTable@Cm@physx@@QEBAPEBQEAXXZ 0000000180004980 f i CmPtrTable.obj
 0001:00003990       ?importExtraData@PtrTable@Cm@physx@@QEAAXAEAVPxDeserializationContext@3@@Z 0000000180004990 f   CmPtrTable.obj
 0001:000039c0       ?realloc@PtrTable@Cm@physx@@AEAAXIIAEAVPtrTableStorageManager@23@@Z 00000001800049c0 f   CmPtrTable.obj
 0001:00003a50       ?replaceWithLast@PtrTable@Cm@physx@@QEAAXIAEAVPtrTableStorageManager@23@@Z 0000000180004a50 f   CmPtrTable.obj
 0001:00003b50       ??_ECollection@Cm@physx@@UEAAPEAXI@Z 0000000180004b50 f i CmCollection.obj
 0001:00003b50       ??_GCollection@Cm@physx@@UEAAPEAXI@Z 0000000180004b50 f i CmCollection.obj
 0001:00003c00       ??_EPxCollection@physx@@MEAAPEAXI@Z 0000000180004c00 f i CmCollection.obj
 0001:00003c00       ??_GPxCollection@physx@@MEAAPEAXI@Z 0000000180004c00 f i CmCollection.obj
 0001:00003c30       ?add@Collection@Cm@physx@@UEAAXAEAVPxBase@3@_K@Z 0000000180004c30 f   CmCollection.obj
 0001:00003d20       ?add@Collection@Cm@physx@@UEAAXAEAVPxCollection@3@@Z 0000000180004d20 f   CmCollection.obj
 0001:00003ec0       ?addId@Collection@Cm@physx@@UEAAXAEAVPxBase@3@_K@Z 0000000180004ec0 f   CmCollection.obj
 0001:00003ff0       ?contains@Collection@Cm@physx@@UEBA_NAEAVPxBase@3@@Z 0000000180004ff0 f   CmCollection.obj
 0001:000040a0       ?create@?$PxHashBase@V?$PxPair@$$CB_KPEAVPxBase@physx@@@physx@@_KU?$PxHash@_K@2@UGetKey@?$PxHashMapBase@_KPEAVPxBase@physx@@U?$PxHash@_K@2@VPxAllocator@2@@2@VPxAllocator@2@$00@physx@@QEAAPEAV?$PxPair@$$CB_KPEAVPxBase@physx@@@2@AEB_KAEA_N@Z 00000001800050a0 f i CmCollection.obj
 0001:000040a0       ?create@?$PxHashBase@V?$PxPair@QEAVPxBase@physx@@_K@physx@@PEAVPxBase@2@U?$PxHash@PEAVPxBase@physx@@@2@UGetKey@?$PxHashMapBase@PEAVPxBase@physx@@_KU?$PxHash@PEAVPxBase@physx@@@2@VPxAllocator@2@@2@VPxAllocator@2@$00@physx@@QEAAPEAV?$PxPair@QEAVPxBase@physx@@_K@2@AEBQEAVPxBase@2@AEA_N@Z 00000001800050a0 f i CmCollection.obj
 0001:00004230       ?erase@?$PxHashBase@V?$PxPair@$$CB_KPEAVPxBase@physx@@@physx@@_KU?$PxHash@_K@2@UGetKey@?$PxHashMapBase@_KPEAVPxBase@physx@@U?$PxHash@_K@2@VPxAllocator@2@@2@VPxAllocator@2@$00@physx@@QEAA_NAEB_K@Z 0000000180005230 f i CmCollection.obj
 0001:00004230       ?erase@?$PxHashBase@V?$PxPair@QEAVPxBase@physx@@_K@physx@@PEAVPxBase@2@U?$PxHash@PEAVPxBase@physx@@@2@UGetKey@?$PxHashMapBase@PEAVPxBase@physx@@_KU?$PxHash@PEAVPxBase@physx@@@2@VPxAllocator@2@@2@VPxAllocator@2@$00@physx@@QEAA_NAEBQEAVPxBase@2@@Z 0000000180005230 f i CmCollection.obj
 0001:000043e0       ?find@?$PxHashMapBase@_KPEAVPxBase@physx@@U?$PxHash@_K@2@VPxAllocator@2@@physx@@QEBAPEBV?$PxPair@$$CB_KPEAVPxBase@physx@@@2@AEB_K@Z 00000001800053e0 f i CmCollection.obj
 0001:00004480       ?find@Collection@Cm@physx@@UEBAPEAVPxBase@3@_K@Z 0000000180005480 f   CmCollection.obj
 0001:000044b0       ?getId@Collection@Cm@physx@@UEBA_KAEBVPxBase@3@@Z 00000001800054b0 f   CmCollection.obj
 0001:00004560       ?getIds@Collection@Cm@physx@@UEBAIPEA_KII@Z 0000000180005560 f   CmCollection.obj
 0001:00004630       ?getNbIds@Collection@Cm@physx@@UEBAIXZ 0000000180005630 f   CmCollection.obj
 0001:00004640       ?getNbObjects@Collection@Cm@physx@@UEBAIXZ 0000000180005640 f   CmCollection.obj
 0001:00004650       ?getObject@Collection@Cm@physx@@UEBAAEAVPxBase@3@I@Z 0000000180005650 f   CmCollection.obj
 0001:00004660       ?getObjects@Collection@Cm@physx@@UEBAIPEAPEAVPxBase@3@II@Z 0000000180005660 f   CmCollection.obj
 0001:000046a0       ?release@Collection@Cm@physx@@UEAAXXZ 00000001800056a0 f i CmCollection.obj
 0001:000046c0       ?remove@Collection@Cm@physx@@UEAAXAEAVPxBase@3@@Z 00000001800056c0 f   CmCollection.obj
 0001:000047b0       ?remove@Collection@Cm@physx@@UEAAXAEAVPxCollection@3@@Z 00000001800057b0 f   CmCollection.obj
 0001:000048c0       ?removeId@Collection@Cm@physx@@UEAAX_K@Z 00000001800058c0 f   CmCollection.obj
 0001:00004940       ?reserveInternal@?$PxHashBase@V?$PxPair@$$CB_KPEAVPxBase@physx@@@physx@@_KU?$PxHash@_K@2@UGetKey@?$PxHashMapBase@_KPEAVPxBase@physx@@U?$PxHash@_K@2@VPxAllocator@2@@2@VPxAllocator@2@$00@physx@@AEAAXI@Z 0000000180005940 f i CmCollection.obj
 0001:00004940       ?reserveInternal@?$PxHashBase@V?$PxPair@QEAVPxBase@physx@@_K@physx@@PEAVPxBase@2@U?$PxHash@PEAVPxBase@physx@@@2@UGetKey@?$PxHashMapBase@PEAVPxBase@physx@@_KU?$PxHash@PEAVPxBase@physx@@@2@VPxAllocator@2@@2@VPxAllocator@2@$00@physx@@AEAAXI@Z 0000000180005940 f i CmCollection.obj
 0001:00004b20       PxCreateCollection         0000000180005b20 f   CmCollection.obj
 0001:00004c10       ??0RadixSort@Cm@physx@@QEAA@XZ 0000000180005c10 f   CmRadixSort.obj
 0001:00004c40       ??0RadixSortBuffered@Cm@physx@@QEAA@XZ 0000000180005c40 f   CmRadixSort.obj
 0001:00004c70       ??1RadixSort@Cm@physx@@UEAA@XZ 0000000180005c70 f   CmRadixSort.obj
 0001:00004c80       ??1RadixSortBuffered@Cm@physx@@UEAA@XZ 0000000180005c80 f   CmRadixSort.obj
 0001:00004cb0       ??_ERadixSort@Cm@physx@@UEAAPEAXI@Z 0000000180005cb0 f i CmRadixSort.obj
 0001:00004d40       ??_ERadixSortBuffered@Cm@physx@@UEAAPEAXI@Z 0000000180005d40 f i CmRadixSort.obj
 0001:00004e30       ?CheckResize@RadixSortBuffered@Cm@physx@@AEAAXI@Z 0000000180005e30 f i CmRadixSort.obj
 0001:00004e70       ?GetNbHits@RadixSort@Cm@physx@@QEBAIXZ 0000000180005e70 f i CmRadixSort.obj
 0001:00004e80       ?GetNbTotalCalls@RadixSort@Cm@physx@@QEBAIXZ 0000000180005e80 f i CmRadixSort.obj
 0001:00004e90       ?GetRanks@RadixSort@Cm@physx@@QEBAPEBIXZ 0000000180005e90 f i CmRadixSort.obj
 0001:00004e90       ?getGridModelInvMass@SoftBodyAuxData@Gu@physx@@UEAAPEAMXZ 0000000180005e90 f i GuTetrahedronMesh.obj
 0001:00004e90       ?getHeightField@HeightFieldUtil@Gu@physx@@QEBAAEBVHeightField@23@XZ 0000000180005e90 f i GuCCTSweepTests.obj
 0001:00004e90       ?getSimulationMesh@SoftBodyMesh@Gu@physx@@UEAAPEAVPxTetrahedronMesh@3@XZ 0000000180005e90 f i GuTetrahedronMesh.obj
 0001:00004e90       ?getSimulationMesh@SoftBodyMesh@Gu@physx@@UEBAPEBVPxTetrahedronMesh@3@XZ 0000000180005e90 f i GuTetrahedronMesh.obj
 0001:00004ea0       ?GetRecyclable@RadixSort@Cm@physx@@QEBAPEAIXZ 0000000180005ea0 f i CmRadixSort.obj
 0001:00004ea0       ?GetValencies@BigConvexData@physx@@QEBAPEBUValency@Gu@2@XZ 0000000180005ea0 f i GuMetaData.obj
 0001:00004ea0       ?getCollisionMesh@SoftBodyMesh@Gu@physx@@UEAAPEAVPxTetrahedronMesh@3@XZ 0000000180005ea0 f i GuTetrahedronMesh.obj
 0001:00004ea0       ?getCollisionMesh@SoftBodyMesh@Gu@physx@@UEBAPEBVPxTetrahedronMesh@3@XZ 0000000180005ea0 f i GuTetrahedronMesh.obj
 0001:00004ea0       ?getHeightFieldGeometry@HeightFieldUtil@Gu@physx@@QEBAAEBVPxHeightFieldGeometry@3@XZ 0000000180005ea0 f i GuCCTSweepTests.obj
 0001:00004ea0       ?getObjects@PruningPool@Gu@physx@@QEBAPEAUPrunerPayload@23@XZ 0000000180005ea0 f i GuIncrementalAABBPrunerCore.obj
 0001:00004ea0       ?getPos@AABBTreeBuildNode@Gu@physx@@QEBAPEBV123@XZ 0000000180005ea0 f i GuMeshFactory.obj
 0001:00004ea0       ?getVertices@TetrahedronMesh@Gu@physx@@UEBAPEBV?$PxVec3T@M@3@XZ 0000000180005ea0 f i GuTetrahedronMesh.obj
 0001:00004ea0       ?getVertices@TriangleMesh@Gu@physx@@UEBAPEBV?$PxVec3T@M@3@XZ 0000000180005ea0 f i GuTriangleMesh.obj
 0001:00004eb0       ?Resize@RadixSortBuffered@Cm@physx@@AEAA_NI@Z 0000000180005eb0 f   CmRadixSort.obj
 0001:00004fb0       ?SetBuffers@RadixSort@Cm@physx@@QEAA_NPEAI00PEAPEAI@Z 0000000180005fb0 f   CmRadixSort.obj
 0001:00004ff0       ?Sort@RadixSort@Cm@physx@@QEAAAEAV123@PEBIIW4RadixHint@23@@Z 0000000180005ff0 f   CmRadixSort.obj
 0001:000056a0       ?Sort@RadixSort@Cm@physx@@QEAAAEAV123@PEBMI@Z 00000001800066a0 f   CmRadixSort.obj
 0001:00005e40       ?Sort@RadixSortBuffered@Cm@physx@@QEAAAEAV123@PEBIIW4RadixHint@23@@Z 0000000180006e40 f   CmRadixSort.obj
 0001:00005ee0       ?Sort@RadixSortBuffered@Cm@physx@@QEAAAEAV123@PEBMI@Z 0000000180006ee0 f   CmRadixSort.obj
 0001:00005f70       ?invalidateRanks@RadixSort@Cm@physx@@QEAAXXZ 0000000180006f70 f i CmRadixSort.obj
 0001:00005f80       ?reset@RadixSortBuffered@Cm@physx@@QEAAXXZ 0000000180006f80 f   CmRadixSort.obj
 0001:00006000       ?ReadHeader@Cm@physx@@YA_NEEEEAEAIAEA_NAEAVPxInputStream@2@@Z 0000000180007000 f   CmSerialize.obj
 0001:00006160       ?ReadIndices@Cm@physx@@YAXGIPEAGAEAVPxInputStream@2@_N@Z 0000000180007160 f   CmSerialize.obj
 0001:000062f0       ?StoreIndices@Cm@physx@@YAXGIPEBGAEAVPxOutputStream@2@_N@Z 00000001800072f0 f   CmSerialize.obj
 0001:000063e0       ?WriteHeader@Cm@physx@@YA_NEEEEI_NAEAVPxOutputStream@2@@Z 00000001800073e0 f   CmSerialize.obj
 0001:00006510       ?computeMaxIndex@physx@@YAGPEBGI@Z 0000000180007510 f   CmSerialize.obj
 0001:00006540       ?computeMaxIndex@physx@@YAIPEBII@Z 0000000180007540 f   CmSerialize.obj
 0001:00006570       ?readByteBuffer@physx@@YAXPEAEIAEAVPxInputStream@1@@Z 0000000180007570 f   CmSerialize.obj
 0001:00006570       ?writeByteBuffer@physx@@YAXPEBEIAEAVPxOutputStream@1@@Z 0000000180007570 f   CmSerialize.obj
 0001:00006590       ?readChunk@physx@@YAXAEAC000AEAVPxInputStream@1@@Z 0000000180007590 f   CmSerialize.obj
 0001:00006610       ?readDword@physx@@YAI_NAEAVPxInputStream@1@@Z 0000000180007610 f   CmSerialize.obj
 0001:00006670       ?readFloat@physx@@YAM_NAEAVPxInputStream@1@@Z 0000000180007670 f   CmSerialize.obj
 0001:000066d0       ?readFloatBuffer@physx@@YA_NPEAMI_NAEAVPxInputStream@1@@Z 00000001800076d0 f   CmSerialize.obj
 0001:00006750       ?readHeader@physx@@YA_NCCCCAEAIAEA_NAEAVPxInputStream@1@@Z 0000000180007750 f   CmSerialize.obj
 0001:000068a0       ?readIndices@physx@@YAXIIPEAIAEAVPxInputStream@1@_N@Z 00000001800078a0 f   CmSerialize.obj
 0001:000069d0       ?readWord@physx@@YAG_NAEAVPxInputStream@1@@Z 00000001800079d0 f   CmSerialize.obj
 0001:00006a10       ?readWordBuffer@physx@@YAXPEAGI_NAEAVPxInputStream@1@@Z 0000000180007a10 f   CmSerialize.obj
 0001:00006a80       ?storeIndices@physx@@YAXIIPEBIAEAVPxOutputStream@1@_N@Z 0000000180007a80 f   CmSerialize.obj
 0001:00006c10       ?writeDword@physx@@YAXI_NAEAVPxOutputStream@1@@Z 0000000180007c10 f   CmSerialize.obj
 0001:00006c60       ?writeFloat@physx@@YAXM_NAEAVPxOutputStream@1@@Z 0000000180007c60 f   CmSerialize.obj
 0001:00006cb0       ?writeFloatBuffer@physx@@YAXPEBMI_NAEAVPxOutputStream@1@@Z 0000000180007cb0 f   CmSerialize.obj
 0001:00006d50       ?writeHeader@physx@@YA_NCCCCI_NAEAVPxOutputStream@1@@Z 0000000180007d50 f   CmSerialize.obj
 0001:00006e80       ?writeWord@physx@@YAXG_NAEAVPxOutputStream@1@@Z 0000000180007e80 f   CmSerialize.obj
 0001:00006ec0       ?writeWordBuffer@physx@@YAXPEBGI_NAEAVPxOutputStream@1@@Z 0000000180007ec0 f   CmSerialize.obj
 0001:00006f40       ??6PxRenderOutput@physx@@QEAAAEAV01@AEBV?$PxTransformT@M@1@@Z 0000000180007f40 f i CmVisualization.obj
 0001:000070c0       ??6PxRenderOutput@physx@@QEAAAEAV01@AEBV?$PxVec3T@M@1@@Z 00000001800080c0 f i CmVisualization.obj
 0001:000073b0       ?renderOutputDebugArrow@Cm@physx@@YAXAEAVPxRenderOutput@2@AEBUPxDebugArrow@2@@Z 00000001800083b0 f   CmVisualization.obj
 0001:00007750       ?renderOutputDebugBasis@Cm@physx@@YAXAEAVPxRenderOutput@2@AEBUPxDebugBasis@2@@Z 0000000180008750 f   CmVisualization.obj
 0001:00007ce0       ?renderOutputDebugBox@Cm@physx@@YAXAEAVPxRenderOutput@2@AEBVPxBounds3@2@@Z 0000000180008ce0 f   CmVisualization.obj
 0001:00007f50       ?renderOutputDebugCircle@Cm@physx@@YAXAEAVPxRenderOutput@2@IM@Z 0000000180008f50 f   CmVisualization.obj
 0001:00008030       ?visualizeAngularLimit@Cm@physx@@YAXAEAVPxRenderOutput@2@MAEBV?$PxTransformT@M@2@MM@Z 0000000180009030 f   CmVisualization.obj
 0001:000081c0       ?visualizeDoubleCone@Cm@physx@@YAXAEAVPxRenderOutput@2@MAEBV?$PxTransformT@M@2@M@Z 00000001800091c0 f   CmVisualization.obj
 0001:000083e0       ?visualizeJointFrames@Cm@physx@@YAXAEAVPxRenderOutput@2@MAEBV?$PxTransformT@M@2@1@Z 00000001800093e0 f   CmVisualization.obj
 0001:00008ee0       ?visualizeLimitCone@Cm@physx@@YAXAEAVPxRenderOutput@2@MAEBV?$PxTransformT@M@2@MM@Z 0000000180009ee0 f   CmVisualization.obj
 0001:00009110       ?visualizeLinearLimit@Cm@physx@@YAXAEAVPxRenderOutput@2@MAEBV?$PxTransformT@M@2@1M@Z 000000018000a110 f   CmVisualization.obj
 0001:00009700       ??0CmModuleUpdateLoader@Cm@physx@@QEAA@PEBD@Z 000000018000a700 f   CmWindowsModuleUpdateLoader.obj
 0001:00009740       ??1CmModuleUpdateLoader@Cm@physx@@QEAA@XZ 000000018000a740 f   CmWindowsModuleUpdateLoader.obj
 0001:00009770       ?LoadModule@CmModuleUpdateLoader@Cm@physx@@QEAAPEAUHINSTANCE__@@PEBD0@Z 000000018000a770 f   CmWindowsModuleUpdateLoader.obj
 0001:000097e0       __local_stdio_printf_options 000000018000a7e0 f i CmWindowsModuleUpdateLoader.obj
 0001:000097f0       printf                     000000018000a7f0 f i CmWindowsModuleUpdateLoader.obj
 0001:00009850       ?commonDelayHook@@YAP6A_JXZIPEAUDelayLoadInfo@@@Z 000000018000a850 f   CmWindowsDelayLoadHook.obj
 0001:00009930       PxSetPhysXCommonDelayLoadHook 000000018000a930 f   CmWindowsDelayLoadHook.obj
 0001:00009940       ??0?$PxQuatT@M@physx@@QEAA@AEBV?$PxMat33T@M@1@@Z 000000018000a940 f i GuBox.obj
 0001:00009b40       ??0Box@Gu@physx@@QEAA@AEBV012@@Z 000000018000ab40 f i GuBox.obj
 0001:00009b40       ??4Box@Gu@physx@@QEAAAEBV012@AEBV012@@Z 000000018000ab40 f i GuBox.obj
 0001:00009ba0       ??0Box@Gu@physx@@QEAA@AEBV?$PxVec3T@M@2@0AEBV?$PxMat33T@M@2@@Z 000000018000aba0 f i GuBox.obj
 0001:00009c10       ??0AABBTreeBuildNode@Gu@physx@@QEAA@XZ 000000018000ac10 f i GuMeshFactory.obj
 0001:00009c10       ??0BigConvexData@physx@@QEAA@W4PxEMPTY@1@@Z 000000018000ac10 f i GuMetaData.obj
 0001:00009c10       ??0Box@Gu@physx@@QEAA@XZ   000000018000ac10 f i GuBox.obj
 0001:00009c10       ??0HeightFieldData@Gu@physx@@QEAA@W4PxEMPTY@2@@Z 000000018000ac10 f i GuCCTSweepTests.obj
 0001:00009c10       ?getAABB@AABBTreeBuildNode@Gu@physx@@QEBAAEBVPxBounds3@3@XZ 000000018000ac10 f i GuMeshFactory.obj
 0001:00009c10       ?getPaddedBounds@HeightFieldData@Gu@physx@@QEBAAEBVCenterExtentsPadded@23@XZ 000000018000ac10 f i GuCCTSweepTests.obj
 0001:00009c20       ?computeAABBExtent@Box@Gu@physx@@QEBA?AV?$PxVec3T@M@3@XZ 000000018000ac20 f i GuBox.obj
 0001:00009ce0       ?computeBoxPoints@Box@Gu@physx@@QEBAXPEIAV?$PxVec3T@M@3@@Z 000000018000ace0 f i GuBox.obj
 0001:00009d20       ?computeOBBPoints@Gu@physx@@YAXPEIAV?$PxVec3T@M@2@AEBV32@1111@Z 000000018000ad20 f   GuBox.obj
 0001:00009fa0       ?create@Box@Gu@physx@@QEAAXAEBVCapsule@23@@Z 000000018000afa0 f   GuBox.obj
 0001:0000a1d0       ?getBoxEdges@Gu@physx@@YAPEBEXZ 000000018000b1d0 f   GuBox.obj
 0001:0000a1e0       ?getTransform@Box@Gu@physx@@QEBA?AV?$PxTransformT@M@3@XZ 000000018000b1e0 f i GuBox.obj
 0001:0000a240       ?isValid@Box@Gu@physx@@QEBA_NXZ 000000018000b240 f i GuBox.obj
 0001:0000a260       ?rotate@Box@Gu@physx@@QEBA?AV?$PxVec3T@M@3@AEBV43@@Z 000000018000b260 f i GuBox.obj
 0001:0000a2f0       ?rotateInv@Box@Gu@physx@@QEBA?AV?$PxVec3T@M@3@AEBV43@@Z 000000018000b2f0 f i GuBox.obj
 0001:0000a380       ?setAxes@Box@Gu@physx@@QEAAXAEBV?$PxVec3T@M@3@00@Z 000000018000b380 f i GuBox.obj
 0001:0000a3c0       ?setEmpty@Box@Gu@physx@@QEAAXXZ 000000018000b3c0 f i GuBox.obj
 0001:0000a400       ?transform@Box@Gu@physx@@QEBA?AV?$PxVec3T@M@3@AEBV43@@Z 000000018000b400 f i GuBox.obj
 0001:0000a4a0       ?PxComputeBasisVectors@physx@@YAXAEBV?$PxVec3T@M@1@0AEAV21@11@Z 000000018000b4a0 f i GuCapsule.obj
 0001:0000a640       ?computeBoxAroundCapsule@Gu@physx@@YAXAEBVCapsule@12@AEAVBox@12@@Z 000000018000b640 f   GuCapsule.obj
 0001:0000a790       ??0HeightFieldData@Gu@physx@@QEAA@$$QEAU012@@Z 000000018000b790 f i GuCCTSweepTests.obj
 0001:0000a790       ??0HeightFieldData@Gu@physx@@QEAA@AEBU012@@Z 000000018000b790 f i GuCCTSweepTests.obj
 0001:0000a790       ??4HeightFieldData@Gu@physx@@QEAAAEAU012@$$QEAU012@@Z 000000018000b790 f i GuCCTSweepTests.obj
 0001:0000a790       ??4HeightFieldData@Gu@physx@@QEAAAEAU012@AEBU012@@Z 000000018000b790 f i GuCCTSweepTests.obj
 0001:0000a7f0       ??0HeightFieldData@Gu@physx@@QEAA@XZ 000000018000b7f0 f i GuCCTSweepTests.obj
 0001:0000a800       ??0HeightFieldTraceUtil@Gu@physx@@QEAA@AEBVPxHeightFieldGeometry@2@@Z 000000018000b800 f i GuCCTSweepTests.obj
 0001:0000a800       ??0HeightFieldUtil@Gu@physx@@QEAA@AEBVPxHeightFieldGeometry@2@@Z 000000018000b800 f i GuCCTSweepTests.obj
 0001:0000a840       ??4AABBTreeBuildParams@Gu@physx@@QEAAAEAV012@AEBV012@@Z 000000018000b840 f i GuMeshFactory.obj
 0001:0000a840       ??4HeightFieldTraceUtil@Gu@physx@@QEAAAEAV012@$$QEAV012@@Z 000000018000b840 f i GuCCTSweepTests.obj
 0001:0000a840       ??4HeightFieldTraceUtil@Gu@physx@@QEAAAEAV012@AEBV012@@Z 000000018000b840 f i GuCCTSweepTests.obj
 0001:0000a840       ??4HeightFieldUtil@Gu@physx@@QEAAAEAV012@AEBV012@@Z 000000018000b840 f i GuCCTSweepTests.obj
 0001:0000a860       ??4HeightFieldUtil@Gu@physx@@QEAAAEAV012@$$QEAV012@@Z 000000018000b860 f i GuCCTSweepTests.obj
 0001:0000a8c0       ??_EEntityReport@Gu@physx@@UEAAPEAXI@Z 000000018000b8c0 f i GuSweepsHF.obj
 0001:0000a8c0       ??_EOverlapCallback@PxBVH@physx@@UEAAPEAXI@Z 000000018000b8c0 f i GuQuerySystem.obj
 0001:0000a8c0       ??_EOverlapReport@Gu@physx@@UEAAPEAXI@Z 000000018000b8c0 f i GuCCTSweepTests.obj
 0001:0000a8c0       ??_ERaycastCallback@PxBVH@physx@@UEAAPEAXI@Z 000000018000b8c0 f i GuQuerySystem.obj
 0001:0000a8c0       ??_ERemapCallback@RTreeCooker@physx@@UEAAPEAXI@Z 000000018000b8c0 f i GuCookingTriangleMesh.obj
 0001:0000a8c0       ??_GEntityReport@Gu@physx@@UEAAPEAXI@Z 000000018000b8c0 f i GuSweepsHF.obj
 0001:0000a8c0       ??_GOverlapCallback@PxBVH@physx@@UEAAPEAXI@Z 000000018000b8c0 f i GuQuerySystem.obj
 0001:0000a8c0       ??_GOverlapReport@Gu@physx@@UEAAPEAXI@Z 000000018000b8c0 f i GuCCTSweepTests.obj
 0001:0000a8c0       ??_GRaycastCallback@PxBVH@physx@@UEAAPEAXI@Z 000000018000b8c0 f i GuQuerySystem.obj
 0001:0000a8c0       ??_GRemapCallback@RTreeCooker@physx@@UEAAPEAXI@Z 000000018000b8c0 f i GuCookingTriangleMesh.obj
 0001:0000a8f0       ??_H@YAXPEAX_K1P6APEAX0@Z@Z 000000018000b8f0 f i GuCCTSweepTests.obj
 0001:0000a940       ?ceilUp@HeightFieldTraceUtil@Gu@physx@@SAMM@Z 000000018000b940 f i GuCCTSweepTests.obj
 0001:0000a980       ?floorDown@HeightFieldTraceUtil@Gu@physx@@SAMM@Z 000000018000b980 f i GuCCTSweepTests.obj
 0001:0000a9c0       ?getHeightAtShapePoint@HeightFieldUtil@Gu@physx@@QEBAMMM@Z 000000018000b9c0 f i GuCCTSweepTests.obj
 0001:0000aa20       ?getHeightInternal2@HeightField@Gu@physx@@QEBAMIMM@Z 000000018000ba20 f i GuCCTSweepTests.obj
 0001:0000ab90       ?getNormalAtShapePoint@HeightFieldUtil@Gu@physx@@QEBA?AV?$PxVec3T@M@3@MM@Z 000000018000bb90 f i GuCCTSweepTests.obj
 0001:0000ac50       ?getNormal_2@HeightField@Gu@physx@@QEBA?AV?$PxVec3T@M@3@IMMMMM@Z 000000018000bc50 f i GuCCTSweepTests.obj
 0001:0000ad70       ?getOneOverColumnScale@HeightFieldUtil@Gu@physx@@QEBAMXZ 000000018000bd70 f i GuCCTSweepTests.obj
 0001:0000ad80       ?getOneOverHeightScale@HeightFieldUtil@Gu@physx@@QEBAMXZ 000000018000bd80 f i GuCCTSweepTests.obj
 0001:0000ad90       ?getOneOverRowScale@HeightFieldUtil@Gu@physx@@QEBAMXZ 000000018000bd90 f i GuCCTSweepTests.obj
 0001:0000ada0       ?hf2shapen@HeightFieldUtil@Gu@physx@@QEBA?AV?$PxVec3T@M@3@AEBV43@@Z 000000018000bda0 f i GuCCTSweepTests.obj
 0001:0000ada0       ?shape2hfp@HeightFieldUtil@Gu@physx@@QEBA?AV?$PxVec3T@M@3@AEBV43@@Z 000000018000bda0 f i GuCCTSweepTests.obj
 0001:0000ade0       ?hf2shapep@HeightFieldUtil@Gu@physx@@QEBA?AV?$PxVec3T@M@3@AEBV43@@Z 000000018000bde0 f i GuCCTSweepTests.obj
 0001:0000ae20       ?hf2worldn@HeightFieldUtil@Gu@physx@@QEBA?AV?$PxVec3T@M@3@AEBV?$PxTransformT@M@3@AEBV43@@Z 000000018000be20 f i GuCCTSweepTests.obj
 0001:0000af90       ?hf2worldp@HeightFieldUtil@Gu@physx@@QEBA?AV?$PxVec3T@M@3@AEBV?$PxTransformT@M@3@AEBV43@@Z 000000018000bf90 f i GuCCTSweepTests.obj
 0001:0000b110       ?overlapAABBTriangles0to1@HeightFieldUtil@Gu@physx@@QEBAXAEBV?$PxTransformT@M@3@AEBVPxBounds3@3@AEAVOverlapReport@23@I@Z 000000018000c110 f i GuCCTSweepTests.obj
 0001:0000b490       ?overlapAABBTriangles@HeightFieldUtil@Gu@physx@@QEBAXAEBV?$PxTransformT@M@3@0AEBVPxBounds3@3@AEAVOverlapReport@23@I@Z 000000018000c490 f i GuCCTSweepTests.obj
 0001:0000bab0       ?overlapAABBTriangles@HeightFieldUtil@Gu@physx@@QEBAXAEBV?$PxTransformT@M@3@AEBVPxBounds3@3@AEAVOverlapReport@23@I@Z 000000018000cab0 f i GuCCTSweepTests.obj
 0001:0000c160       ?sweepBoxTriangles_Precise@Gu@physx@@YA_NIPEBVPxTriangle@2@_NAEBVPxBoxGeometry@2@AEBV?$PxTransformT@M@2@AEBV?$PxVec3T@M@2@MAEAUPxGeomSweepHit@2@PEBIMV?$PxFlags@W4Enum@PxHitFlag@physx@@G@2@@Z 000000018000d160 f   GuCCTSweepTests.obj
 0001:0000cef0       ?sweepBox_BoxGeom_Precise@@YA_NAEBVPxGeometry@physx@@AEBV?$PxTransformT@M@2@AEBVPxBoxGeometry@2@1AEBVBox@Gu@2@AEBV?$PxVec3T@M@2@MAEAUPxGeomSweepHit@2@V?$PxFlags@W4Enum@PxHitFlag@physx@@G@2@MPEAUPxQueryThreadContext@2@@Z 000000018000def0 f   GuCCTSweepTests.obj
 0001:0000d0b0       ?sweepBox_CapsuleGeom_Precise@@YA_NAEBVPxGeometry@physx@@AEBV?$PxTransformT@M@2@AEBVPxBoxGeometry@2@1AEBVBox@Gu@2@AEBV?$PxVec3T@M@2@MAEAUPxGeomSweepHit@2@V?$PxFlags@W4Enum@PxHitFlag@physx@@G@2@MPEAUPxQueryThreadContext@2@@Z 000000018000e0b0 f   GuCCTSweepTests.obj
 0001:0000d480       ?sweepBox_HeightFieldGeom_Precise@@YA_NAEBVPxGeometry@physx@@AEBV?$PxTransformT@M@2@AEBVPxBoxGeometry@2@1AEBVBox@Gu@2@AEBV?$PxVec3T@M@2@MAEAUPxGeomSweepHit@2@V?$PxFlags@W4Enum@PxHitFlag@physx@@G@2@MPEAUPxQueryThreadContext@2@@Z 000000018000e480 f   GuCCTSweepTests.obj
 0001:0000dc80       ?sweepBox_SphereGeom_Precise@@YA_NAEBVPxGeometry@physx@@AEBV?$PxTransformT@M@2@AEBVPxBoxGeometry@2@1AEBVBox@Gu@2@AEBV?$PxVec3T@M@2@MAEAUPxGeomSweepHit@2@V?$PxFlags@W4Enum@PxHitFlag@physx@@G@2@MPEAUPxQueryThreadContext@2@@Z 000000018000ec80 f   GuCCTSweepTests.obj
 0001:0000df50       ?sweepCapsule_BoxGeom_Precise@@YA_NAEBVPxGeometry@physx@@AEBV?$PxTransformT@M@2@AEBVPxCapsuleGeometry@2@1AEBVCapsule@Gu@2@AEBV?$PxVec3T@M@2@MAEAUPxGeomSweepHit@2@V?$PxFlags@W4Enum@PxHitFlag@physx@@G@2@MPEAUPxQueryThreadContext@2@@Z 000000018000ef50 f   GuCCTSweepTests.obj
 0001:0000e5e0       ??0?$CacheMap@UCachedEdge@Gu@physx@@$0IA@@Gu@physx@@QEAA@XZ 000000018000f5e0 f i GuGeometryQuery.obj
 0001:0000e6a0       ??0?$CacheMap@UCachedVertex@Gu@physx@@$0IA@@Gu@physx@@QEAA@XZ 000000018000f6a0 f i GuGeometryQuery.obj
 0001:0000e760       ??0MultiplePersistentContactManifold@Gu@physx@@QEAA@XZ 000000018000f760 f i GuGeometryQuery.obj
 0001:0000e7c0       ??0PCMMeshContactGeneration@Gu@physx@@QEAA@AEBT__m128@@0AEBVPxTransformV@aos@2@1AEAVMultiplePersistentContactManifold@12@AEAVPxContactBuffer@2@PEAV?$PxInlineArray@I$0DMA@V?$PxReflectionAllocator@I@physx@@@2@PEAVPxRenderOutput@2@@Z 000000018000f7c0 f i GuGeometryQuery.obj
 0001:0000f0f0       ??0PolygonalBox@Gu@physx@@QEAA@AEBV012@@Z 00000001800100f0 f i GuGeometryQuery.obj
 0001:0000f370       ??4MultiplePersistentContactManifold@Gu@physx@@QEAAAEAV012@$$QEAV012@@Z 0000000180010370 f i GuGeometryQuery.obj
 0001:0000f680       ??4MultiplePersistentContactManifold@Gu@physx@@QEAAAEAV012@AEBV012@@Z 0000000180010680 f i GuGeometryQuery.obj
 0001:0000f6a0       ??_E?$SupportLocalImpl@VBoxV@Gu@physx@@@Gu@physx@@UEAAPEAXI@Z 00000001800106a0 f i GuGeometryQuery.obj
 0001:0000f6a0       ??_E?$SupportLocalImpl@VConvexHullNoScaleV@Gu@physx@@@Gu@physx@@UEAAPEAXI@Z 00000001800106a0 f i GuMTD.obj
 0001:0000f6a0       ??_E?$SupportLocalImpl@VConvexHullV@Gu@physx@@@Gu@physx@@UEAAPEAXI@Z 00000001800106a0 f i GuGeometryQuery.obj
 0001:0000f6a0       ??_E?$SupportLocalImpl@VTriangleV@Gu@physx@@@Gu@physx@@UEAAPEAXI@Z 00000001800106a0 f i GuPCMContactConvexCommon.obj
 0001:0000f6a0       ??_G?$SupportLocalImpl@VBoxV@Gu@physx@@@Gu@physx@@UEAAPEAXI@Z 00000001800106a0 f i GuGeometryQuery.obj
 0001:0000f6a0       ??_G?$SupportLocalImpl@VConvexHullNoScaleV@Gu@physx@@@Gu@physx@@UEAAPEAXI@Z 00000001800106a0 f i GuMTD.obj
 0001:0000f6a0       ??_G?$SupportLocalImpl@VConvexHullV@Gu@physx@@@Gu@physx@@UEAAPEAXI@Z 00000001800106a0 f i GuGeometryQuery.obj
 0001:0000f6a0       ??_G?$SupportLocalImpl@VTriangleV@Gu@physx@@@Gu@physx@@UEAAPEAXI@Z 00000001800106a0 f i GuPCMContactConvexCommon.obj
 0001:0000f6d0       ??_ESupportLocal@Gu@physx@@UEAAPEAXI@Z 00000001800106d0 f i GuGeometryQuery.obj
 0001:0000f6d0       ??_GSupportLocal@Gu@physx@@UEAAPEAXI@Z 00000001800106d0 f i GuGeometryQuery.obj
 0001:0000f700       ?clearManifold@MultiplePersistentContactManifold@Gu@physx@@QEAAXXZ 0000000180010700 f i GuGeometryQuery.obj
 0001:0000f760       ?computeGeomBounds@PxGeometryQuery@physx@@SAXAEAVPxBounds3@2@AEBVPxGeometry@2@AEBV?$PxTransformT@M@2@MMV?$PxFlags@W4Enum@PxGeometryQueryFlag@physx@@I@2@@Z 0000000180010760 f   GuGeometryQuery.obj
 0001:0000f7e0       ?computePenetration@PxGeometryQuery@physx@@SA_NAEAV?$PxVec3T@M@2@AEAMAEBVPxGeometry@2@AEBV?$PxTransformT@M@2@23V?$PxFlags@W4Enum@PxGeometryQueryFlag@physx@@I@2@@Z 00000001800107e0 f   GuGeometryQuery.obj
 0001:0000f960       ?doSupport@?$SupportLocalImpl@VBoxV@Gu@physx@@@Gu@physx@@UEBA?AT__m128@@AEBT4@@Z 0000000180010960 f i GuGeometryQuery.obj
 0001:0000f990       ?doSupport@?$SupportLocalImpl@VBoxV@Gu@physx@@@Gu@physx@@UEBAXAEBT__m128@@AEAT4@1@Z 0000000180010990 f i GuGeometryQuery.obj
 0001:0000f9e0       ?doSupport@?$SupportLocalImpl@VConvexHullV@Gu@physx@@@Gu@physx@@UEBA?AT__m128@@AEBT4@@Z 00000001800109e0 f i GuGeometryQuery.obj
 0001:0000fac0       ?doSupport@?$SupportLocalImpl@VConvexHullV@Gu@physx@@@Gu@physx@@UEBAXAEBT__m128@@AEAT4@1@Z 0000000180010ac0 f i GuGeometryQuery.obj
 0001:0000fe20       ?generateTriangleContacts@PxGeometryQuery@physx@@SA_NAEBVPxGeometry@2@AEBV?$PxTransformT@M@2@QEBV?$PxVec3T@M@2@IMMMAEAVPxContactBuffer@2@@Z 0000000180010e20 f   GuGeometryQuery.obj
 0001:000117d0       ?getEmptyManifold@MultiplePersistentContactManifold@Gu@physx@@QEAAPEAVSinglePersistentContactManifold@23@XZ 00000001800127d0 f i GuGeometryQuery.obj
 0001:000117f0       ?getManifold@MultiplePersistentContactManifold@Gu@physx@@QEAAPEAVSinglePersistentContactManifold@23@I@Z 00000001800127f0 f i GuGeometryQuery.obj
 0001:000117f0       ?getManifold@MultiplePersistentContactManifold@Gu@physx@@QEBAPEBVSinglePersistentContactManifold@23@I@Z 00000001800127f0 f i GuGeometryQuery.obj
 0001:00011810       ?getUniqueID@PxCustomGeometry@physx@@SAIXZ 0000000180012810 f   GuGeometryQuery.obj
 0001:00011830       ?hillClimbing@ConvexHullV@Gu@physx@@QEBAIAEBT__m128@@@Z 0000000180012830 f i GuGeometryQuery.obj
 0001:00011a60       ?initialize@MultiplePersistentContactManifold@Gu@physx@@QEAAXXZ 0000000180012a60 f i GuGeometryQuery.obj
 0001:00011ac0       ?invalidate@MultiplePersistentContactManifold@Gu@physx@@QEBAIAEBVPxTransformV@aos@3@AEBT__m128@@1@Z 0000000180012ac0 f i GuGeometryQuery.obj
 0001:00011b30       ?invalidate@MultiplePersistentContactManifold@Gu@physx@@QEBAIAEBVPxTransformV@aos@3@AEBT__m128@@@Z 0000000180012b30 f i GuGeometryQuery.obj
 0001:00011ba0       ?isUnit@?$PxQuatT@M@physx@@QEBA_NXZ 0000000180012ba0 f i GuGeometryQuery.obj
 0001:00011c60       ?isValid@PxGeometryQuery@physx@@SA_NAEBVPxGeometry@2@@Z 0000000180012c60 f   GuGeometryQuery.obj
 0001:00011f50       ?maxTransformPositionDelta@MultiplePersistentContactManifold@Gu@physx@@QEBA?AT__m128@@AEBT4@@Z 0000000180012f50 f i GuGeometryQuery.obj
 0001:00011f90       ?maxTransformQuatDelta@MultiplePersistentContactManifold@Gu@physx@@QEBA?AT__m128@@AEBT4@@Z 0000000180012f90 f i GuGeometryQuery.obj
 0001:00011fd0       ?overlap@PxGeometryQuery@physx@@SA_NAEBVPxGeometry@2@AEBV?$PxTransformT@M@2@01V?$PxFlags@W4Enum@PxGeometryQueryFlag@physx@@I@2@PEAUPxQueryThreadContext@2@@Z 0000000180012fd0 f   GuGeometryQuery.obj
 0001:000120a0       ?pointDistance@PxGeometryQuery@physx@@SAMAEBV?$PxVec3T@M@2@AEBVPxGeometry@2@AEBV?$PxTransformT@M@2@PEAV32@PEAIV?$PxFlags@W4Enum@PxGeometryQueryFlag@physx@@I@2@@Z 00000001800130a0 f   GuGeometryQuery.obj
 0001:00012830       ?populateVerts@?$SupportLocalImpl@VBoxV@Gu@physx@@@Gu@physx@@UEBAXPEBEIPEBV?$PxVec3T@M@3@PEAT__m128@@@Z 0000000180013830 f i GuGeometryQuery.obj
 0001:00012870       ?populateVerts@?$SupportLocalImpl@VConvexHullV@Gu@physx@@@Gu@physx@@UEBAXPEBEIPEBV?$PxVec3T@M@3@PEAT__m128@@@Z 0000000180013870 f i GuGeometryQuery.obj
 0001:000128d0       ?raycast@PxGeometryQuery@physx@@SAIAEBV?$PxVec3T@M@2@0AEBVPxGeometry@2@AEBV?$PxTransformT@M@2@MV?$PxFlags@W4Enum@PxHitFlag@physx@@G@2@IPEIAUPxGeomRaycastHit@2@IV?$PxFlags@W4Enum@PxGeometryQueryFlag@physx@@I@2@PEAUPxQueryThreadContext@2@@Z 00000001800138d0 f   GuGeometryQuery.obj
 0001:000129d0       ?reduceManifoldContactsInDifferentPatches@MultiplePersistentContactManifold@Gu@physx@@QEBAIPEAPEAUPCMContactPatch@23@IPEAVMeshPersistentContact@23@IAEBT__m128@@@Z 00000001800139d0 f i GuGeometryQuery.obj
 0001:00012b40       ?refineContactPatchConnective@MultiplePersistentContactManifold@Gu@physx@@QEBAXPEAPEAUPCMContactPatch@23@IPEAVMeshPersistentContact@23@AEBT__m128@@@Z 0000000180013b40 f i GuGeometryQuery.obj
 0001:00012c30       ?refreshManifold@MultiplePersistentContactManifold@Gu@physx@@QEAAXAEBVPxMatTransformV@aos@3@AEBT__m128@@1@Z 0000000180013c30 f i GuGeometryQuery.obj
 0001:00012d30       ?setRelativeTransform@MultiplePersistentContactManifold@Gu@physx@@QEAAXAEBVPxTransformV@aos@3@@Z 0000000180013d30 f i GuGeometryQuery.obj
 0001:00012d40       ?supportVertexIndex@ConvexHullV@Gu@physx@@QEBAIAEBT__m128@@@Z 0000000180013d40 f i GuGeometryQuery.obj
 0001:00012fc0       ?sweep@PxGeometryQuery@physx@@SA_NAEBV?$PxVec3T@M@2@MAEBVPxGeometry@2@AEBV?$PxTransformT@M@2@12AEAUPxGeomSweepHit@2@V?$PxFlags@W4Enum@PxHitFlag@physx@@G@2@MV?$PxFlags@W4Enum@PxGeometryQueryFlag@physx@@I@2@PEAUPxQueryThreadContext@2@@Z 0000000180013fc0 f   GuGeometryQuery.obj
 0001:00013450       ?computeBoxPoints@Gu@physx@@YAXAEBVPxBounds3@2@PEIAV?$PxVec3T@M@2@@Z 0000000180014450 f   GuInternal.obj
 0001:000134f0       ?computeSweptBox@Gu@physx@@YAXAEAVBox@12@AEBV?$PxVec3T@M@2@1AEBV?$PxMat33T@M@2@1M@Z 00000001800144f0 f   GuInternal.obj
 0001:00013a30       ?getPlane@Gu@physx@@YA?AVPxPlane@2@AEBV?$PxTransformT@M@2@@Z 0000000180014a30 f   GuInternal.obj
 0001:00013e80       ??_ECallbackRaycast@RTree@Gu@physx@@UEAAPEAXI@Z 0000000180014e80 f i GuMidphaseRTree.obj
 0001:00013e80       ??_ECallbackRefit@RTree@Gu@physx@@UEAAPEAXI@Z 0000000180014e80 f i GuTriangleMeshRTree.obj
 0001:00013e80       ??_EPxInsertionCallback@physx@@MEAAPEAXI@Z 0000000180014e80 f i GuMeshFactory.obj
 0001:00013e80       ??_GCallbackRaycast@RTree@Gu@physx@@UEAAPEAXI@Z 0000000180014e80 f i GuMidphaseRTree.obj
 0001:00013e80       ??_GCallbackRefit@RTree@Gu@physx@@UEAAPEAXI@Z 0000000180014e80 f i GuTriangleMeshRTree.obj
 0001:00013e80       ??_GPxInsertionCallback@physx@@MEAAPEAXI@Z 0000000180014e80 f i GuMeshFactory.obj
 0001:00013eb0       ??$copy@V?$PxReflectionAllocator@USlab@NodeAllocator@Gu@physx@@@physx@@@?$PxArray@USlab@NodeAllocator@Gu@physx@@V?$PxReflectionAllocator@USlab@NodeAllocator@Gu@physx@@@4@@physx@@IEAAXAEBV01@@Z 0000000180014eb0 f i GuMeshFactory.obj
 0001:00013f70       ??0AABBTreeBounds@Gu@physx@@QEAA@XZ 0000000180014f70 f i GuMeshFactory.obj
 0001:00013f80       ??0AABBTreeBuildNode@Gu@physx@@QEAA@AEBV012@@Z 0000000180014f80 f i GuMeshFactory.obj
 0001:00013f80       ??4AABBTreeBuildNode@Gu@physx@@QEAAAEAV012@AEBV012@@Z 0000000180014f80 f i GuMeshFactory.obj
 0001:00013fc0       ??0AABBTreeBuildParams@Gu@physx@@QEAA@IIPEBVAABBTreeBounds@12@W4BVHBuildStrategy@12@@Z 0000000180014fc0 f i GuMeshFactory.obj
 0001:00013fe0       ??0MeshFactory@Gu@physx@@QEAA@XZ 0000000180014fe0 f   GuMeshFactory.obj
 0001:000141e0       ??0NodeAllocator@Gu@physx@@QEAA@AEBV012@@Z 00000001800151e0 f i GuMeshFactory.obj
 0001:00014220       ??0TriangleMeshData@Gu@physx@@QEAA@XZ 0000000180015220 f i GuMeshFactory.obj
 0001:00014340       ??1AABBTreeBounds@Gu@physx@@QEAA@XZ 0000000180015340 f i GuMeshFactory.obj
 0001:00014350       ??1AABBTreeBuildParams@Gu@physx@@QEAA@XZ 0000000180015350 f i GuMeshFactory.obj
 0001:00014350       ?reset@AABBTreeBuildParams@Gu@physx@@QEAAXXZ 0000000180015350 f i GuMeshFactory.obj
 0001:000143a0       ??1CollisionMeshMappingData@Gu@physx@@UEAA@XZ 00000001800153a0 f i GuMeshFactory.obj
 0001:000144f0       ??1MeshDataBase@Gu@physx@@UEAA@XZ 00000001800154f0 f i GuMeshFactory.obj
 0001:00014630       ??1MeshFactory@Gu@physx@@MEAA@XZ 0000000180015630 f   GuMeshFactory.obj
 0001:00014770       ??1RTreeTriangleData@Gu@physx@@UEAA@XZ 0000000180015770 f i GuMeshFactory.obj
 0001:000147e0       ??1SoftBodyCollisionData@Gu@physx@@UEAA@XZ 00000001800157e0 f i GuMeshFactory.obj
 0001:00014920       ??1SoftBodySimulationData@Gu@physx@@UEAA@XZ 0000000180015920 f i GuMeshFactory.obj
 0001:00014a40       ??1TetrahedronMeshData@Gu@physx@@QEAA@XZ 0000000180015a40 f i GuMeshFactory.obj
 0001:00014ad0       ??1TriangleMeshData@Gu@physx@@UEAA@XZ 0000000180015ad0 f i GuMeshFactory.obj
 0001:00014c00       ??4NodeAllocator@Gu@physx@@QEAAAEAV012@AEBV012@@Z 0000000180015c00 f i GuMeshFactory.obj
 0001:00014cb0       ??_EMeshFactory@Gu@physx@@MEAAPEAXI@Z 0000000180015cb0 f i GuMeshFactory.obj
 0001:00014dd0       ??_FAABBTreeBuildParams@Gu@physx@@QEAAXXZ 0000000180015dd0 f i GuMeshFactory.obj
 0001:00014df0       ??_EBV4TriangleData@Gu@physx@@UEAAPEAXI@Z 0000000180015df0 f i GuMeshFactory.obj
 0001:00014df0       ??_GBV4TriangleData@Gu@physx@@UEAAPEAXI@Z 0000000180015df0 f i GuMeshFactory.obj
 0001:00014e80       ??_ECollisionMeshMappingData@Gu@physx@@UEAAPEAXI@Z 0000000180015e80 f i GuMeshFactory.obj
 0001:00014e80       ??_GCollisionMeshMappingData@Gu@physx@@UEAAPEAXI@Z 0000000180015e80 f i GuMeshFactory.obj
 0001:00014ef0       ??_EMeshDataBase@Gu@physx@@UEAAPEAXI@Z 0000000180015ef0 f i GuMeshFactory.obj
 0001:00014ef0       ??_GMeshDataBase@Gu@physx@@UEAAPEAXI@Z 0000000180015ef0 f i GuMeshFactory.obj
 0001:00014f60       ??_EPxCollisionMeshMappingData@physx@@UEAAPEAXI@Z 0000000180015f60 f i GuMeshFactory.obj
 0001:00014f60       ??_GPxCollisionMeshMappingData@physx@@UEAAPEAXI@Z 0000000180015f60 f i GuMeshFactory.obj
 0001:00014fb0       ??_ERTreeTriangleData@Gu@physx@@UEAAPEAXI@Z 0000000180015fb0 f i GuMeshFactory.obj
 0001:00014fb0       ??_GRTreeTriangleData@Gu@physx@@UEAAPEAXI@Z 0000000180015fb0 f i GuMeshFactory.obj
 0001:00015060       ??_ESoftBodyCollisionData@Gu@physx@@UEAAPEAXI@Z 0000000180016060 f i GuMeshFactory.obj
 0001:00015060       ??_GSoftBodyCollisionData@Gu@physx@@UEAAPEAXI@Z 0000000180016060 f i GuMeshFactory.obj
 0001:000150d0       ??_ESoftBodySimulationData@Gu@physx@@UEAAPEAXI@Z 00000001800160d0 f i GuMeshFactory.obj
 0001:000150d0       ??_GSoftBodySimulationData@Gu@physx@@UEAAPEAXI@Z 00000001800160d0 f i GuMeshFactory.obj
 0001:00015140       ??_ETriangleMeshData@Gu@physx@@UEAAPEAXI@Z 0000000180016140 f i GuMeshFactory.obj
 0001:00015140       ??_GTriangleMeshData@Gu@physx@@UEAAPEAXI@Z 0000000180016140 f i GuMeshFactory.obj
 0001:000151b0       ??_V@YAXPEAX_K@Z           00000001800161b0 f i LIBCMT:delete_array_size.obj
 0001:000151b0       ?__global_delete@@YAXPEAX_K@Z 00000001800161b0 f i GuMeshFactory.obj
 0001:000151c0       ?addBVH@MeshFactory@Gu@physx@@QEAAXPEAVBVH@23@_N@Z 00000001800161c0 f   GuMeshFactory.obj
 0001:00015240       ?addConvexMesh@MeshFactory@Gu@physx@@QEAAXPEAVConvexMesh@23@_N@Z 0000000180016240 f   GuMeshFactory.obj
 0001:000152c0       ?addFactoryListener@MeshFactory@Gu@physx@@QEAAXAEAVMeshFactoryListener@23@@Z 00000001800162c0 f   GuMeshFactory.obj
 0001:00015330       ?addHeightField@MeshFactory@Gu@physx@@QEAAXPEAVHeightField@23@_N@Z 0000000180016330 f   GuMeshFactory.obj
 0001:000153b0       ?addSoftBodyMesh@MeshFactory@Gu@physx@@QEAAXPEAVSoftBodyMesh@23@_N@Z 00000001800163b0 f   GuMeshFactory.obj
 0001:00015430       ?addTetrahedronMesh@MeshFactory@Gu@physx@@QEAAXPEAVTetrahedronMesh@23@_N@Z 0000000180016430 f   GuMeshFactory.obj
 0001:000154b0       ?addTriangleMesh@MeshFactory@Gu@physx@@QEAAXPEAVTriangleMesh@23@_N@Z 00000001800164b0 f   GuMeshFactory.obj
 0001:00015530       ?allocate@?$PxArray@USlab@NodeAllocator@Gu@physx@@V?$PxReflectionAllocator@USlab@NodeAllocator@Gu@physx@@@4@@physx@@IEAAPEAUSlab@NodeAllocator@Gu@2@I@Z 0000000180016530 f i GuMeshFactory.obj
 0001:000155c0       ?allocateAdjacencies@TriangleMeshData@Gu@physx@@QEAAPEAIXZ 00000001800165c0 f i GuMeshFactory.obj
 0001:00015630       ?allocateExtraTrigData@TriangleMeshData@Gu@physx@@QEAAPEAEXZ 0000000180016630 f i GuMeshFactory.obj
 0001:000156a0       ?allocateFaceRemap@TriangleMeshData@Gu@physx@@QEAAPEAIXZ 00000001800166a0 f i GuMeshFactory.obj
 0001:00015710       ?allocateGridModelData@SoftBodySimulationData@Gu@physx@@QEAAXIIIIIII@Z 0000000180016710 f i GuMeshFactory.obj
 0001:00015990       ?allocateMaterials@TetrahedronMeshData@Gu@physx@@QEAAPEAGXZ 0000000180016990 f i GuMeshFactory.obj
 0001:00015a00       ?allocateMaterials@TriangleMeshData@Gu@physx@@QEAAPEAGXZ 0000000180016a00 f i GuMeshFactory.obj
 0001:00015a70       ?allocateTetrahedrons@TetrahedronMeshData@Gu@physx@@QEAAXII@Z 0000000180016a70 f i GuMeshFactory.obj
 0001:00015b00       ?allocateTriangles@TriangleMeshData@Gu@physx@@QEAAPEAXI_NI@Z 0000000180016b00 f i GuMeshFactory.obj
 0001:00015bf0       ?allocateVertices@MeshDataBase@Gu@physx@@QEAAPEAV?$PxVec3T@M@3@I@Z 0000000180016bf0 f i GuMeshFactory.obj
 0001:00015c60       ?allocateVertices@TetrahedronMeshData@Gu@physx@@QEAAPEAV?$PxVec3T@M@3@II@Z 0000000180016c60 f i GuMeshFactory.obj
 0001:00015d00       ?allocatemappingData@CollisionMeshMappingData@Gu@physx@@QEAAXIIII@Z 0000000180016d00 f i GuMeshFactory.obj
 0001:00015ee0       ?create@?$PxHashBase@PEAVBVH@Gu@physx@@PEAV123@U?$PxHash@PEAVBVH@Gu@physx@@@3@UGetKey@?$PxHashSetBase@PEAVBVH@Gu@physx@@U?$PxHash@PEAVBVH@Gu@physx@@@3@VPxAllocator@3@$00@3@VPxAllocator@3@$00@physx@@QEAAPEAPEAVBVH@Gu@2@AEBQEAV342@AEA_N@Z 0000000180016ee0 f i GuMeshFactory.obj
 0001:00015ee0       ?create@?$PxHashBase@PEAVConvexMesh@Gu@physx@@PEAV123@U?$PxHash@PEAVConvexMesh@Gu@physx@@@3@UGetKey@?$PxHashSetBase@PEAVConvexMesh@Gu@physx@@U?$PxHash@PEAVConvexMesh@Gu@physx@@@3@VPxAllocator@3@$00@3@VPxAllocator@3@$00@physx@@QEAAPEAPEAVConvexMesh@Gu@2@AEBQEAV342@AEA_N@Z 0000000180016ee0 f i GuMeshFactory.obj
 0001:00015ee0       ?create@?$PxHashBase@PEAVHeightField@Gu@physx@@PEAV123@U?$PxHash@PEAVHeightField@Gu@physx@@@3@UGetKey@?$PxHashSetBase@PEAVHeightField@Gu@physx@@U?$PxHash@PEAVHeightField@Gu@physx@@@3@VPxAllocator@3@$00@3@VPxAllocator@3@$00@physx@@QEAAPEAPEAVHeightField@Gu@2@AEBQEAV342@AEA_N@Z 0000000180016ee0 f i GuMeshFactory.obj
 0001:00015ee0       ?create@?$PxHashBase@PEAVSoftBodyMesh@Gu@physx@@PEAV123@U?$PxHash@PEAVSoftBodyMesh@Gu@physx@@@3@UGetKey@?$PxHashSetBase@PEAVSoftBodyMesh@Gu@physx@@U?$PxHash@PEAVSoftBodyMesh@Gu@physx@@@3@VPxAllocator@3@$00@3@VPxAllocator@3@$00@physx@@QEAAPEAPEAVSoftBodyMesh@Gu@2@AEBQEAV342@AEA_N@Z 0000000180016ee0 f i GuMeshFactory.obj
 0001:00015ee0       ?create@?$PxHashBase@PEAVTetrahedronMesh@Gu@physx@@PEAV123@U?$PxHash@PEAVTetrahedronMesh@Gu@physx@@@3@UGetKey@?$PxHashSetBase@PEAVTetrahedronMesh@Gu@physx@@U?$PxHash@PEAVTetrahedronMesh@Gu@physx@@@3@VPxAllocator@3@$00@3@VPxAllocator@3@$00@physx@@QEAAPEAPEAVTetrahedronMesh@Gu@2@AEBQEAV342@AEA_N@Z 0000000180016ee0 f i GuMeshFactory.obj
 0001:00015ee0       ?create@?$PxHashBase@PEAVTriangleMesh@Gu@physx@@PEAV123@U?$PxHash@PEAVTriangleMesh@Gu@physx@@@3@UGetKey@?$PxHashSetBase@PEAVTriangleMesh@Gu@physx@@U?$PxHash@PEAVTriangleMesh@Gu@physx@@@3@VPxAllocator@3@$00@3@VPxAllocator@3@$00@physx@@QEAAPEAPEAVTriangleMesh@Gu@2@AEBQEAV342@AEA_N@Z 0000000180016ee0 f i GuMeshFactory.obj
 0001:00016070       ?createBVH@MeshFactory@Gu@physx@@IEAAPEAVPxBVH@3@AEAVBVHData@23@@Z 0000000180017070 f   GuMeshFactory.obj
 0001:00016160       ?createBVH@MeshFactory@Gu@physx@@QEAAPEAVPxBVH@3@AEAVPxInputStream@3@@Z 0000000180017160 f   GuMeshFactory.obj
 0001:00016280       ?createBVH@MeshFactory@Gu@physx@@QEAAPEAVPxBVH@3@PEAX@Z 0000000180017280 f   GuMeshFactory.obj
 0001:00016290       ?createConvexMesh@MeshFactory@Gu@physx@@IEAAPEAVPxConvexMesh@3@AEAUConvexHullInitData@23@@Z 0000000180017290 f   GuMeshFactory.obj
 0001:00016380       ?createConvexMesh@MeshFactory@Gu@physx@@QEAAPEAVPxConvexMesh@3@AEAVPxInputStream@3@@Z 0000000180017380 f   GuMeshFactory.obj
 0001:000164a0       ?createConvexMesh@MeshFactory@Gu@physx@@QEAAPEAVPxConvexMesh@3@PEAX@Z 00000001800174a0 f   GuMeshFactory.obj
 0001:000164b0       ?createHeightField@MeshFactory@Gu@physx@@QEAAPEAVPxHeightField@3@AEAVPxInputStream@3@@Z 00000001800174b0 f   GuMeshFactory.obj
 0001:000165d0       ?createHeightField@MeshFactory@Gu@physx@@QEAAPEAVPxHeightField@3@PEAX@Z 00000001800175d0 f   GuMeshFactory.obj
 0001:000166c0       ?createSoftBodyMesh@MeshFactory@Gu@physx@@IEAAPEAVPxSoftBodyMesh@3@AEAVSoftBodyMeshData@23@@Z 00000001800176c0 f   GuMeshFactory.obj
 0001:000167b0       ?createSoftBodyMesh@MeshFactory@Gu@physx@@QEAAPEAVPxSoftBodyMesh@3@AEAVPxInputStream@3@@Z 00000001800177b0 f   GuMeshFactory.obj
 0001:00016db0       ?createSoftBodyMesh@MeshFactory@Gu@physx@@QEAAPEAVPxSoftBodyMesh@3@PEAX@Z 0000000180017db0 f   GuMeshFactory.obj
 0001:00016dc0       ?createTetrahedronMesh@MeshFactory@Gu@physx@@IEAAPEAVPxTetrahedronMesh@3@AEAVTetrahedronMeshData@23@@Z 0000000180017dc0 f   GuMeshFactory.obj
 0001:00016eb0       ?createTetrahedronMesh@MeshFactory@Gu@physx@@QEAAPEAVPxTetrahedronMesh@3@AEAVPxInputStream@3@@Z 0000000180017eb0 f   GuMeshFactory.obj
 0001:00016f20       ?createTetrahedronMesh@MeshFactory@Gu@physx@@QEAAPEAVPxTetrahedronMesh@3@PEAX@Z 0000000180017f20 f   GuMeshFactory.obj
 0001:00016f30       ?createTriangleMesh@MeshFactory@Gu@physx@@IEAAPEAVPxTriangleMesh@3@AEAVTriangleMeshData@23@@Z 0000000180017f30 f   GuMeshFactory.obj
 0001:000170b0       ?createTriangleMesh@MeshFactory@Gu@physx@@QEAAPEAVPxTriangleMesh@3@AEAVPxInputStream@3@@Z 00000001800180b0 f   GuMeshFactory.obj
 0001:00017110       ?createTriangleMesh@MeshFactory@Gu@physx@@QEAAPEAVPxTriangleMesh@3@PEAX@Z 0000000180018110 f   GuMeshFactory.obj
 0001:00017120       ?erase@?$PxHashBase@PEAVBVH@Gu@physx@@PEAV123@U?$PxHash@PEAVBVH@Gu@physx@@@3@UGetKey@?$PxHashSetBase@PEAVBVH@Gu@physx@@U?$PxHash@PEAVBVH@Gu@physx@@@3@VPxAllocator@3@$00@3@VPxAllocator@3@$00@physx@@QEAA_NAEBQEAVBVH@Gu@2@@Z 0000000180018120 f i GuMeshFactory.obj
 0001:00017120       ?erase@?$PxHashBase@PEAVConvexMesh@Gu@physx@@PEAV123@U?$PxHash@PEAVConvexMesh@Gu@physx@@@3@UGetKey@?$PxHashSetBase@PEAVConvexMesh@Gu@physx@@U?$PxHash@PEAVConvexMesh@Gu@physx@@@3@VPxAllocator@3@$00@3@VPxAllocator@3@$00@physx@@QEAA_NAEBQEAVConvexMesh@Gu@2@@Z 0000000180018120 f i GuMeshFactory.obj
 0001:00017120       ?erase@?$PxHashBase@PEAVHeightField@Gu@physx@@PEAV123@U?$PxHash@PEAVHeightField@Gu@physx@@@3@UGetKey@?$PxHashSetBase@PEAVHeightField@Gu@physx@@U?$PxHash@PEAVHeightField@Gu@physx@@@3@VPxAllocator@3@$00@3@VPxAllocator@3@$00@physx@@QEAA_NAEBQEAVHeightField@Gu@2@@Z 0000000180018120 f i GuMeshFactory.obj
 0001:00017120       ?erase@?$PxHashBase@PEAVSoftBodyMesh@Gu@physx@@PEAV123@U?$PxHash@PEAVSoftBodyMesh@Gu@physx@@@3@UGetKey@?$PxHashSetBase@PEAVSoftBodyMesh@Gu@physx@@U?$PxHash@PEAVSoftBodyMesh@Gu@physx@@@3@VPxAllocator@3@$00@3@VPxAllocator@3@$00@physx@@QEAA_NAEBQEAVSoftBodyMesh@Gu@2@@Z 0000000180018120 f i GuMeshFactory.obj
 0001:00017120       ?erase@?$PxHashBase@PEAVTetrahedronMesh@Gu@physx@@PEAV123@U?$PxHash@PEAVTetrahedronMesh@Gu@physx@@@3@UGetKey@?$PxHashSetBase@PEAVTetrahedronMesh@Gu@physx@@U?$PxHash@PEAVTetrahedronMesh@Gu@physx@@@3@VPxAllocator@3@$00@3@VPxAllocator@3@$00@physx@@QEAA_NAEBQEAVTetrahedronMesh@Gu@2@@Z 0000000180018120 f i GuMeshFactory.obj
 0001:00017120       ?erase@?$PxHashBase@PEAVTriangleMesh@Gu@physx@@PEAV123@U?$PxHash@PEAVTriangleMesh@Gu@physx@@@3@UGetKey@?$PxHashSetBase@PEAVTriangleMesh@Gu@physx@@U?$PxHash@PEAVTriangleMesh@Gu@physx@@@3@VPxAllocator@3@$00@3@VPxAllocator@3@$00@physx@@QEAA_NAEBQEAVTriangleMesh@Gu@2@@Z 0000000180018120 f i GuMeshFactory.obj
 0001:000172a0       ?getBVHs@MeshFactory@Gu@physx@@QEBAIPEAPEAVPxBVH@3@II@Z 00000001800182a0 f   GuMeshFactory.obj
 0001:00017340       ?getBounds@AABBTreeBounds@Gu@physx@@QEAAPEAVPxBounds3@3@XZ 0000000180018340 f i GuMeshFactory.obj
 0001:00017340       ?getBounds@AABBTreeBounds@Gu@physx@@QEBAPEBVPxBounds3@3@XZ 0000000180018340 f i GuMeshFactory.obj
 0001:00017350       ?getConvexMeshes@MeshFactory@Gu@physx@@QEBAIPEAPEAVPxConvexMesh@3@II@Z 0000000180018350 f   GuMeshFactory.obj
 0001:000173f0       ?getHeightFields@MeshFactory@Gu@physx@@QEBAIPEAPEAVPxHeightField@3@II@Z 00000001800183f0 f   GuMeshFactory.obj
 0001:00017490       ?getNbBVHs@MeshFactory@Gu@physx@@QEBAIXZ 0000000180018490 f   GuMeshFactory.obj
 0001:000174d0       ?getNbConvexMeshes@MeshFactory@Gu@physx@@QEBAIXZ 00000001800184d0 f   GuMeshFactory.obj
 0001:00017510       ?getNbHeightFields@MeshFactory@Gu@physx@@QEBAIXZ 0000000180018510 f   GuMeshFactory.obj
 0001:00017550       ?getNbPrimitives@AABBTreeBuildNode@Gu@physx@@QEBAIXZ 0000000180018550 f i GuMeshFactory.obj
 0001:00017550       ?getNbRuntimePrimitives@AABBTreeBuildNode@Gu@physx@@QEBAIXZ 0000000180018550 f i GuMeshFactory.obj
 0001:00017560       ?getNbSoftBodyMeshes@MeshFactory@Gu@physx@@QEBAIXZ 0000000180018560 f   GuMeshFactory.obj
 0001:000175a0       ?getNbTetrahedronMeshes@MeshFactory@Gu@physx@@QEBAIXZ 00000001800185a0 f   GuMeshFactory.obj
 0001:000175e0       ?getNbTriangleMeshes@MeshFactory@Gu@physx@@QEBAIXZ 00000001800185e0 f   GuMeshFactory.obj
 0001:00017620       ?getNeg@AABBTreeBuildNode@Gu@physx@@QEBAPEBV123@XZ 0000000180018620 f i GuMeshFactory.obj
 0001:00017640       ?getPrimitives@AABBTreeBuildNode@Gu@physx@@QEAAPEAIPEAI@Z 0000000180018640 f i GuMeshFactory.obj
 0001:00017640       ?getPrimitives@AABBTreeBuildNode@Gu@physx@@QEBAPEBIPEBI@Z 0000000180018640 f i GuMeshFactory.obj
 0001:00017650       ?getSoftBodyMeshes@MeshFactory@Gu@physx@@QEBAIPEAPEAVPxSoftBodyMesh@3@II@Z 0000000180018650 f   GuMeshFactory.obj
 0001:000176f0       ?getTetrahedronMeshes@MeshFactory@Gu@physx@@QEBAIPEAPEAVPxTetrahedronMesh@3@II@Z 00000001800186f0 f   GuMeshFactory.obj
 0001:00017780       ?getTriangleMeshes@MeshFactory@Gu@physx@@QEBAIPEAPEAVPxTriangleMesh@3@II@Z 0000000180018780 f   GuMeshFactory.obj
 0001:00017810       ?growAndPushBack@?$PxArray@PEAVMeshFactoryListener@Gu@physx@@V?$PxReflectionAllocator@PEAVMeshFactoryListener@Gu@physx@@@3@@physx@@IEAAAEAPEAVMeshFactoryListener@Gu@2@AEBQEAV342@@Z 0000000180018810 f i GuMeshFactory.obj
 0001:00017930       ?isLeaf@AABBTreeBuildNode@Gu@physx@@QEBA_NXZ 0000000180018930 f i GuMeshFactory.obj
 0001:000193f0       ?moveFrom@AABBTreeBounds@Gu@physx@@QEAAXAEAV123@@Z 000000018001a3f0 f i GuMeshFactory.obj
 0001:00019400       ?notifyFactoryListener@MeshFactory@Gu@physx@@QEAAXPEBVPxBase@3@G@Z 000000018001a400 f   GuMeshFactory.obj
 0001:00019470       ?ownsMemory@AABBTreeBounds@Gu@physx@@QEBA_NXZ 000000018001a470 f i GuMeshFactory.obj
 0001:00019750       ?recreate@?$PxArray@USlab@NodeAllocator@Gu@physx@@V?$PxReflectionAllocator@USlab@NodeAllocator@Gu@physx@@@4@@physx@@IEAAXI@Z 000000018001a750 f i GuMeshFactory.obj
 0001:00019800       ?release@CollisionMeshMappingData@Gu@physx@@UEAAXXZ 000000018001a800 f i GuMeshFactory.obj
 0001:00019820       ?release@MeshFactory@Gu@physx@@QEAAXXZ 000000018001a820 f   GuMeshFactory.obj
 0001:00019920       ?remove@MeshFactory@Gu@physx@@QEAA_NAEAVPxBase@3@@Z 000000018001a920 f   GuMeshFactory.obj
 0001:00019a20       ?removeBVH@MeshFactory@Gu@physx@@QEAA_NAEAVPxBVH@3@@Z 000000018001aa20 f   GuMeshFactory.obj
 0001:00019a70       ?removeConvexMesh@MeshFactory@Gu@physx@@QEAA_NAEAVPxConvexMesh@3@@Z 000000018001aa70 f   GuMeshFactory.obj
 0001:00019ac0       ?removeFactoryListener@MeshFactory@Gu@physx@@QEAAXAEAVMeshFactoryListener@23@@Z 000000018001aac0 f   GuMeshFactory.obj
 0001:00019b50       ?removeHeightField@MeshFactory@Gu@physx@@QEAA_NAEAVPxHeightField@3@@Z 000000018001ab50 f   GuMeshFactory.obj
 0001:00019ba0       ?removeSoftBodyMesh@MeshFactory@Gu@physx@@QEAA_NAEAVPxSoftBodyMesh@3@@Z 000000018001aba0 f   GuMeshFactory.obj
 0001:00019bf0       ?removeTetrahedronMesh@MeshFactory@Gu@physx@@QEAA_NAEAVPxTetrahedronMesh@3@@Z 000000018001abf0 f   GuMeshFactory.obj
 0001:00019c40       ?removeTriangleMesh@MeshFactory@Gu@physx@@QEAA_NAEAVPxTriangleMesh@3@@Z 000000018001ac40 f   GuMeshFactory.obj
 0001:00019c90       ?reserveInternal@?$PxHashBase@PEAVBVH@Gu@physx@@PEAV123@U?$PxHash@PEAVBVH@Gu@physx@@@3@UGetKey@?$PxHashSetBase@PEAVBVH@Gu@physx@@U?$PxHash@PEAVBVH@Gu@physx@@@3@VPxAllocator@3@$00@3@VPxAllocator@3@$00@physx@@AEAAXI@Z 000000018001ac90 f i GuMeshFactory.obj
 0001:00019c90       ?reserveInternal@?$PxHashBase@PEAVConvexMesh@Gu@physx@@PEAV123@U?$PxHash@PEAVConvexMesh@Gu@physx@@@3@UGetKey@?$PxHashSetBase@PEAVConvexMesh@Gu@physx@@U?$PxHash@PEAVConvexMesh@Gu@physx@@@3@VPxAllocator@3@$00@3@VPxAllocator@3@$00@physx@@AEAAXI@Z 000000018001ac90 f i GuMeshFactory.obj
 0001:00019c90       ?reserveInternal@?$PxHashBase@PEAVHeightField@Gu@physx@@PEAV123@U?$PxHash@PEAVHeightField@Gu@physx@@@3@UGetKey@?$PxHashSetBase@PEAVHeightField@Gu@physx@@U?$PxHash@PEAVHeightField@Gu@physx@@@3@VPxAllocator@3@$00@3@VPxAllocator@3@$00@physx@@AEAAXI@Z 000000018001ac90 f i GuMeshFactory.obj
 0001:00019c90       ?reserveInternal@?$PxHashBase@PEAVSoftBodyMesh@Gu@physx@@PEAV123@U?$PxHash@PEAVSoftBodyMesh@Gu@physx@@@3@UGetKey@?$PxHashSetBase@PEAVSoftBodyMesh@Gu@physx@@U?$PxHash@PEAVSoftBodyMesh@Gu@physx@@@3@VPxAllocator@3@$00@3@VPxAllocator@3@$00@physx@@AEAAXI@Z 000000018001ac90 f i GuMeshFactory.obj
 0001:00019c90       ?reserveInternal@?$PxHashBase@PEAVTetrahedronMesh@Gu@physx@@PEAV123@U?$PxHash@PEAVTetrahedronMesh@Gu@physx@@@3@UGetKey@?$PxHashSetBase@PEAVTetrahedronMesh@Gu@physx@@U?$PxHash@PEAVTetrahedronMesh@Gu@physx@@@3@VPxAllocator@3@$00@3@VPxAllocator@3@$00@physx@@AEAAXI@Z 000000018001ac90 f i GuMeshFactory.obj
 0001:00019c90       ?reserveInternal@?$PxHashBase@PEAVTriangleMesh@Gu@physx@@PEAV123@U?$PxHash@PEAVTriangleMesh@Gu@physx@@@3@UGetKey@?$PxHashSetBase@PEAVTriangleMesh@Gu@physx@@U?$PxHash@PEAVTriangleMesh@Gu@physx@@@3@VPxAllocator@3@$00@3@VPxAllocator@3@$00@physx@@AEAAXI@Z 000000018001ac90 f i GuMeshFactory.obj
 0001:00019e60       ?setBounds@AABBTreeBounds@Gu@physx@@QEAAXPEAVPxBounds3@3@@Z 000000018001ae60 f i GuMeshFactory.obj
 0001:00019e70       ?setNbRunTimePrimitives@AABBTreeBuildNode@Gu@physx@@QEAAXI@Z 000000018001ae70 f i GuMeshFactory.obj
 0001:00019e80       ?takeOwnership@AABBTreeBounds@Gu@physx@@QEAAXXZ 000000018001ae80 f i GuMeshFactory.obj
 0001:00019e90       getInsertionCallback       000000018001ae90 f   GuMeshFactory.obj
 0001:00019ea0       ??4BigConvexData@physx@@QEAAAEAV01@AEBV01@@Z 000000018001aea0 f i GuMetaData.obj
 0001:00019ec0       ?GetAdjacentVerts@BigConvexData@physx@@QEBAPEBEXZ 000000018001aec0 f i GuMetaData.obj
 0001:00019ec0       ?getSoftBodyAuxData@SoftBodyMesh@Gu@physx@@UEAAPEAVPxSoftBodyAuxData@3@XZ 000000018001aec0 f i GuTetrahedronMesh.obj
 0001:00019ec0       ?getSoftBodyAuxData@SoftBodyMesh@Gu@physx@@UEBAPEBVPxSoftBodyAuxData@3@XZ 000000018001aec0 f i GuTetrahedronMesh.obj
 0001:00019ec0       ?getTransforms@PruningPool@Gu@physx@@QEAAPEAV?$PxTransformT@M@3@XZ 000000018001aec0 f i GuIncrementalAABBPrunerCore.obj
 0001:00019ec0       ?getTransforms@PruningPool@Gu@physx@@QEBAPEBV?$PxTransformT@M@3@XZ 000000018001aec0 f i GuIncrementalAABBPrunerCore.obj
 0001:00019ec0       ?getTriangles@TriangleMesh@Gu@physx@@UEBAPEBXXZ 000000018001aec0 f i GuTriangleMesh.obj
 0001:00019ed0       ?GetNbNeighbors@BigConvexData@physx@@QEBAGI@Z 000000018001aed0 f i GuMetaData.obj
 0001:00019ed0       ?GetValency@BigConvexData@physx@@QEBAGI@Z 000000018001aed0 f i GuMetaData.obj
 0001:00019ee0       ?GetNbSamples@BigConvexData@physx@@QEBAIXZ 000000018001aee0 f i GuMetaData.obj
 0001:00019ef0       ?GetNbVerts@BigConvexData@physx@@QEBAIXZ 000000018001aef0 f i GuMetaData.obj
 0001:00019ef0       ?getNbVertices@TetrahedronMesh@Gu@physx@@UEBAIXZ 000000018001aef0 f i GuTetrahedronMesh.obj
 0001:00019ef0       ?getNbVertices@TriangleMesh@Gu@physx@@UEBAIXZ 000000018001aef0 f i GuTriangleMesh.obj
 0001:00019ef0       ?length@pcharNode@@UEBAHXZ 000000018001aef0 f i libvcruntime:undname.obj
 0001:00019ef0       ?raw_length@pcharNode@@UEBAHXZ 000000018001aef0 f i libvcruntime:undname.obj
 0001:00019f00       ?GetNeighbors@BigConvexData@physx@@QEBAPEBEI@Z 000000018001af00 f i GuMetaData.obj
 0001:00019f10       ?GetOffset@BigConvexData@physx@@QEBAGI@Z 000000018001af10 f i GuMetaData.obj
 0001:00019f20       ?GetSubdiv@BigConvexData@physx@@QEBAIXZ 000000018001af20 f i GuMetaData.obj
 0001:00019f30       ?getBinaryMetaData@BV4Tree@Gu@physx@@SAXAEAVPxOutputStream@3@@Z 000000018001af30 f   GuMetaData.obj
 0001:0001a4d0       ?getBinaryMetaData@BV4TriangleMesh@Gu@physx@@SAXAEAVPxOutputStream@3@@Z 000000018001b4d0 f   GuMetaData.obj
 0001:0001a850       ?getBinaryMetaData@BigConvexData@physx@@SAXAEAVPxOutputStream@2@@Z 000000018001b850 f   GuMetaData.obj
 0001:0001ab10       ?getBinaryMetaData@ConvexMesh@Gu@physx@@SAXAEAVPxOutputStream@3@@Z 000000018001bb10 f   GuMetaData.obj
 0001:0001b1b0       ?getBinaryMetaData@HeightField@Gu@physx@@SAXAEAVPxOutputStream@3@@Z 000000018001c1b0 f   GuMetaData.obj
 0001:0001b5a0       ?getBinaryMetaData@RTree@Gu@physx@@SAXAEAVPxOutputStream@3@@Z 000000018001c5a0 f   GuMetaData.obj
 0001:0001b8d0       ?getBinaryMetaData@RTreeTriangleMesh@Gu@physx@@SAXAEAVPxOutputStream@3@@Z 000000018001c8d0 f   GuMetaData.obj
 0001:0001b9b0       ?getBinaryMetaData@SDF@Gu@physx@@SAXAEAVPxOutputStream@3@@Z 000000018001c9b0 f   GuMetaData.obj
 0001:0001be90       ?getBinaryMetaData@TriangleMesh@Gu@physx@@SAXAEAVPxOutputStream@3@@Z 000000018001ce90 f   GuMetaData.obj
 0001:0001d540       ?doSupport@?$SupportLocalImpl@VConvexHullNoScaleV@Gu@physx@@@Gu@physx@@UEBA?AT__m128@@AEBT4@@Z 000000018001e540 f i GuMTD.obj
 0001:0001d590       ?doSupport@?$SupportLocalImpl@VConvexHullNoScaleV@Gu@physx@@@Gu@physx@@UEBAXAEBT__m128@@AEAT4@1@Z 000000018001e590 f i GuMTD.obj
 0001:0001d710       ?populateVerts@?$SupportLocalImpl@VConvexHullNoScaleV@Gu@physx@@@Gu@physx@@UEBAXPEBEIPEBV?$PxVec3T@M@3@PEAT__m128@@@Z 000000018001e710 f i GuMTD.obj
 0001:0001d750       ?getInternalData@TriangleMesh@Gu@physx@@UEBA_NAEAUPxTriangleMeshInternalData@3@_N@Z 000000018001e750 f   GuTriangleMesh.obj
 0001:0001d750       ?isDynamic@Pruner@Gu@physx@@UEBA_NXZ 000000018001e750 f   GuIncrementalAABBPruner.obj
 0001:0001f590       ??$gjk@U?$LocalConvex@VCapsuleV@Gu@physx@@@Gu@physx@@U?$LocalConvex@VConvexHullV@Gu@physx@@@23@@Gu@physx@@YA?AW4GjkStatus@01@AEBU?$LocalConvex@VCapsuleV@Gu@physx@@@01@AEBU?$LocalConvex@VConvexHullV@Gu@physx@@@01@AEBT__m128@@2AEAT5@333@Z 0000000180020590 f i GuMTD.obj
 0001:000202f0       ??0SeparatingAxes@Gu@physx@@QEAA@$$QEAV012@@Z 00000001800212f0 f i GuMTD.obj
 0001:000202f0       ??0SeparatingAxes@Gu@physx@@QEAA@AEBV012@@Z 00000001800212f0 f i GuMTD.obj
 0001:00020400       ??0SeparatingAxes@Gu@physx@@QEAA@XZ 0000000180021400 f i GuMTD.obj
 0001:00020410       ??4SeparatingAxes@Gu@physx@@QEAAAEAV012@$$QEAV012@@Z 0000000180021410 f i GuMTD.obj
 0001:00020410       ??4SeparatingAxes@Gu@physx@@QEAAAEAV012@AEBV012@@Z 0000000180021410 f i GuMTD.obj
 0001:00020520       ??_E?$LocalConvex@UCustomConvexV@@@Gu@physx@@UEAAPEAXI@Z 0000000180021520 f i GuGjkQuery.obj
 0001:00020520       ??_E?$LocalConvex@UPointConvexV@@@Gu@physx@@UEAAPEAXI@Z 0000000180021520 f i GuGjkQuery.obj
 0001:00020520       ??_E?$LocalConvex@VBoxV@Gu@physx@@@Gu@physx@@UEAAPEAXI@Z 0000000180021520 f i GuSweepTests.obj
 0001:00020520       ??_E?$LocalConvex@VCapsuleV@Gu@physx@@@Gu@physx@@UEAAPEAXI@Z 0000000180021520 f i GuMTD.obj
 0001:00020520       ??_E?$LocalConvex@VConvexHullNoScaleV@Gu@physx@@@Gu@physx@@UEAAPEAXI@Z 0000000180021520 f i GuPCMContactBoxConvex.obj
 0001:00020520       ??_E?$LocalConvex@VConvexHullV@Gu@physx@@@Gu@physx@@UEAAPEAXI@Z 0000000180021520 f i GuMTD.obj
 0001:00020520       ??_E?$LocalConvex@VTetrahedronV@Gu@physx@@@Gu@physx@@UEAAPEAXI@Z 0000000180021520 f i GuCookingTetrahedronMesh.obj
 0001:00020520       ??_E?$LocalConvex@VTriangleV@Gu@physx@@@Gu@physx@@UEAAPEAXI@Z 0000000180021520 f i GuSweepTests.obj
 0001:00020520       ??_EGjkConvex@Gu@physx@@UEAAPEAXI@Z 0000000180021520 f i GuMTD.obj
 0001:00020520       ??_G?$LocalConvex@UCustomConvexV@@@Gu@physx@@UEAAPEAXI@Z 0000000180021520 f i GuGjkQuery.obj
 0001:00020520       ??_G?$LocalConvex@UPointConvexV@@@Gu@physx@@UEAAPEAXI@Z 0000000180021520 f i GuGjkQuery.obj
 0001:00020520       ??_G?$LocalConvex@VBoxV@Gu@physx@@@Gu@physx@@UEAAPEAXI@Z 0000000180021520 f i GuSweepTests.obj
 0001:00020520       ??_G?$LocalConvex@VCapsuleV@Gu@physx@@@Gu@physx@@UEAAPEAXI@Z 0000000180021520 f i GuMTD.obj
 0001:00020520       ??_G?$LocalConvex@VConvexHullNoScaleV@Gu@physx@@@Gu@physx@@UEAAPEAXI@Z 0000000180021520 f i GuPCMContactBoxConvex.obj
 0001:00020520       ??_G?$LocalConvex@VConvexHullV@Gu@physx@@@Gu@physx@@UEAAPEAXI@Z 0000000180021520 f i GuMTD.obj
 0001:00020520       ??_G?$LocalConvex@VTetrahedronV@Gu@physx@@@Gu@physx@@UEAAPEAXI@Z 0000000180021520 f i GuCookingTetrahedronMesh.obj
 0001:00020520       ??_G?$LocalConvex@VTriangleV@Gu@physx@@@Gu@physx@@UEAAPEAXI@Z 0000000180021520 f i GuSweepTests.obj
 0001:00020520       ??_GGjkConvex@Gu@physx@@UEAAPEAXI@Z 0000000180021520 f i GuMTD.obj
 0001:000246b0       ?getAxes@SeparatingAxes@Gu@physx@@QEBAPEBV?$PxVec3T@M@3@XZ 00000001800256b0 f i GuMTD.obj
 0001:000246c0       ?getCenter@?$LocalConvex@UCustomConvexV@@@Gu@physx@@UEBA?AT__m128@@XZ 00000001800256c0 f i GuGjkQuery.obj
 0001:000246c0       ?getCenter@?$LocalConvex@UPointConvexV@@@Gu@physx@@UEBA?AT__m128@@XZ 00000001800256c0 f i GuGjkQuery.obj
 0001:000246c0       ?getCenter@?$LocalConvex@VBoxV@Gu@physx@@@Gu@physx@@UEBA?AT__m128@@XZ 00000001800256c0 f i GuSweepTests.obj
 0001:000246c0       ?getCenter@?$LocalConvex@VCapsuleV@Gu@physx@@@Gu@physx@@UEBA?AT__m128@@XZ 00000001800256c0 f i GuMTD.obj
 0001:000246c0       ?getCenter@?$LocalConvex@VConvexHullNoScaleV@Gu@physx@@@Gu@physx@@UEBA?AT__m128@@XZ 00000001800256c0 f i GuPCMContactBoxConvex.obj
 0001:000246c0       ?getCenter@?$LocalConvex@VConvexHullV@Gu@physx@@@Gu@physx@@UEBA?AT__m128@@XZ 00000001800256c0 f i GuMTD.obj
 0001:000246c0       ?getCenter@?$LocalConvex@VTetrahedronV@Gu@physx@@@Gu@physx@@UEBA?AT__m128@@XZ 00000001800256c0 f i GuCookingTetrahedronMesh.obj
 0001:000246c0       ?getCenter@?$LocalConvex@VTriangleV@Gu@physx@@@Gu@physx@@UEBA?AT__m128@@XZ 00000001800256c0 f i GuSweepTests.obj
 0001:000246d0       ?getCount@BuildStats@Gu@physx@@QEBAIXZ 00000001800256d0 f i GuBV4Build.obj
 0001:000246d0       ?getNbActiveObjects@PruningPool@Gu@physx@@QEBAIXZ 00000001800256d0 f i GuIncrementalAABBPrunerCore.obj
 0001:000246d0       ?getNumAxes@SeparatingAxes@Gu@physx@@QEBAIXZ 00000001800256d0 f i GuMTD.obj
 0001:000246e0       ?getSweepMargin@?$LocalConvex@VCapsuleV@Gu@physx@@@Gu@physx@@UEBA?AT__m128@@XZ 00000001800256e0 f i GuMTD.obj
 0001:000246e0       ?getSweepMargin@?$RelativeConvex@VCapsuleV@Gu@physx@@@Gu@physx@@UEBA?AT__m128@@XZ 00000001800256e0 f i GuCCDSweepPrimitives.obj
 0001:000246f0       ?getSweepMargin@?$LocalConvex@UCustomConvexV@@@Gu@physx@@UEBA?AT__m128@@XZ 00000001800256f0 f i GuGjkQuery.obj
 0001:000246f0       ?getSweepMargin@?$LocalConvex@UPointConvexV@@@Gu@physx@@UEBA?AT__m128@@XZ 00000001800256f0 f i GuGjkQuery.obj
 0001:000246f0       ?getSweepMargin@?$LocalConvex@VBoxV@Gu@physx@@@Gu@physx@@UEBA?AT__m128@@XZ 00000001800256f0 f i GuSweepTests.obj
 0001:000246f0       ?getSweepMargin@?$LocalConvex@VConvexHullNoScaleV@Gu@physx@@@Gu@physx@@UEBA?AT__m128@@XZ 00000001800256f0 f i GuPCMContactBoxConvex.obj
 0001:000246f0       ?getSweepMargin@?$LocalConvex@VConvexHullV@Gu@physx@@@Gu@physx@@UEBA?AT__m128@@XZ 00000001800256f0 f i GuMTD.obj
 0001:000246f0       ?getSweepMargin@?$RelativeConvex@UCustomConvexV@@@Gu@physx@@UEBA?AT__m128@@XZ 00000001800256f0 f i GuGjkQuery.obj
 0001:000246f0       ?getSweepMargin@?$RelativeConvex@VBoxV@Gu@physx@@@Gu@physx@@UEBA?AT__m128@@XZ 00000001800256f0 f i GuOverlapTests.obj
 0001:000246f0       ?getSweepMargin@?$RelativeConvex@VConvexHullNoScaleV@Gu@physx@@@Gu@physx@@UEBA?AT__m128@@XZ 00000001800256f0 f i GuPCMContactConvexConvex.obj
 0001:000246f0       ?getSweepMargin@?$RelativeConvex@VConvexHullV@Gu@physx@@@Gu@physx@@UEBA?AT__m128@@XZ 00000001800256f0 f i GuOverlapTests.obj
 0001:00024710       ?getSweepMargin@GjkConvex@Gu@physx@@UEBA?AT__m128@@XZ 0000000180025710 f i GuMTD.obj
 0001:00024730       ?pointConvexDistance@@YA_NAEAV?$PxVec3T@M@physx@@0AEAMAEBV12@PEBVConvexMesh@Gu@2@AEBVPxMeshScale@2@AEBUPxTransformPadded@2@@Z 0000000180025730 f   GuMTD.obj
 0001:00025490       ?reset@SeparatingAxes@Gu@physx@@QEAAXXZ 0000000180026490 f i GuMTD.obj
 0001:000254a0       ?support@?$LocalConvex@VCapsuleV@Gu@physx@@@Gu@physx@@UEBA?AT__m128@@AEBT4@@Z 00000001800264a0 f i GuMTD.obj
 0001:00025500       ?support@?$LocalConvex@VCapsuleV@Gu@physx@@@Gu@physx@@UEBA?AT__m128@@AEBT4@AEAH@Z 0000000180026500 f i GuMTD.obj
 0001:00025570       ?support@?$LocalConvex@VConvexHullV@Gu@physx@@@Gu@physx@@UEBA?AT__m128@@AEBT4@@Z 0000000180026570 f i GuMTD.obj
 0001:00025650       ?support@?$LocalConvex@VConvexHullV@Gu@physx@@@Gu@physx@@UEBA?AT__m128@@AEBT4@AEAH@Z 0000000180026650 f i GuMTD.obj
 0001:00025720       ?support@GjkConvex@Gu@physx@@UEBA?AT__m128@@AEBT4@@Z 0000000180026720 f i GuMTD.obj
 0001:00025740       ?support@GjkConvex@Gu@physx@@UEBA?AT__m128@@AEBT4@AEAH@Z 0000000180026740 f i GuMTD.obj
 0001:00025760       ?supportPoint@?$LocalConvex@VCapsuleV@Gu@physx@@@Gu@physx@@UEBA?AT__m128@@H@Z 0000000180026760 f i GuMTD.obj
 0001:00025790       ?supportPoint@?$LocalConvex@VConvexHullV@Gu@physx@@@Gu@physx@@UEBA?AT__m128@@H@Z 0000000180026790 f i GuMTD.obj
 0001:000257e0       ?supportPoint@GjkConvex@Gu@physx@@UEBA?AT__m128@@H@Z 00000001800267e0 f i GuMTD.obj
 0001:00025800       ?supportPoint@?$RelativeConvex@VBoxV@Gu@physx@@@Gu@physx@@UEBA?AT__m128@@H@Z 0000000180026800 f i GuOverlapTests.obj
 0001:00025870       ?support@?$RelativeConvex@VBoxV@Gu@physx@@@Gu@physx@@UEBA?AT__m128@@AEBT4@@Z 0000000180026870 f i GuOverlapTests.obj
 0001:000258f0       ?support@?$RelativeConvex@VBoxV@Gu@physx@@@Gu@physx@@UEBA?AT__m128@@AEBT4@AEAH@Z 00000001800268f0 f i GuOverlapTests.obj
 0001:00025980       ?getCenter@?$RelativeConvex@UCustomConvexV@@@Gu@physx@@UEBA?AT__m128@@XZ 0000000180026980 f i GuGjkQuery.obj
 0001:00025980       ?getCenter@?$RelativeConvex@VBoxV@Gu@physx@@@Gu@physx@@UEBA?AT__m128@@XZ 0000000180026980 f i GuOverlapTests.obj
 0001:00025980       ?getCenter@?$RelativeConvex@VCapsuleV@Gu@physx@@@Gu@physx@@UEBA?AT__m128@@XZ 0000000180026980 f i GuCCDSweepPrimitives.obj
 0001:00025980       ?getCenter@?$RelativeConvex@VConvexHullNoScaleV@Gu@physx@@@Gu@physx@@UEBA?AT__m128@@XZ 0000000180026980 f i GuPCMContactConvexConvex.obj
 0001:00025980       ?getCenter@?$RelativeConvex@VConvexHullV@Gu@physx@@@Gu@physx@@UEBA?AT__m128@@XZ 0000000180026980 f i GuOverlapTests.obj
 0001:00025980       ?getCenter@?$RelativeConvex@VTriangleV@Gu@physx@@@Gu@physx@@UEBA?AT__m128@@XZ 0000000180026980 f i GuCCDSweepPrimitives.obj
 0001:000259c0       ??_E?$RelativeConvex@UCustomConvexV@@@Gu@physx@@UEAAPEAXI@Z 00000001800269c0 f i GuGjkQuery.obj
 0001:000259c0       ??_E?$RelativeConvex@VBoxV@Gu@physx@@@Gu@physx@@UEAAPEAXI@Z 00000001800269c0 f i GuOverlapTests.obj
 0001:000259c0       ??_E?$RelativeConvex@VCapsuleV@Gu@physx@@@Gu@physx@@UEAAPEAXI@Z 00000001800269c0 f i GuCCDSweepPrimitives.obj
 0001:000259c0       ??_E?$RelativeConvex@VConvexHullNoScaleV@Gu@physx@@@Gu@physx@@UEAAPEAXI@Z 00000001800269c0 f i GuPCMContactConvexConvex.obj
 0001:000259c0       ??_E?$RelativeConvex@VConvexHullV@Gu@physx@@@Gu@physx@@UEAAPEAXI@Z 00000001800269c0 f i GuOverlapTests.obj
 0001:000259c0       ??_E?$RelativeConvex@VTriangleV@Gu@physx@@@Gu@physx@@UEAAPEAXI@Z 00000001800269c0 f i GuCCDSweepPrimitives.obj
 0001:000259c0       ??_G?$RelativeConvex@UCustomConvexV@@@Gu@physx@@UEAAPEAXI@Z 00000001800269c0 f i GuGjkQuery.obj
 0001:000259c0       ??_G?$RelativeConvex@VBoxV@Gu@physx@@@Gu@physx@@UEAAPEAXI@Z 00000001800269c0 f i GuOverlapTests.obj
 0001:000259c0       ??_G?$RelativeConvex@VCapsuleV@Gu@physx@@@Gu@physx@@UEAAPEAXI@Z 00000001800269c0 f i GuCCDSweepPrimitives.obj
 0001:000259c0       ??_G?$RelativeConvex@VConvexHullNoScaleV@Gu@physx@@@Gu@physx@@UEAAPEAXI@Z 00000001800269c0 f i GuPCMContactConvexConvex.obj
 0001:000259c0       ??_G?$RelativeConvex@VConvexHullV@Gu@physx@@@Gu@physx@@UEAAPEAXI@Z 00000001800269c0 f i GuOverlapTests.obj
 0001:000259c0       ??_G?$RelativeConvex@VTriangleV@Gu@physx@@@Gu@physx@@UEAAPEAXI@Z 00000001800269c0 f i GuCCDSweepPrimitives.obj
 0001:00027b70       ?supportPoint@?$RelativeConvex@VConvexHullV@Gu@physx@@@Gu@physx@@UEBA?AT__m128@@H@Z 0000000180028b70 f i GuOverlapTests.obj
 0001:00027bf0       ?support@?$RelativeConvex@VConvexHullV@Gu@physx@@@Gu@physx@@UEBA?AT__m128@@AEBT4@@Z 0000000180028bf0 f i GuOverlapTests.obj
 0001:00027d20       ?support@?$RelativeConvex@VConvexHullV@Gu@physx@@@Gu@physx@@UEBA?AT__m128@@AEBT4@AEAH@Z 0000000180028d20 f i GuOverlapTests.obj
 0001:00027eb0       ??$gjk@U?$RelativeConvex@VBoxV@Gu@physx@@@Gu@physx@@U?$LocalConvex@VConvexHullV@Gu@physx@@@23@@Gu@physx@@YA?AW4GjkStatus@01@AEBU?$RelativeConvex@VBoxV@Gu@physx@@@01@AEBU?$LocalConvex@VConvexHullV@Gu@physx@@@01@AEBT__m128@@2AEAT5@333@Z 0000000180028eb0 f i GuOverlapTests.obj
 0001:00028c60       ??$gjk@U?$RelativeConvex@VConvexHullV@Gu@physx@@@Gu@physx@@U?$LocalConvex@VConvexHullV@Gu@physx@@@23@@Gu@physx@@YA?AW4GjkStatus@01@AEBU?$RelativeConvex@VConvexHullV@Gu@physx@@@01@AEBU?$LocalConvex@VConvexHullV@Gu@physx@@@01@AEBT__m128@@2AEAT5@333@Z 0000000180029c60 f i GuOverlapTests.obj
 0001:00029ae0       ?ComputeCubemapNearestOffset@physx@@YAIAEBV?$PxVec3T@M@1@I@Z 000000018002aae0 f i GuOverlapTests.obj
 0001:00029be0       ?getOverlapFuncTable@Gu@physx@@YAPEAY0L@Q6A_NAEBVPxGeometry@2@AEBV?$PxTransformT@M@2@01PEAUTriggerCache@12@PEAUPxQueryThreadContext@2@@ZXZ 000000018002abe0 f   GuOverlapTests.obj
 0001:0002b780       ?raycast_box@@YAIAEBVPxGeometry@physx@@AEBV?$PxTransformT@M@2@AEBV?$PxVec3T@M@2@2MV?$PxFlags@W4Enum@PxHitFlag@physx@@G@2@IPEIAUPxGeomRaycastHit@2@IPEAUPxQueryThreadContext@2@@Z 000000018002c780 f   GuRaycastTests.obj
 0001:0002bdb0       ?raycast_sphere@@YAIAEBVPxGeometry@physx@@AEBV?$PxTransformT@M@2@AEBV?$PxVec3T@M@2@2MV?$PxFlags@W4Enum@PxHitFlag@physx@@G@2@IPEIAUPxGeomRaycastHit@2@IPEAUPxQueryThreadContext@2@@Z 000000018002cdb0 f   GuRaycastTests.obj
 0001:0002bf40       ?raycast_capsule@@YAIAEBVPxGeometry@physx@@AEBV?$PxTransformT@M@2@AEBV?$PxVec3T@M@2@2MV?$PxFlags@W4Enum@PxHitFlag@physx@@G@2@IPEIAUPxGeomRaycastHit@2@IPEAUPxQueryThreadContext@2@@Z 000000018002cf40 f   GuRaycastTests.obj
 0001:0002c4a0       ?raycast_plane@@YAIAEBVPxGeometry@physx@@AEBV?$PxTransformT@M@2@AEBV?$PxVec3T@M@2@2MV?$PxFlags@W4Enum@PxHitFlag@physx@@G@2@IPEIAUPxGeomRaycastHit@2@IPEAUPxQueryThreadContext@2@@Z 000000018002d4a0 f   GuRaycastTests.obj
 0001:0002c610       ?raycast_convexMesh@@YAIAEBVPxGeometry@physx@@AEBV?$PxTransformT@M@2@AEBV?$PxVec3T@M@2@2MV?$PxFlags@W4Enum@PxHitFlag@physx@@G@2@IPEIAUPxGeomRaycastHit@2@IPEAUPxQueryThreadContext@2@@Z 000000018002d610 f   GuRaycastTests.obj
 0001:0002d110       ?getMidphaseID@RTreeTriangleMesh@Gu@physx@@UEBA?AW4Enum@PxMeshMidPhase@3@XZ 000000018002e110 f   GuTriangleMeshRTree.obj
 0001:0002d110       ?getMidphaseID@RTreeTriangleMeshBuilder@physx@@UEBA?AW4Enum@PxMeshMidPhase@2@XZ 000000018002e110 f   GuCookingTriangleMesh.obj
 0001:0002d110       ?getTetrahedraRemap@TetrahedronMesh@Gu@physx@@UEBAPEBIXZ 000000018002e110 f   GuTetrahedronMesh.obj
 0001:0002d110       ?raycast_hairsystem@@YAIAEBVPxGeometry@physx@@AEBV?$PxTransformT@M@2@AEBV?$PxVec3T@M@2@2MV?$PxFlags@W4Enum@PxHitFlag@physx@@G@2@IPEIAUPxGeomRaycastHit@2@IPEAUPxQueryThreadContext@2@@Z 000000018002e110 f   GuRaycastTests.obj
 0001:0002d110       ?raycast_particlesystem@@YAIAEBVPxGeometry@physx@@AEBV?$PxTransformT@M@2@AEBV?$PxVec3T@M@2@2MV?$PxFlags@W4Enum@PxHitFlag@physx@@G@2@IPEIAUPxGeomRaycastHit@2@IPEAUPxQueryThreadContext@2@@Z 000000018002e110 f   GuRaycastTests.obj
 0001:0002d110       ?raycast_softbody@@YAIAEBVPxGeometry@physx@@AEBV?$PxTransformT@M@2@AEBV?$PxVec3T@M@2@2MV?$PxFlags@W4Enum@PxHitFlag@physx@@G@2@IPEIAUPxGeomRaycastHit@2@IPEAUPxQueryThreadContext@2@@Z 000000018002e110 f   GuRaycastTests.obj
 0001:0002d120       ?raycast_triangleMesh@@YAIAEBVPxGeometry@physx@@AEBV?$PxTransformT@M@2@AEBV?$PxVec3T@M@2@2MV?$PxFlags@W4Enum@PxHitFlag@physx@@G@2@IPEIAUPxGeomRaycastHit@2@IPEAUPxQueryThreadContext@2@@Z 000000018002e120 f   GuRaycastTests.obj
 0001:0002d1b0       ?raycast_heightField@@YAIAEBVPxGeometry@physx@@AEBV?$PxTransformT@M@2@AEBV?$PxVec3T@M@2@2MV?$PxFlags@W4Enum@PxHitFlag@physx@@G@2@IPEIAUPxGeomRaycastHit@2@IPEAUPxQueryThreadContext@2@@Z 000000018002e1b0 f   GuRaycastTests.obj
 0001:0002ec00       ??Dphysx@@YA?AV?$PxMat34T@M@0@AEBVPxMeshScale@0@AEBV?$PxTransformT@M@0@@Z 000000018002fc00 f i GuRaycastTests.obj
 0001:0002f6e0       ?getRaycastFuncTable@Gu@physx@@YAAEAY0L@Q6AIAEBVPxGeometry@2@AEBV?$PxTransformT@M@2@AEBV?$PxVec3T@M@2@2MV?$PxFlags@W4Enum@PxHitFlag@physx@@G@2@IPEIAUPxGeomRaycastHit@2@IPEAUPxQueryThreadContext@2@@ZXZ 00000001800306e0 f   GuRaycastTests.obj
 0001:0002f6f0       ??Dphysx@@YA?AV?$PxMat34T@M@0@AEBV?$PxTransformT@M@0@AEBVPxMeshScale@0@@Z 00000001800306f0 f i GuSweepMTD.obj
 0001:0002fc30       ??_E?$MeshHitCallback@UPxGeomRaycastHit@physx@@@Gu@physx@@UEAAPEAXI@Z 0000000180030c30 f i GuSweepMTD.obj
 0001:0002fc30       ??_G?$MeshHitCallback@UPxGeomRaycastHit@physx@@@Gu@physx@@UEAAPEAXI@Z 0000000180030c30 f i GuSweepMTD.obj
 0001:0002fc60       ??_EMeshMTDGenerationCallback@@UEAAPEAXI@Z 0000000180030c60 f i GuSweepMTD.obj
 0001:0002fc60       ??_GMeshMTDGenerationCallback@@UEAAPEAXI@Z 0000000180030c60 f i GuSweepMTD.obj
 0001:0002fc90       ??_EMidPhaseQueryLocalReport@@UEAAPEAXI@Z 0000000180030c90 f i GuSweepMTD.obj
 0001:0002fc90       ??_ERTreeCookerRemap@@UEAAPEAXI@Z 0000000180030c90 f i GuCookingTriangleMesh.obj
 0001:0002fc90       ??_GMidPhaseQueryLocalReport@@UEAAPEAXI@Z 0000000180030c90 f i GuSweepMTD.obj
 0001:0002fc90       ??_GRTreeCookerRemap@@UEAAPEAXI@Z 0000000180030c90 f i GuCookingTriangleMesh.obj
 0001:0002fcc0       ?allocate@?$PxArray@IV?$PxReflectionAllocator@I@physx@@@physx@@IEAAPEAII@Z 0000000180030cc0 f i GuSweepMTD.obj
 0001:0002fd50       ?computeBox_HeightFieldMTD@Gu@physx@@YA_NAEBVPxHeightFieldGeometry@2@AEBV?$PxTransformT@M@2@AEBVBox@12@1M_NAEAUPxGeomSweepHit@2@@Z 0000000180030d50 f   GuSweepMTD.obj
 0001:00030b10       ?computeBox_TriangleMeshMTD@Gu@physx@@YA_NAEBVPxTriangleMeshGeometry@2@AEBV?$PxTransformT@M@2@AEBVBox@12@1M_NAEAUPxGeomSweepHit@2@@Z 0000000180031b10 f   GuSweepMTD.obj
 0001:00031b50       ?computeCapsule_CapsuleMTD@Gu@physx@@YA_NAEBVCapsule@12@0AEAUPxGeomSweepHit@2@@Z 0000000180032b50 f   GuSweepMTD.obj
 0001:00031d90       ?computeCapsule_HeightFieldMTD@Gu@physx@@YA_NAEBVPxHeightFieldGeometry@2@AEBV?$PxTransformT@M@2@AEAVCapsuleV@12@M_NAEAUPxGeomSweepHit@2@@Z 0000000180032d90 f   GuSweepMTD.obj
 0001:00032560       ?computeCapsule_TriangleMeshMTD@Gu@physx@@YA_NAEBVPxTriangleMeshGeometry@2@AEBV?$PxTransformT@M@2@AEAVCapsuleV@12@M_NAEAUPxGeomSweepHit@2@@Z 0000000180033560 f   GuSweepMTD.obj
 0001:00032e10       ?computeConvex_HeightFieldMTD@Gu@physx@@YA_NAEBVPxHeightFieldGeometry@2@AEBV?$PxTransformT@M@2@AEBVPxConvexMeshGeometry@2@1M_NAEAUPxGeomSweepHit@2@@Z 0000000180033e10 f   GuSweepMTD.obj
 0001:000340e0       ?computeConvex_TriangleMeshMTD@Gu@physx@@YA_NAEBVPxTriangleMeshGeometry@2@AEBV?$PxTransformT@M@2@AEBVPxConvexMeshGeometry@2@1M_NAEAUPxGeomSweepHit@2@@Z 00000001800350e0 f   GuSweepMTD.obj
 0001:000356b0       ?computePlane_BoxMTD@Gu@physx@@YA_NAEBVPxPlane@2@AEBVBox@12@AEAUPxGeomSweepHit@2@@Z 00000001800366b0 f   GuSweepMTD.obj
 0001:00035950       ?computePlane_CapsuleMTD@Gu@physx@@YA_NAEBVPxPlane@2@AEBVCapsule@12@AEAUPxGeomSweepHit@2@@Z 0000000180036950 f   GuSweepMTD.obj
 0001:00035a70       ?computePlane_ConvexMTD@Gu@physx@@YA_NAEBVPxPlane@2@AEBVPxConvexMeshGeometry@2@AEBV?$PxTransformT@M@2@AEAUPxGeomSweepHit@2@@Z 0000000180036a70 f   GuSweepMTD.obj
 0001:000365c0       ?computeSphere_CapsuleMTD@Gu@physx@@YA_NAEBVSphere@12@AEBVCapsule@12@AEAUPxGeomSweepHit@2@@Z 00000001800375c0 f   GuSweepMTD.obj
 0001:00036770       ?computeSphere_SphereMTD@Gu@physx@@YA_NAEBVSphere@12@0AEAUPxGeomSweepHit@2@@Z 0000000180037770 f   GuSweepMTD.obj
 0001:00036860       ?getInverse@?$PxMat33T@M@physx@@QEBA?BV12@XZ 0000000180037860 f i GuSweepMTD.obj
 0001:00036ab0       ?growAndPushBack@?$PxArray@IV?$PxReflectionAllocator@I@physx@@@physx@@IEAAAEAIAEBI@Z 0000000180037ab0 f i GuSweepMTD.obj
 0001:00036b70       ?init@FastVertex2ShapeScaling@Cm@physx@@QEAAXAEBV?$PxVec3T@M@3@AEBV?$PxQuatT@M@3@@Z 0000000180037b70 f i GuSweepMTD.obj
 0001:00037460       ?processHit@MeshMTDGenerationCallback@@UEAA_NAEBUPxGeomRaycastHit@physx@@AEBV?$PxVec3T@M@3@11AEAMPEBI@Z 0000000180038460 f i GuSweepMTD.obj
 0001:000374b0       ?recreate@?$PxArray@IV?$PxReflectionAllocator@I@physx@@@physx@@IEAAXI@Z 00000001800384b0 f i GuSweepMTD.obj
 0001:00037550       ?reportTouchedTris@MidPhaseQueryLocalReport@@UEAA_NIPEBI@Z 0000000180038550 f i GuSweepMTD.obj
 0001:000375c0       ??$gjkPenetration@U?$LocalConvex@VCapsuleV@Gu@physx@@@Gu@physx@@U?$LocalConvex@VConvexHullV@Gu@physx@@@23@@Gu@physx@@YA?AW4GjkStatus@01@AEBU?$LocalConvex@VCapsuleV@Gu@physx@@@01@AEBU?$LocalConvex@VConvexHullV@Gu@physx@@@01@AEBT__m128@@2_NPEIAE4AEAEAEAUGjkOutput@01@@Z 00000001800385c0 f i GuSweepSharedTests.obj
 0001:00037630       ??$gjkPenetration@U?$LocalConvex@VCapsuleV@Gu@physx@@@Gu@physx@@U?$LocalConvex@VConvexHullV@Gu@physx@@@23@@Gu@physx@@YA?AW4GjkStatus@01@AEBU?$LocalConvex@VCapsuleV@Gu@physx@@@01@AEBU?$LocalConvex@VConvexHullV@Gu@physx@@@01@AEBT__m128@@2_NPEIAE4PEIAT5@5AEAEAEAUGjkOutput@01@@Z 0000000180038630 f i GuSweepSharedTests.obj
 0001:00038b60       ??$gjkPenetration@U?$RelativeConvex@VBoxV@Gu@physx@@@Gu@physx@@U?$LocalConvex@VConvexHullV@Gu@physx@@@23@@Gu@physx@@YA?AW4GjkStatus@01@AEBU?$RelativeConvex@VBoxV@Gu@physx@@@01@AEBU?$LocalConvex@VConvexHullV@Gu@physx@@@01@AEBT__m128@@2_NPEIAE4AEAEAEAUGjkOutput@01@@Z 0000000180039b60 f i GuSweepSharedTests.obj
 0001:00038bd0       ??$gjkPenetration@U?$RelativeConvex@VBoxV@Gu@physx@@@Gu@physx@@U?$LocalConvex@VConvexHullV@Gu@physx@@@23@@Gu@physx@@YA?AW4GjkStatus@01@AEBU?$RelativeConvex@VBoxV@Gu@physx@@@01@AEBU?$LocalConvex@VConvexHullV@Gu@physx@@@01@AEBT__m128@@2_NPEIAE4PEIAT5@5AEAEAEAUGjkOutput@01@@Z 0000000180039bd0 f i GuSweepSharedTests.obj
 0001:0003a140       ??$gjkPenetration@U?$RelativeConvex@VConvexHullV@Gu@physx@@@Gu@physx@@U?$LocalConvex@VConvexHullV@Gu@physx@@@23@@Gu@physx@@YA?AW4GjkStatus@01@AEBU?$RelativeConvex@VConvexHullV@Gu@physx@@@01@AEBU?$LocalConvex@VConvexHullV@Gu@physx@@@01@AEBT__m128@@2_NPEIAE4AEAEAEAUGjkOutput@01@@Z 000000018003b140 f i GuSweepSharedTests.obj
 0001:0003a1b0       ??$gjkPenetration@U?$RelativeConvex@VConvexHullV@Gu@physx@@@Gu@physx@@U?$LocalConvex@VConvexHullV@Gu@physx@@@23@@Gu@physx@@YA?AW4GjkStatus@01@AEBU?$RelativeConvex@VConvexHullV@Gu@physx@@@01@AEBU?$LocalConvex@VConvexHullV@Gu@physx@@@01@AEBT__m128@@2_NPEIAE4PEIAT5@5AEAEAEAUGjkOutput@01@@Z 000000018003b1b0 f i GuSweepSharedTests.obj
 0001:0003b7d0       ??$gjkRaycast@U?$LocalConvex@VCapsuleV@Gu@physx@@@Gu@physx@@U?$LocalConvex@VConvexHullV@Gu@physx@@@23@@Gu@physx@@YA_NAEBU?$LocalConvex@VCapsuleV@Gu@physx@@@01@AEBU?$LocalConvex@VConvexHullV@Gu@physx@@@01@AEBT__m128@@222AEAT4@33M@Z 000000018003c7d0 f i GuSweepSharedTests.obj
 0001:0003c520       ??$gjkRaycast@U?$RelativeConvex@VBoxV@Gu@physx@@@Gu@physx@@U?$LocalConvex@VConvexHullV@Gu@physx@@@23@@Gu@physx@@YA_NAEBU?$RelativeConvex@VBoxV@Gu@physx@@@01@AEBU?$LocalConvex@VConvexHullV@Gu@physx@@@01@AEBT__m128@@222AEAT4@33M@Z 000000018003d520 f i GuSweepSharedTests.obj
 0001:0003d310       ??$gjkRaycast@U?$RelativeConvex@VConvexHullV@Gu@physx@@@Gu@physx@@U?$LocalConvex@VConvexHullV@Gu@physx@@@23@@Gu@physx@@YA_NAEBU?$RelativeConvex@VConvexHullV@Gu@physx@@@01@AEBU?$LocalConvex@VConvexHullV@Gu@physx@@@01@AEBT__m128@@222AEAT4@33M@Z 000000018003e310 f i GuSweepSharedTests.obj
 0001:0003e0f0       ??$gjkRaycastPenetration@U?$RelativeConvex@VConvexHullV@Gu@physx@@@Gu@physx@@U?$LocalConvex@VConvexHullV@Gu@physx@@@23@@Gu@physx@@YA_NAEBU?$RelativeConvex@VConvexHullV@Gu@physx@@@01@AEBU?$LocalConvex@VConvexHullV@Gu@physx@@@01@AEBT__m128@@222AEAT4@33M_N@Z 000000018003f0f0 f i GuSweepSharedTests.obj
 0001:0003ecc0       ?sweepBox_ConvexGeom@@YA_NAEBVPxGeometry@physx@@AEBV?$PxTransformT@M@2@AEBVPxBoxGeometry@2@1AEBVBox@Gu@2@AEBV?$PxVec3T@M@2@MAEAUPxGeomSweepHit@2@V?$PxFlags@W4Enum@PxHitFlag@physx@@G@2@MPEAUPxQueryThreadContext@2@@Z 000000018003fcc0 f   GuSweepSharedTests.obj
 0001:0003fae0       ?sweepBox_PlaneGeom@@YA_NAEBVPxGeometry@physx@@AEBV?$PxTransformT@M@2@AEBVPxBoxGeometry@2@1AEBVBox@Gu@2@AEBV?$PxVec3T@M@2@MAEAUPxGeomSweepHit@2@V?$PxFlags@W4Enum@PxHitFlag@physx@@G@2@MPEAUPxQueryThreadContext@2@@Z 0000000180040ae0 f   GuSweepSharedTests.obj
 0001:0003feb0       ?sweepCapsuleTriangles@Gu@physx@@YA_NIPEBVPxTriangle@2@_NAEBVPxCapsuleGeometry@2@AEBV?$PxTransformT@M@2@AEBV?$PxVec3T@M@2@MAEAUPxGeomSweepHit@2@PEBIMV?$PxFlags@W4Enum@PxHitFlag@physx@@G@2@@Z 0000000180040eb0 f   GuSweepSharedTests.obj
 0001:000400a0       ?sweepCapsule_CapsuleGeom@@YA_NAEBVPxGeometry@physx@@AEBV?$PxTransformT@M@2@AEBVPxCapsuleGeometry@2@1AEBVCapsule@Gu@2@AEBV?$PxVec3T@M@2@MAEAUPxGeomSweepHit@2@V?$PxFlags@W4Enum@PxHitFlag@physx@@G@2@MPEAUPxQueryThreadContext@2@@Z 00000001800410a0 f   GuSweepSharedTests.obj
 0001:00040280       ?sweepCapsule_ConvexGeom@@YA_NAEBVPxGeometry@physx@@AEBV?$PxTransformT@M@2@AEBVPxCapsuleGeometry@2@1AEBVCapsule@Gu@2@AEBV?$PxVec3T@M@2@MAEAUPxGeomSweepHit@2@V?$PxFlags@W4Enum@PxHitFlag@physx@@G@2@MPEAUPxQueryThreadContext@2@@Z 0000000180041280 f   GuSweepSharedTests.obj
 0001:00040fb0       ?sweepCapsule_PlaneGeom@@YA_NAEBVPxGeometry@physx@@AEBV?$PxTransformT@M@2@AEBVPxCapsuleGeometry@2@1AEBVCapsule@Gu@2@AEBV?$PxVec3T@M@2@MAEAUPxGeomSweepHit@2@V?$PxFlags@W4Enum@PxHitFlag@physx@@G@2@MPEAUPxQueryThreadContext@2@@Z 0000000180041fb0 f   GuSweepSharedTests.obj
 0001:00041290       ?sweepCapsule_SphereGeom@@YA_NAEBVPxGeometry@physx@@AEBV?$PxTransformT@M@2@AEBVPxCapsuleGeometry@2@1AEBVCapsule@Gu@2@AEBV?$PxVec3T@M@2@MAEAUPxGeomSweepHit@2@V?$PxFlags@W4Enum@PxHitFlag@physx@@G@2@MPEAUPxQueryThreadContext@2@@Z 0000000180042290 f   GuSweepSharedTests.obj
 0001:00041430       ?sweepConvex_BoxGeom@@YA_NAEBVPxGeometry@physx@@AEBV?$PxTransformT@M@2@AEBVPxConvexMeshGeometry@2@1AEBV?$PxVec3T@M@2@MAEAUPxGeomSweepHit@2@V?$PxFlags@W4Enum@PxHitFlag@physx@@G@2@MPEAUPxQueryThreadContext@2@@Z 0000000180042430 f   GuSweepSharedTests.obj
 0001:00041650       ?sweepConvex_CapsuleGeom@@YA_NAEBVPxGeometry@physx@@AEBV?$PxTransformT@M@2@AEBVPxConvexMeshGeometry@2@1AEBV?$PxVec3T@M@2@MAEAUPxGeomSweepHit@2@V?$PxFlags@W4Enum@PxHitFlag@physx@@G@2@MPEAUPxQueryThreadContext@2@@Z 0000000180042650 f   GuSweepSharedTests.obj
 0001:00041880       ?sweepConvex_ConvexGeom@@YA_NAEBVPxGeometry@physx@@AEBV?$PxTransformT@M@2@AEBVPxConvexMeshGeometry@2@1AEBV?$PxVec3T@M@2@MAEAUPxGeomSweepHit@2@V?$PxFlags@W4Enum@PxHitFlag@physx@@G@2@MPEAUPxQueryThreadContext@2@@Z 0000000180042880 f   GuSweepSharedTests.obj
 0001:00042850       ?sweepConvex_PlaneGeom@@YA_NAEBVPxGeometry@physx@@AEBV?$PxTransformT@M@2@AEBVPxConvexMeshGeometry@2@1AEBV?$PxVec3T@M@2@MAEAUPxGeomSweepHit@2@V?$PxFlags@W4Enum@PxHitFlag@physx@@G@2@MPEAUPxQueryThreadContext@2@@Z 0000000180043850 f   GuSweepSharedTests.obj
 0001:00042c90       ?sweepConvex_SphereGeom@@YA_NAEBVPxGeometry@physx@@AEBV?$PxTransformT@M@2@AEBVPxConvexMeshGeometry@2@1AEBV?$PxVec3T@M@2@MAEAUPxGeomSweepHit@2@V?$PxFlags@W4Enum@PxHitFlag@physx@@G@2@MPEAUPxQueryThreadContext@2@@Z 0000000180043c90 f   GuSweepSharedTests.obj
 0001:00043890       ?sweepCapsule_BoxGeom@@YA_NAEBVPxGeometry@physx@@AEBV?$PxTransformT@M@2@AEBVPxCapsuleGeometry@2@1AEBVCapsule@Gu@2@AEBV?$PxVec3T@M@2@MAEAUPxGeomSweepHit@2@V?$PxFlags@W4Enum@PxHitFlag@physx@@G@2@MPEAUPxQueryThreadContext@2@@Z 0000000180044890 f   GuSweepTests.obj
 0001:00044140       ?sweepBox_SphereGeom@@YA_NAEBVPxGeometry@physx@@AEBV?$PxTransformT@M@2@AEBVPxBoxGeometry@2@1AEBVBox@Gu@2@AEBV?$PxVec3T@M@2@MAEAUPxGeomSweepHit@2@V?$PxFlags@W4Enum@PxHitFlag@physx@@G@2@MPEAUPxQueryThreadContext@2@@Z 0000000180045140 f   GuSweepTests.obj
 0001:00044820       ?sweepBox_CapsuleGeom@@YA_NAEBVPxGeometry@physx@@AEBV?$PxTransformT@M@2@AEBVPxBoxGeometry@2@1AEBVBox@Gu@2@AEBV?$PxVec3T@M@2@MAEAUPxGeomSweepHit@2@V?$PxFlags@W4Enum@PxHitFlag@physx@@G@2@MPEAUPxQueryThreadContext@2@@Z 0000000180045820 f   GuSweepTests.obj
 0001:000450f0       ?sweepBox_BoxGeom@@YA_NAEBVPxGeometry@physx@@AEBV?$PxTransformT@M@2@AEBVPxBoxGeometry@2@1AEBVBox@Gu@2@AEBV?$PxVec3T@M@2@MAEAUPxGeomSweepHit@2@V?$PxFlags@W4Enum@PxHitFlag@physx@@G@2@MPEAUPxQueryThreadContext@2@@Z 00000001800460f0 f   GuSweepTests.obj
 0001:00045af0       ??$gjkPenetration@U?$LocalConvex@VCapsuleV@Gu@physx@@@Gu@physx@@U?$LocalConvex@VBoxV@Gu@physx@@@23@@Gu@physx@@YA?AW4GjkStatus@01@AEBU?$LocalConvex@VCapsuleV@Gu@physx@@@01@AEBU?$LocalConvex@VBoxV@Gu@physx@@@01@AEBT__m128@@2_NPEIAE4AEAEAEAUGjkOutput@01@@Z 0000000180046af0 f i GuSweepTests.obj
 0001:00045b60       ??$gjkPenetration@U?$LocalConvex@VCapsuleV@Gu@physx@@@Gu@physx@@U?$LocalConvex@VBoxV@Gu@physx@@@23@@Gu@physx@@YA?AW4GjkStatus@01@AEBU?$LocalConvex@VCapsuleV@Gu@physx@@@01@AEBU?$LocalConvex@VBoxV@Gu@physx@@@01@AEBT__m128@@2_NPEIAE4PEIAT5@5AEAEAEAUGjkOutput@01@@Z 0000000180046b60 f i GuSweepTests.obj
 0001:00046fe0       ??$gjkPenetration@U?$RelativeConvex@VBoxV@Gu@physx@@@Gu@physx@@U?$LocalConvex@VBoxV@Gu@physx@@@23@@Gu@physx@@YA?AW4GjkStatus@01@AEBU?$RelativeConvex@VBoxV@Gu@physx@@@01@AEBU?$LocalConvex@VBoxV@Gu@physx@@@01@AEBT__m128@@2_NPEIAE4AEAEAEAUGjkOutput@01@@Z 0000000180047fe0 f i GuSweepTests.obj
 0001:00047050       ??$gjkPenetration@U?$RelativeConvex@VBoxV@Gu@physx@@@Gu@physx@@U?$LocalConvex@VBoxV@Gu@physx@@@23@@Gu@physx@@YA?AW4GjkStatus@01@AEBU?$RelativeConvex@VBoxV@Gu@physx@@@01@AEBU?$LocalConvex@VBoxV@Gu@physx@@@01@AEBT__m128@@2_NPEIAE4PEIAT5@5AEAEAEAUGjkOutput@01@@Z 0000000180048050 f i GuSweepTests.obj
 0001:00048500       ??$gjkRaycast@U?$LocalConvex@VCapsuleV@Gu@physx@@@Gu@physx@@U?$LocalConvex@VBoxV@Gu@physx@@@23@@Gu@physx@@YA_NAEBU?$LocalConvex@VCapsuleV@Gu@physx@@@01@AEBU?$LocalConvex@VBoxV@Gu@physx@@@01@AEBT__m128@@222AEAT4@33M@Z 0000000180049500 f i GuSweepTests.obj
 0001:000490d0       ??$gjkRaycast@U?$LocalConvex@VTriangleV@Gu@physx@@@Gu@physx@@U?$LocalConvex@VBoxV@Gu@physx@@@23@@Gu@physx@@YA_NAEBU?$LocalConvex@VTriangleV@Gu@physx@@@01@AEBU?$LocalConvex@VBoxV@Gu@physx@@@01@AEBT__m128@@222AEAT4@33M@Z 000000018004a0d0 f i GuSweepTests.obj
 0001:00049d20       ??$gjkRaycast@U?$RelativeConvex@VBoxV@Gu@physx@@@Gu@physx@@U?$LocalConvex@VBoxV@Gu@physx@@@23@@Gu@physx@@YA_NAEBU?$RelativeConvex@VBoxV@Gu@physx@@@01@AEBU?$LocalConvex@VBoxV@Gu@physx@@@01@AEBT__m128@@222AEAT4@33M@Z 000000018004ad20 f i GuSweepTests.obj
 0001:0004a950       ?getSweepFuncTable@Gu@physx@@YAAEBUGeomSweepFuncs@12@XZ 000000018004b950 f   GuSweepTests.obj
 0001:0004a960       ?getSweepMargin@?$LocalConvex@VTetrahedronV@Gu@physx@@@Gu@physx@@UEBA?AT__m128@@XZ 000000018004b960 f i GuCookingTetrahedronMesh.obj
 0001:0004a960       ?getSweepMargin@?$LocalConvex@VTriangleV@Gu@physx@@@Gu@physx@@UEBA?AT__m128@@XZ 000000018004b960 f i GuSweepTests.obj
 0001:0004a960       ?getSweepMargin@?$RelativeConvex@VTriangleV@Gu@physx@@@Gu@physx@@UEBA?AT__m128@@XZ 000000018004b960 f i GuCCDSweepPrimitives.obj
 0001:0004a970       ?support@?$LocalConvex@VBoxV@Gu@physx@@@Gu@physx@@UEBA?AT__m128@@AEBT4@@Z 000000018004b970 f i GuSweepTests.obj
 0001:0004a9a0       ?support@?$LocalConvex@VBoxV@Gu@physx@@@Gu@physx@@UEBA?AT__m128@@AEBT4@AEAH@Z 000000018004b9a0 f i GuSweepTests.obj
 0001:0004a9e0       ?support@?$LocalConvex@VTriangleV@Gu@physx@@@Gu@physx@@UEBA?AT__m128@@AEBT4@@Z 000000018004b9e0 f i GuSweepTests.obj
 0001:0004aa70       ?support@?$LocalConvex@VTriangleV@Gu@physx@@@Gu@physx@@UEBA?AT__m128@@AEBT4@AEAH@Z 000000018004ba70 f i GuSweepTests.obj
 0001:0004ab50       ?supportPoint@?$LocalConvex@VBoxV@Gu@physx@@@Gu@physx@@UEBA?AT__m128@@H@Z 000000018004bb50 f i GuSweepTests.obj
 0001:0004ab90       ?supportPoint@?$LocalConvex@VTetrahedronV@Gu@physx@@@Gu@physx@@UEBA?AT__m128@@H@Z 000000018004bb90 f i GuCookingTetrahedronMesh.obj
 0001:0004ab90       ?supportPoint@?$LocalConvex@VTriangleV@Gu@physx@@@Gu@physx@@UEBA?AT__m128@@H@Z 000000018004bb90 f i GuSweepTests.obj
 0001:0004abb0       ?sweepBoxTriangles@Gu@physx@@YA_NIPEBVPxTriangle@2@_NAEBVPxBoxGeometry@2@AEBV?$PxTransformT@M@2@AEBV?$PxVec3T@M@2@MAEAUPxGeomSweepHit@2@PEBIMV?$PxFlags@W4Enum@PxHitFlag@physx@@G@2@@Z 000000018004bbb0 f   GuSweepTests.obj
 0001:0004b620       ??$PxSmallSort@H$$CBU?$Comparer@V?$PxVec3T@M@physx@@@MeshAnalyzer@Gu@physx@@@physx@@YAXPEAHHHAEBU?$Comparer@V?$PxVec3T@M@physx@@@MeshAnalyzer@Gu@0@@Z 000000018004c620 f i GuSDF.obj
 0001:0004b840       ??$PxSort@HU?$Comparer@V?$PxVec3T@M@physx@@@MeshAnalyzer@Gu@physx@@V?$PxReflectionAllocator@H@4@@physx@@YAXPEAHIAEBU?$Comparer@V?$PxVec3T@M@physx@@@MeshAnalyzer@Gu@0@AEBV?$PxReflectionAllocator@H@0@I@Z 000000018004c840 f i GuSDF.obj
 0001:0004bcc0       ??$PxSort@HU?$PxLess@H@physx@@V?$PxReflectionAllocator@H@2@@physx@@YAXPEAHIAEBU?$PxLess@H@0@AEBV?$PxReflectionAllocator@H@0@I@Z 000000018004ccc0 f i GuSDF.obj
 0001:0004c110       ??$copy@V?$PxReflectionAllocator@I@physx@@@?$PxArray@IV?$PxReflectionAllocator@I@physx@@@physx@@IEAAXAEBV01@@Z 000000018004d110 f i GuSDF.obj
 0001:0004c180       ??$copy@V?$PxReflectionAllocator@M@physx@@@?$PxArray@MV?$PxReflectionAllocator@M@physx@@@physx@@IEAAXAEBV01@@Z 000000018004d180 f i GuSDF.obj
 0001:0004c1e0       ??$copy@V?$PxReflectionAllocator@V?$PxVec3T@M@physx@@@physx@@@?$PxArray@V?$PxVec3T@M@physx@@V?$PxReflectionAllocator@V?$PxVec3T@M@physx@@@2@@physx@@IEAAXAEBV01@@Z 000000018004d1e0 f i GuSDF.obj
 0001:0004c240       ??$mapDuplicatePoints@V?$PxVec3T@M@physx@@M@MeshAnalyzer@Gu@physx@@SAXPEBV?$PxVec3T@M@2@IAEAV?$PxArray@HV?$PxReflectionAllocator@H@physx@@@2@M@Z 000000018004d240 f i GuSDF.obj
 0001:0004c5c0       ??$splitRanges@V?$PxVec3T@M@physx@@M@MeshAnalyzer@Gu@physx@@CAXAEAV?$PxArray@URange@MeshAnalyzer@Gu@physx@@V?$PxReflectionAllocator@URange@MeshAnalyzer@Gu@physx@@@4@@2@AEBV?$PxArray@HV?$PxReflectionAllocator@H@physx@@@2@PEBV?$PxVec3T@M@2@HM@Z 000000018004d5c0 f i GuSDF.obj
 0001:0004c830       ??$traverseBVH@VClosestDistanceToTrimeshTraversalController@Gu@physx@@@Gu@physx@@YAXPEBUBVHNode@01@AEAVClosestDistanceToTrimeshTraversalController@01@H@Z 000000018004d830 f i GuSDF.obj
 0001:0004cc20       ??$traverseBVH@VLineSegmentTrimeshIntersectionTraversalController@Gu@physx@@@Gu@physx@@YAXPEBUBVHNode@01@AEAVLineSegmentTrimeshIntersectionTraversalController@01@H@Z 000000018004dc20 f i GuSDF.obj
 0001:0004d120       ??0CellToPoint@Gu@physx@@QEAA@I@Z 000000018004e120 f i GuSDF.obj
 0001:0004d220       ??0IsosurfaceThreadData@Gu@physx@@QEAA@AEBU012@@Z 000000018004e220 f i GuSDF.obj
 0001:0004d2a0       ??1CellToPoint@Gu@physx@@QEAA@XZ 000000018004e2a0 f i GuSDF.obj
 0001:0004d380       ??1IsosurfaceThreadData@Gu@physx@@QEAA@XZ 000000018004e380 f i GuSDF.obj
 0001:0004d430       ??1SDF@Gu@physx@@QEAA@XZ   000000018004e430 f   GuSDF.obj
 0001:0004d4d0       ??_E?$PxThreadT@V?$PxReflectionAllocator@VPxThreadImpl@physx@@@physx@@@physx@@UEAAPEAXI@Z 000000018004e4d0 f i GuSDF.obj
 0001:0004d4d0       ??_G?$PxThreadT@V?$PxReflectionAllocator@VPxThreadImpl@physx@@@physx@@@physx@@UEAAPEAXI@Z 000000018004e4d0 f i GuSDF.obj
 0001:0004d580       ??_EPxRunnable@physx@@UEAAPEAXI@Z 000000018004e580 f i GuSDF.obj
 0001:0004d580       ??_GPxRunnable@physx@@UEAAPEAXI@Z 000000018004e580 f i GuSDF.obj
 0001:0004d5b0       ?PxCreatePointOntoTriangleMeshProjector@Gu@physx@@YAPEAVPxPointOntoTriangleMeshProjector@12@PEBV?$PxVec3T@M@2@PEBII@Z 000000018004e5b0 f   GuSDF.obj
 0001:0004d6b0       ?SDFUsingWindingNumbers@Gu@physx@@YAXAEAV?$PxArray@UBVHNode@Gu@physx@@V?$PxReflectionAllocator@UBVHNode@Gu@physx@@@3@@2@AEAV?$PxHashMap@IU?$ClusterApproximationT@MV?$PxVec3T@M@physx@@@Gu@physx@@U?$PxHash@I@3@VPxAllocator@3@@2@PEBV?$PxVec3T@M@2@PEBIIIIIPEAMAEAUGridQueryPointSampler@12@PEAV52@I_N7@Z 000000018004e6b0 f   GuSDF.obj
 0001:0004dbd0       ?SDFUsingWindingNumbers@Gu@physx@@YAXPEBV?$PxVec3T@M@2@PEBIIIIIPEAMV32@3PEAV32@_NIPEAVPxSDFBuilder@2@@Z 000000018004ebd0 f   GuSDF.obj
 0001:0004e0a0       ?SDFUsingWindingNumbersSparse@Gu@physx@@YAXPEBV?$PxVec3T@M@2@PEBIIIIIAEBV32@2MIAEAV?$PxArray@MV?$PxReflectionAllocator@M@physx@@@2@AEAV?$PxArray@IV?$PxReflectionAllocator@I@physx@@@2@33AEAM5IPEAVPxSDFBuilder@2@@Z 000000018004f0a0 f   GuSDF.obj
 0001:0004eb30       ?allocate@?$PxArray@HV?$PxInlineAllocator@$0EAA@V?$PxReflectionAllocator@H@physx@@@physx@@@physx@@IEAAPEAHI@Z 000000018004fb30 f i GuSDF.obj
 0001:0004ebf0       ?allocate@?$PxArray@MV?$PxReflectionAllocator@M@physx@@@physx@@IEAAPEAMI@Z 000000018004fbf0 f i GuSDF.obj
 0001:0004ec80       ?allocate@?$PxArray@V?$PxVec3T@M@physx@@V?$PxReflectionAllocator@V?$PxVec3T@M@physx@@@2@@physx@@IEAAPEAV?$PxVec3T@M@2@I@Z 000000018004fc80 f i GuSDF.obj
 0001:0004ed20       ?allocateSdfs@SDF@Gu@physx@@QEAAPEAMAEBV?$PxVec3T@M@3@AEBMIIIIIIIMMI@Z 000000018004fd20 f   GuSDF.obj
 0001:0004ef30       ?analyzeAndFixMesh@Gu@physx@@YAXPEBV?$PxVec3T@M@2@PEBIIAEAV?$PxArray@IV?$PxReflectionAllocator@I@physx@@@2@@Z 000000018004ff30 f   GuSDF.obj
 0001:0004f780       ?buildTree@Gu@physx@@YAXPEBIIPEBV?$PxVec3T@M@2@AEAV?$PxArray@UBVHNode@Gu@physx@@V?$PxReflectionAllocator@UBVHNode@Gu@physx@@@3@@2@M@Z 0000000180050780 f   GuSDF.obj
 0001:0004f9b0       ?computeIsosurfaceTrianglesThreadJob@Gu@physx@@YAPEAXPEAX@Z 00000001800509b0 f   GuSDF.obj
 0001:0004fd80       ?computeIsosurfaceVerticesThreadJob@Gu@physx@@YAPEAXPEAX@Z 0000000180050d80 f   GuSDF.obj
 0001:00050270       ?computeSDFThreadJob@Gu@physx@@YAPEAXPEAX@Z 0000000180051270 f   GuSDF.obj
 0001:00050d20       ?convertSparseSDFTo3DTextureLayout@Gu@physx@@YAXIIIIPEAIPEBMIAEAV?$PxArray@MV?$PxReflectionAllocator@M@physx@@@2@AEAI33@Z 0000000180051d20 f   GuSDF.obj
 0001:000510d0       ?copy@?$PxArray@MV?$PxReflectionAllocator@M@physx@@@physx@@KAXPEAM0PEBM@Z 00000001800520d0 f i GuSDF.obj
 0001:00051130       ?copy@?$PxArray@V?$PxVec3T@M@physx@@V?$PxReflectionAllocator@V?$PxVec3T@M@physx@@@2@@physx@@KAXPEAV?$PxVec3T@M@2@0PEBV32@@Z 0000000180052130 f i GuSDF.obj
 0001:00051200       ?create@?$PxHashBase@V?$PxPair@$$CBUSortedTriangle@Gu@physx@@H@physx@@USortedTriangle@Gu@2@UTriangleHash@42@UGetKey@?$PxHashMapBase@USortedTriangle@Gu@physx@@HUTriangleHash@23@VPxAllocator@3@@2@VPxAllocator@2@$00@physx@@QEAAPEAV?$PxPair@$$CBUSortedTriangle@Gu@physx@@H@2@AEBUSortedTriangle@Gu@2@AEA_N@Z 0000000180052200 f i GuSDF.obj
 0001:00051330       ?create@?$PxHashBase@V?$PxPair@$$CB_KH@physx@@_KU?$PxHash@_K@2@UGetKey@?$PxHashMapBase@_KHU?$PxHash@_K@physx@@VPxAllocator@2@@2@VPxAllocator@2@$00@physx@@QEAAPEAV?$PxPair@$$CB_KH@2@AEB_KAEA_N@Z 0000000180052330 f i GuMeshAnalysis.obj
 0001:00051330       ?create@?$PxHashBase@V?$PxPair@$$CB_KI@physx@@_KU?$PxHash@_K@2@UGetKey@?$PxHashMapBase@_KIU?$PxHash@_K@physx@@VPxAllocator@2@@2@VPxAllocator@2@$00@physx@@QEAAPEAV?$PxPair@$$CB_KI@2@AEB_KAEA_N@Z 0000000180052330 f i GuSDF.obj
 0001:000514c0       ?createTriangles@Gu@physx@@YAXHHHMQEAMAEBUCellToPoint@12@AEBV?$PxArray@V?$PxVec3T@M@physx@@V?$PxReflectionAllocator@V?$PxVec3T@M@physx@@@2@@2@AEAV?$PxArray@IV?$PxReflectionAllocator@I@physx@@@2@@Z 00000001800524c0 f i GuSDF.obj
 0001:00051d80       ?decodeDense@SDF@Gu@physx@@QEBAMHHH@Z 0000000180052d80 f   GuSDF.obj
 0001:00051dd0       ?decodeSparse2@Gu@physx@@YAMAEBVSDF@12@HHH@Z 0000000180052dd0 f i GuSDF.obj
 0001:00052080       ?decodeSparse@SDF@Gu@physx@@QEBAMHHH@Z 0000000180053080 f   GuSDF.obj
 0001:00052090       ?exportExtraData@SDF@Gu@physx@@QEAAXAEAVPxSerializationContext@3@@Z 0000000180053090 f   GuSDF.obj
 0001:00052130       ?extractIsosurfaceFromSDF@Gu@physx@@YAXAEBVSDF@12@AEAV?$PxArray@V?$PxVec3T@M@physx@@V?$PxReflectionAllocator@V?$PxVec3T@M@physx@@@2@@2@AEAV?$PxArray@IV?$PxReflectionAllocator@I@physx@@@2@I@Z 0000000180053130 f   GuSDF.obj
 0001:00052a30       ?extractIsosurfaceFromSDFSerial@Gu@physx@@YAXAEBVSDF@12@AEAV?$PxArray@V?$PxVec3T@M@physx@@V?$PxReflectionAllocator@V?$PxVec3T@M@physx@@@2@@2@AEAV?$PxArray@IV?$PxReflectionAllocator@I@physx@@@2@@Z 0000000180053a30 f   GuSDF.obj
 0001:00053720       ?find@CellToPoint@Gu@physx@@QEBAPEBV?$PxPair@$$CB_KI@3@HHH@Z 0000000180054720 f i GuSDF.obj
 0001:00053830       ?fixSdfForNonClosedGeometry@Gu@physx@@YAXIIIPEAMAEBV?$PxVec3T@M@2@@Z 0000000180054830 f   GuSDF.obj
 0001:00054910       ?generatePointInCell@Gu@physx@@YA_NAEBVSDF@12@HHHAEAV?$PxVec3T@M@2@QEAY111M@Z 0000000180055910 f   GuSDF.obj
 0001:00054d60       ?growAndPushBack@?$PxArray@HV?$PxInlineAllocator@$0EAA@V?$PxReflectionAllocator@H@physx@@@physx@@@physx@@IEAAAEAHAEBH@Z 0000000180055d60 f i GuSDF.obj
 0001:00054e50       ?growAndPushBack@?$PxArray@MV?$PxReflectionAllocator@M@physx@@@physx@@IEAAAEAMAEBM@Z 0000000180055e50 f i GuSDF.obj
 0001:00054f30       ?growAndPushBack@?$PxArray@PEAV?$PxThreadT@V?$PxReflectionAllocator@VPxThreadImpl@physx@@@physx@@@physx@@V?$PxReflectionAllocator@PEAV?$PxThreadT@V?$PxReflectionAllocator@VPxThreadImpl@physx@@@physx@@@physx@@@2@@physx@@IEAAAEAPEAV?$PxThreadT@V?$PxReflectionAllocator@VPxThreadImpl@physx@@@physx@@@2@AEBQEAV32@@Z 0000000180055f30 f i GuSDF.obj
 0001:00055050       ?growAndPushBack@?$PxArray@UIsosurfaceThreadData@Gu@physx@@V?$PxReflectionAllocator@UIsosurfaceThreadData@Gu@physx@@@3@@physx@@IEAAAEAUIsosurfaceThreadData@Gu@2@AEBU342@@Z 0000000180056050 f i GuSDF.obj
 0001:00055220       ?growAndPushBack@?$PxArray@UMutation@Gu@physx@@V?$PxReflectionAllocator@UMutation@Gu@physx@@@3@@physx@@IEAAAEAUMutation@Gu@2@AEBU342@@Z 0000000180056220 f i GuSDF.obj
 0001:00055340       ?growAndPushBack@?$PxArray@URange@Gu@physx@@V?$PxReflectionAllocator@URange@Gu@physx@@@3@@physx@@IEAAAEAURange@Gu@2@AEBU342@@Z 0000000180056340 f i GuSDF.obj
 0001:00055470       ?growAndPushBack@?$PxArray@URange@MeshAnalyzer@Gu@physx@@V?$PxReflectionAllocator@URange@MeshAnalyzer@Gu@physx@@@4@@physx@@IEAAAEAURange@MeshAnalyzer@Gu@2@AEBU3452@@Z 0000000180056470 f i GuSDF.obj
 0001:00055590       ?growAndPushBack@?$PxArray@USDFCalculationData@Gu@physx@@V?$PxReflectionAllocator@USDFCalculationData@Gu@physx@@@3@@physx@@IEAAAEAUSDFCalculationData@Gu@2@AEBU342@@Z 0000000180056590 f i GuSDF.obj
 0001:00055710       ?growAndPushBack@?$PxArray@V?$PxVec3T@M@physx@@V?$PxReflectionAllocator@V?$PxVec3T@M@physx@@@2@@physx@@IEAAAEAV?$PxVec3T@M@2@AEBV32@@Z 0000000180056710 f i GuSDF.obj
 0001:000557e0       ?importExtraData@SDF@Gu@physx@@QEAAXAEAVPxDeserializationContext@3@@Z 00000001800567e0 f   GuSDF.obj
 0001:00055850       ?populateSubgridCache@Gu@physx@@YAXAEBVSDF@12@AEAV?$PxArray@MV?$PxReflectionAllocator@M@physx@@@2@HHH@Z 0000000180056850 f i GuSDF.obj
 0001:00055bf0       ?projectPoint@PointOntoTriangleMeshProjector@Gu@physx@@UEAA?AV?$PxVec3T@M@3@AEBV43@@Z 0000000180056bf0 f i GuSDF.obj
 0001:00055c60       ?projectPoint@PointOntoTriangleMeshProjector@Gu@physx@@UEAA?AV?$PxVec3T@M@3@AEBV43@AEAI@Z 0000000180056c60 f i GuSDF.obj
 0001:00055ce0       ?recreate@?$PxArray@HV?$PxReflectionAllocator@H@physx@@@physx@@IEAAXI@Z 0000000180056ce0 f i GuSDF.obj
 0001:00055dd0       ?recreate@?$PxArray@MV?$PxReflectionAllocator@M@physx@@@physx@@IEAAXI@Z 0000000180056dd0 f i GuSDF.obj
 0001:00055eb0       ?recreate@?$PxArray@PEAUMap@Gu@physx@@V?$PxReflectionAllocator@PEAUMap@Gu@physx@@@3@@physx@@IEAAXI@Z 0000000180056eb0 f i GuSDF.obj
 0001:00055fa0       ?recreate@?$PxArray@UBVHNode@Gu@physx@@V?$PxReflectionAllocator@UBVHNode@Gu@physx@@@3@@physx@@IEAAXI@Z 0000000180056fa0 f i GuSDF.obj
 0001:000561e0       ?recreate@?$PxArray@V?$PxVec3T@M@physx@@V?$PxReflectionAllocator@V?$PxVec3T@M@physx@@@2@@physx@@IEAAXI@Z 00000001800571e0 f i GuSDF.obj
 0001:00056270       ?release@PointOntoTriangleMeshProjector@Gu@physx@@UEAAXXZ 0000000180057270 f i GuSDF.obj
 0001:000562c0       ?reserveInternal@?$PxHashBase@V?$PxPair@$$CBIU?$ClusterApproximationT@MV?$PxVec3T@M@physx@@@Gu@physx@@@physx@@IU?$PxHash@I@2@UGetKey@?$PxHashMapBase@IU?$ClusterApproximationT@MV?$PxVec3T@M@physx@@@Gu@physx@@U?$PxHash@I@3@VPxAllocator@3@@2@VPxAllocator@2@$00@physx@@AEAAXI@Z 00000001800572c0 f i GuSDF.obj
 0001:000564c0       ?reserveInternal@?$PxHashBase@V?$PxPair@$$CBUSortedTriangle@Gu@physx@@H@physx@@USortedTriangle@Gu@2@UTriangleHash@42@UGetKey@?$PxHashMapBase@USortedTriangle@Gu@physx@@HUTriangleHash@23@VPxAllocator@3@@2@VPxAllocator@2@$00@physx@@AEAAXI@Z 00000001800574c0 f i GuSDF.obj
 0001:00056660       ?reserveInternal@?$PxHashBase@V?$PxPair@$$CB_KH@physx@@_KU?$PxHash@_K@2@UGetKey@?$PxHashMapBase@_KHU?$PxHash@_K@physx@@VPxAllocator@2@@2@VPxAllocator@2@$00@physx@@AEAAXI@Z 0000000180057660 f i GuSDF.obj
 0001:00056660       ?reserveInternal@?$PxHashBase@V?$PxPair@$$CB_KI@physx@@_KU?$PxHash@_K@2@UGetKey@?$PxHashMapBase@_KIU?$PxHash@_K@physx@@VPxAllocator@2@@2@VPxAllocator@2@$00@physx@@AEAAXI@Z 0000000180057660 f i GuSDF.obj
 0001:00056840       ?resize@?$PxArray@IV?$PxReflectionAllocator@I@physx@@@physx@@QEAAXIAEBI@Z 0000000180057840 f i GuSDF.obj
 0001:00056900       ?resize@?$PxArray@MV?$PxReflectionAllocator@M@physx@@@physx@@QEAAXIAEBM@Z 0000000180057900 f i GuSDF.obj
 0001:00056a00       ?resize@?$PxArray@PEAUMap@Gu@physx@@V?$PxReflectionAllocator@PEAUMap@Gu@physx@@@3@@physx@@QEAAXIAEBQEAUMap@Gu@2@@Z 0000000180057a00 f i GuSDF.obj
 0001:00056ac0       ?resize@?$PxArray@UBVHNode@Gu@physx@@V?$PxReflectionAllocator@UBVHNode@Gu@physx@@@3@@physx@@QEAAXIAEBUBVHNode@Gu@2@@Z 0000000180057ac0 f i GuSDF.obj
 0001:00056c40       ?sampleSDFDirect@DenseSDF@Gu@physx@@QEAAMAEBV?$PxVec3T@M@3@@Z 0000000180057c40 f i GuSDF.obj
 0001:00056de0       ?signedVolume@Gu@physx@@YAMPEBV?$PxVec3T@M@2@PEBII1I@Z 0000000180057de0 f   GuSDF.obj
 0001:00057320       ?windingNumbers@Gu@physx@@YAXPEBV?$PxVec3T@M@2@PEBIIIIIPEAMV32@3PEAV32@@Z 0000000180058320 f   GuSDF.obj
 0001:00057770       ?windingNumbersInsideCheck@Gu@physx@@YAXPEBV?$PxVec3T@M@2@PEBIIIIIPEA_NV32@3PEAV32@@Z 0000000180058770 f   GuSDF.obj
 0001:00058130       ??0MeshData@physx@@QEAA@AEBVPxTriangleMeshDesc@1@@Z 0000000180059130 f i GuCookingSDF.obj
 0001:00058210       ?GetBounds@MeshData@physx@@QEBAXAEAV?$PxVec3T@M@2@0@Z 0000000180059210 f i GuCookingSDF.obj
 0001:000584b0       ?buildSDF@physx@@YA_NAEAVPxTriangleMeshDesc@1@AEAV?$PxArray@MV?$PxReflectionAllocator@M@physx@@@1@AEAV?$PxArray@EV?$PxReflectionAllocator@E@physx@@@1@AEAV?$PxArray@IV?$PxReflectionAllocator@I@physx@@@1@@Z 00000001800594b0 f   GuCookingSDF.obj
 0001:000584f0       ?convert16To32Bits@physx@@YAXVPxSimpleTriangleMesh@1@AEAV?$PxArray@IV?$PxReflectionAllocator@I@physx@@@1@@Z 00000001800594f0 f   GuCookingSDF.obj
 0001:00059510       ?quantizeSparseSDF@physx@@YAXW4Enum@PxSdfBitsPerSubgridPixel@1@AEBV?$PxArray@MV?$PxReflectionAllocator@M@physx@@@1@AEAV?$PxArray@EV?$PxReflectionAllocator@E@physx@@@1@MM@Z 000000018005a510 f   GuCookingSDF.obj
 0001:000595f0       ?recreate@?$PxArray@EV?$PxReflectionAllocator@E@physx@@@physx@@IEAAXI@Z 000000018005a5f0 f i GuCookingSDF.obj
 0001:000596e0       ?resize@?$PxArray@EV?$PxReflectionAllocator@E@physx@@@physx@@QEAAXIAEBE@Z 000000018005a6e0 f i GuCookingSDF.obj
 0001:000597a0       ?resize@?$PxArray@V?$PxVec3T@M@physx@@V?$PxReflectionAllocator@V?$PxVec3T@M@physx@@@2@@physx@@QEAAXIAEBV?$PxVec3T@M@2@@Z 000000018005a7a0 f i GuCookingSDF.obj
 0001:00059890       ??$gjk@U?$RelativeConvex@UCustomConvexV@@@Gu@physx@@U?$LocalConvex@UCustomConvexV@@@23@@Gu@physx@@YA?AW4GjkStatus@01@AEBU?$RelativeConvex@UCustomConvexV@@@01@AEBU?$LocalConvex@UCustomConvexV@@@01@AEBT__m128@@2AEAT5@333@Z 000000018005a890 f i GuGjkQuery.obj
 0001:0005a620       ??$gjkPenetration@U?$RelativeConvex@UCustomConvexV@@@Gu@physx@@U?$LocalConvex@UCustomConvexV@@@23@@Gu@physx@@YA?AW4GjkStatus@01@AEBU?$RelativeConvex@UCustomConvexV@@@01@AEBU?$LocalConvex@UCustomConvexV@@@01@AEBT__m128@@2_NPEIAE4PEIAT5@5AEAEAEAUGjkOutput@01@@Z 000000018005b620 f i GuGjkQuery.obj
 0001:0005bb90       ??$gjkPenetration@U?$RelativeConvex@UCustomConvexV@@@Gu@physx@@U?$LocalConvex@UCustomConvexV@@@23@@Gu@physx@@YA?AW4GjkStatus@01@AEBU?$RelativeConvex@UCustomConvexV@@@01@AEBU?$LocalConvex@UCustomConvexV@@@01@AEBT__m128@@2_NPEIAT5@4AEAEAEAUGjkOutput@01@@Z 000000018005cb90 f i GuGjkQuery.obj
 0001:0005bbf0       ??$gjkRaycast@U?$RelativeConvex@UCustomConvexV@@@Gu@physx@@U?$LocalConvex@UCustomConvexV@@@23@@Gu@physx@@YA_NAEBU?$RelativeConvex@UCustomConvexV@@@01@AEBU?$LocalConvex@UCustomConvexV@@@01@AEBT__m128@@222AEAT4@33M@Z 000000018005cbf0 f i GuGjkQuery.obj
 0001:0005c950       ??$gjkRaycast@U?$RelativeConvex@UCustomConvexV@@@Gu@physx@@U?$LocalConvex@UPointConvexV@@@23@@Gu@physx@@YA_NAEBU?$RelativeConvex@UCustomConvexV@@@01@AEBU?$LocalConvex@UPointConvexV@@@01@AEBT__m128@@222AEAT4@33M@Z 000000018005d950 f i GuGjkQuery.obj
 0001:0005d590       ?overlap@PxGjkQuery@physx@@SA_NAEBUSupport@12@0AEBV?$PxTransformT@M@2@1@Z 000000018005e590 f   GuGjkQuery.obj
 0001:0005d920       ?proximityInfo@PxGjkQuery@physx@@SA_NAEBUSupport@12@0AEBV?$PxTransformT@M@2@1MMAEAV?$PxVec3T@M@2@22AEAM@Z 000000018005e920 f   GuGjkQuery.obj
 0001:0005e6e0       ?raycast@PxGjkQuery@physx@@SA_NAEBUSupport@12@AEBV?$PxTransformT@M@2@AEBV?$PxVec3T@M@2@2MAEAMAEAV52@4@Z 000000018005f6e0 f   GuGjkQuery.obj
 0001:0005ebd0       ?support@?$LocalConvex@UCustomConvexV@@@Gu@physx@@UEBA?AT__m128@@AEBT4@@Z 000000018005fbd0 f i GuGjkQuery.obj
 0001:0005ec50       ?support@?$LocalConvex@UCustomConvexV@@@Gu@physx@@UEBA?AT__m128@@AEBT4@AEAH@Z 000000018005fc50 f i GuGjkQuery.obj
 0001:0005ecd0       ?support@?$LocalConvex@UPointConvexV@@@Gu@physx@@UEBA?AT__m128@@AEBT4@@Z 000000018005fcd0 f i GuGjkQuery.obj
 0001:0005ecd0       ?supportPoint@?$LocalConvex@UPointConvexV@@@Gu@physx@@UEBA?AT__m128@@H@Z 000000018005fcd0 f i GuGjkQuery.obj
 0001:0005ece0       ?support@?$LocalConvex@UPointConvexV@@@Gu@physx@@UEBA?AT__m128@@AEBT4@AEAH@Z 000000018005fce0 f i GuGjkQuery.obj
 0001:0005ed00       ?support@?$RelativeConvex@UCustomConvexV@@@Gu@physx@@UEBA?AT__m128@@AEBT4@@Z 000000018005fd00 f i GuGjkQuery.obj
 0001:0005edd0       ?support@?$RelativeConvex@UCustomConvexV@@@Gu@physx@@UEBA?AT__m128@@AEBT4@AEAH@Z 000000018005fdd0 f i GuGjkQuery.obj
 0001:0005eeb0       ?supportPoint@?$LocalConvex@UCustomConvexV@@@Gu@physx@@UEBA?AT__m128@@H@Z 000000018005feb0 f i GuGjkQuery.obj
 0001:0005ef20       ?supportPoint@?$RelativeConvex@UCustomConvexV@@@Gu@physx@@UEBA?AT__m128@@H@Z 000000018005ff20 f i GuGjkQuery.obj
 0001:0005efc0       ?sweep@PxGjkQuery@physx@@SA_NAEBUSupport@12@0AEBV?$PxTransformT@M@2@1AEBV?$PxVec3T@M@2@MAEAMAEAV52@4@Z 000000018005ffc0 f   GuGjkQuery.obj
 0001:0005f780       ??$approximateCluster@MV?$PxVec3T@M@physx@@@Gu@physx@@YAXAEBV?$PxArray@HV?$PxReflectionAllocator@H@physx@@@1@IIPEBIPEBV?$PxVec3T@M@1@AEBV?$PxArray@MV?$PxReflectionAllocator@M@physx@@@1@AEBV?$PxArray@V?$PxVec3T@M@physx@@V?$PxReflectionAllocator@V?$PxVec3T@M@physx@@@2@@1@4AEAU?$ClusterApproximationT@MV?$PxVec3T@M@physx@@@01@@Z 0000000180060780 f i GuWindingNumber.obj
 0001:0005fdc0       ??$precomputeClusterInformation@MV?$PxVec3T@M@physx@@@Gu@physx@@YAXHPEBUBVHNode@01@PEBIIPEBV?$PxVec3T@M@1@AEAV?$PxHashMap@IU?$ClusterApproximationT@MV?$PxVec3T@M@physx@@@Gu@physx@@U?$PxHash@I@3@VPxAllocator@3@@1@V?$PxArray@MV?$PxReflectionAllocator@M@physx@@@1@AEBV?$PxArray@V?$PxVec3T@M@physx@@V?$PxReflectionAllocator@V?$PxVec3T@M@physx@@@2@@1@5@Z 0000000180060dc0 f i GuWindingNumber.obj
 0001:00060190       ??$precomputeClusterInformation@MV?$PxVec3T@M@physx@@@Gu@physx@@YAXPEBUBVHNode@01@PEBIIPEBV?$PxVec3T@M@1@AEAV?$PxHashMap@IU?$ClusterApproximationT@MV?$PxVec3T@M@physx@@@Gu@physx@@U?$PxHash@I@3@VPxAllocator@3@@1@H@Z 0000000180061190 f i GuWindingNumber.obj
 0001:000605a0       ??$traverseBVH@V?$WindingNumberTraversalController@MV?$PxVec3T@M@physx@@@Gu@physx@@@Gu@physx@@YAXPEBUBVHNode@01@AEAV?$WindingNumberTraversalController@MV?$PxVec3T@M@physx@@@01@H@Z 00000001800615a0 f i GuWindingNumber.obj
 0001:00060af0       ?allocate@?$PxArray@HV?$PxReflectionAllocator@H@physx@@@physx@@IEAAPEAHI@Z 0000000180061af0 f i GuWindingNumber.obj
 0001:00060b80       ?computeWindingNumber@Gu@physx@@YAMAEBV?$PxVec3T@M@2@PEBIIPEBV32@@Z 0000000180061b80 f   GuWindingNumber.obj
 0001:00060eb0       ?computeWindingNumber@Gu@physx@@YAMPEBUBVHNode@12@AEBV?$PxVec3T@M@2@AEBV?$PxHashMap@IU?$ClusterApproximationT@MV?$PxVec3T@M@physx@@@Gu@physx@@U?$PxHash@I@3@VPxAllocator@3@@2@PEBIPEBV42@@Z 0000000180061eb0 f   GuWindingNumber.obj
 0001:00060f20       ?computeWindingNumber@Gu@physx@@YAMPEBUBVHNode@12@AEBV?$PxVec3T@M@2@MAEBV?$PxHashMap@IU?$ClusterApproximationT@MV?$PxVec3T@M@physx@@@Gu@physx@@U?$PxHash@I@3@VPxAllocator@3@@2@PEBIPEBV42@@Z 0000000180061f20 f   GuWindingNumber.obj
 0001:00060f90       ?create@?$PxHashBase@V?$PxPair@$$CBIU?$ClusterApproximationT@MV?$PxVec3T@M@physx@@@Gu@physx@@@physx@@IU?$PxHash@I@2@UGetKey@?$PxHashMapBase@IU?$ClusterApproximationT@MV?$PxVec3T@M@physx@@@Gu@physx@@U?$PxHash@I@3@VPxAllocator@3@@2@VPxAllocator@2@$00@physx@@QEAAPEAV?$PxPair@$$CBIU?$ClusterApproximationT@MV?$PxVec3T@M@physx@@@Gu@physx@@@2@AEBIAEA_N@Z 0000000180061f90 f i GuWindingNumber.obj
 0001:000610e0       ?growAndPushBack@?$PxArray@HV?$PxReflectionAllocator@H@physx@@@physx@@IEAAAEAHAEBH@Z 00000001800620e0 f i GuWindingNumber.obj
 0001:000611a0       ?growAndPushBack@?$PxArray@USection@Gu@physx@@V?$PxReflectionAllocator@USection@Gu@physx@@@3@@physx@@IEAAAEAUSection@Gu@2@AEBU342@@Z 00000001800621a0 f i GuWindingNumber.obj
 0001:000612c0       ?precomputeClusterInformation@Gu@physx@@YAXPEBUBVHNode@12@PEBIIPEBV?$PxVec3T@M@2@AEAV?$PxHashMap@IU?$ClusterApproximationT@MV?$PxVec3T@M@physx@@@Gu@physx@@U?$PxHash@I@3@VPxAllocator@3@@2@H@Z 00000001800622c0 f   GuWindingNumber.obj
 0001:00061360       ?SweepAnyShapeHeightfield@Gu@physx@@YAMAEBUCCDShape@12@0AEBUPxTransformPadded@2@111MAEAV?$PxVec3T@M@2@2MAEAIM@Z 0000000180062360 f   GuCCDSweepConvexMesh.obj
 0001:000628d0       ?SweepAnyShapeMesh@Gu@physx@@YAMAEBUCCDShape@12@0AEBUPxTransformPadded@2@111MAEAV?$PxVec3T@M@2@2MAEAIM@Z 00000001800638d0 f   GuCCDSweepConvexMesh.obj
 0001:00063e90       ?SweepEstimateAnyShapeHeightfield@Gu@physx@@YAMAEBUCCDShape@12@0MM@Z 0000000180064e90 f   GuCCDSweepConvexMesh.obj
 0001:00064af0       ?SweepEstimateAnyShapeMesh@Gu@physx@@YAMAEBUCCDShape@12@0MM@Z 0000000180065af0 f   GuCCDSweepConvexMesh.obj
 0001:00064d90       ?allocate@?$PxArray@IV?$PxInlineAllocator@$0BAA@V?$PxReflectionAllocator@I@physx@@@physx@@@physx@@IEAAPEAII@Z 0000000180065d90 f i GuCCDSweepConvexMesh.obj
 0001:00065870       ?growAndPushBack@?$PxArray@IV?$PxInlineAllocator@$0BAA@V?$PxReflectionAllocator@I@physx@@@physx@@@physx@@IEAAAEAIAEBI@Z 0000000180066870 f i GuCCDSweepConvexMesh.obj
 0001:00065eb0       ?recreate@?$PxArray@IV?$PxInlineAllocator@$0BAA@V?$PxReflectionAllocator@I@physx@@@physx@@@physx@@IEAAXI@Z 0000000180066eb0 f i GuCCDSweepConvexMesh.obj
 0001:00065ff0       ?resize@?$PxArray@IV?$PxInlineAllocator@$0BAA@V?$PxReflectionAllocator@I@physx@@@physx@@@physx@@QEAAXIAEBI@Z 0000000180066ff0 f i GuCCDSweepConvexMesh.obj
 0001:000660c0       ?transformBoxOrthonormal@physx@@YA?AVBox@Gu@1@AEBV231@AEBV?$PxTransformT@M@1@@Z 00000001800670c0 f i GuCCDSweepConvexMesh.obj
 0001:00066550       ?UnimplementedSweep@Gu@physx@@YAMAEBUCCDShape@12@0AEBUPxTransformPadded@2@111MAEAV?$PxVec3T@M@2@2MAEAIM@Z 0000000180067550 f   GuCCDSweepPrimitives.obj
 0001:0006a280       ?UnimplementedTriangleSweep@Gu@physx@@YAMAEBVPxGeometry@2@0AEBUPxTransformPadded@2@111MAEAV?$PxVec3T@M@2@2AEBVFastVertex2ShapeScaling@Cm@2@AEAVTriangleV@12@M@Z 000000018006b280 f   GuCCDSweepPrimitives.obj
 0001:0006a290       ??$SweepGeomTriangles@VCapsuleV@Gu@physx@@@Gu@physx@@YAMAEBVPxGeometry@1@0AEBUPxTransformPadded@1@111MAEAV?$PxVec3T@M@1@2AEBVFastVertex2ShapeScaling@Cm@1@AEAVTriangleV@01@M@Z 000000018006b290 f i GuCCDSweepPrimitives.obj
 0001:0006a9c0       ??$SweepGeomTriangles@VBoxV@Gu@physx@@@Gu@physx@@YAMAEBVPxGeometry@1@0AEBUPxTransformPadded@1@111MAEAV?$PxVec3T@M@1@2AEBVFastVertex2ShapeScaling@Cm@1@AEAVTriangleV@01@M@Z 000000018006b9c0 f i GuCCDSweepPrimitives.obj
 0001:0006b110       ??$SweepGeomTriangles@VConvexHullV@Gu@physx@@@Gu@physx@@YAMAEBVPxGeometry@1@0AEBUPxTransformPadded@1@111MAEAV?$PxVec3T@M@1@2AEBVFastVertex2ShapeScaling@Cm@1@AEAVTriangleV@01@M@Z 000000018006c110 f i GuCCDSweepPrimitives.obj
 0001:0006bbf0       ?supportPoint@?$RelativeConvex@VCapsuleV@Gu@physx@@@Gu@physx@@UEBA?AT__m128@@H@Z 000000018006cbf0 f i GuCCDSweepPrimitives.obj
 0001:0006bc50       ?support@?$RelativeConvex@VCapsuleV@Gu@physx@@@Gu@physx@@UEBA?AT__m128@@AEBT4@@Z 000000018006cc50 f i GuCCDSweepPrimitives.obj
 0001:0006bd00       ?support@?$RelativeConvex@VCapsuleV@Gu@physx@@@Gu@physx@@UEBA?AT__m128@@AEBT4@AEAH@Z 000000018006cd00 f i GuCCDSweepPrimitives.obj
 0001:0006bdc0       ?supportPoint@?$RelativeConvex@VTriangleV@Gu@physx@@@Gu@physx@@UEBA?AT__m128@@H@Z 000000018006cdc0 f i GuCCDSweepPrimitives.obj
 0001:0006be10       ?support@?$RelativeConvex@VTriangleV@Gu@physx@@@Gu@physx@@UEBA?AT__m128@@AEBT4@@Z 000000018006ce10 f i GuCCDSweepPrimitives.obj
 0001:0006bf10       ?support@?$RelativeConvex@VTriangleV@Gu@physx@@@Gu@physx@@UEBA?AT__m128@@AEBT4@AEAH@Z 000000018006cf10 f i GuCCDSweepPrimitives.obj
 0001:0006c050       ??$gjkPenetration@U?$RelativeConvex@VCapsuleV@Gu@physx@@@Gu@physx@@U?$LocalConvex@VBoxV@Gu@physx@@@23@@Gu@physx@@YA?AW4GjkStatus@01@AEBU?$RelativeConvex@VCapsuleV@Gu@physx@@@01@AEBU?$LocalConvex@VBoxV@Gu@physx@@@01@AEBT__m128@@2_NPEIAE4AEAEAEAUGjkOutput@01@@Z 000000018006d050 f i GuCCDSweepPrimitives.obj
 0001:0006c0c0       ??$gjkPenetration@U?$RelativeConvex@VCapsuleV@Gu@physx@@@Gu@physx@@U?$LocalConvex@VBoxV@Gu@physx@@@23@@Gu@physx@@YA?AW4GjkStatus@01@AEBU?$RelativeConvex@VCapsuleV@Gu@physx@@@01@AEBU?$LocalConvex@VBoxV@Gu@physx@@@01@AEBT__m128@@2_NPEIAE4PEIAT5@5AEAEAEAUGjkOutput@01@@Z 000000018006d0c0 f i GuCCDSweepPrimitives.obj
 0001:0006d5c0       ??$gjkPenetration@U?$RelativeConvex@VCapsuleV@Gu@physx@@@Gu@physx@@U?$LocalConvex@VCapsuleV@Gu@physx@@@23@@Gu@physx@@YA?AW4GjkStatus@01@AEBU?$RelativeConvex@VCapsuleV@Gu@physx@@@01@AEBU?$LocalConvex@VCapsuleV@Gu@physx@@@01@AEBT__m128@@2_NPEIAE4AEAEAEAUGjkOutput@01@@Z 000000018006e5c0 f i GuCCDSweepPrimitives.obj
 0001:0006d630       ??$gjkPenetration@U?$RelativeConvex@VCapsuleV@Gu@physx@@@Gu@physx@@U?$LocalConvex@VCapsuleV@Gu@physx@@@23@@Gu@physx@@YA?AW4GjkStatus@01@AEBU?$RelativeConvex@VCapsuleV@Gu@physx@@@01@AEBU?$LocalConvex@VCapsuleV@Gu@physx@@@01@AEBT__m128@@2_NPEIAE4PEIAT5@5AEAEAEAUGjkOutput@01@@Z 000000018006e630 f i GuCCDSweepPrimitives.obj
 0001:0006eb20       ??$gjkPenetration@U?$RelativeConvex@VCapsuleV@Gu@physx@@@Gu@physx@@U?$LocalConvex@VConvexHullV@Gu@physx@@@23@@Gu@physx@@YA?AW4GjkStatus@01@AEBU?$RelativeConvex@VCapsuleV@Gu@physx@@@01@AEBU?$LocalConvex@VConvexHullV@Gu@physx@@@01@AEBT__m128@@2_NPEIAE4AEAEAEAUGjkOutput@01@@Z 000000018006fb20 f i GuCCDSweepPrimitives.obj
 0001:0006eb90       ??$gjkPenetration@U?$RelativeConvex@VCapsuleV@Gu@physx@@@Gu@physx@@U?$LocalConvex@VConvexHullV@Gu@physx@@@23@@Gu@physx@@YA?AW4GjkStatus@01@AEBU?$RelativeConvex@VCapsuleV@Gu@physx@@@01@AEBU?$LocalConvex@VConvexHullV@Gu@physx@@@01@AEBT__m128@@2_NPEIAE4PEIAT5@5AEAEAEAUGjkOutput@01@@Z 000000018006fb90 f i GuCCDSweepPrimitives.obj
 0001:00070130       ??$gjkPenetration@U?$RelativeConvex@VTriangleV@Gu@physx@@@Gu@physx@@U?$LocalConvex@VBoxV@Gu@physx@@@23@@Gu@physx@@YA?AW4GjkStatus@01@AEBU?$RelativeConvex@VTriangleV@Gu@physx@@@01@AEBU?$LocalConvex@VBoxV@Gu@physx@@@01@AEBT__m128@@2_NPEIAE4AEAEAEAUGjkOutput@01@@Z 0000000180071130 f i GuCCDSweepPrimitives.obj
 0001:000701a0       ??$gjkPenetration@U?$RelativeConvex@VTriangleV@Gu@physx@@@Gu@physx@@U?$LocalConvex@VBoxV@Gu@physx@@@23@@Gu@physx@@YA?AW4GjkStatus@01@AEBU?$RelativeConvex@VTriangleV@Gu@physx@@@01@AEBU?$LocalConvex@VBoxV@Gu@physx@@@01@AEBT__m128@@2_NPEIAE4PEIAT5@5AEAEAEAUGjkOutput@01@@Z 00000001800711a0 f i GuCCDSweepPrimitives.obj
 0001:000716c0       ??$gjkPenetration@U?$RelativeConvex@VTriangleV@Gu@physx@@@Gu@physx@@U?$LocalConvex@VCapsuleV@Gu@physx@@@23@@Gu@physx@@YA?AW4GjkStatus@01@AEBU?$RelativeConvex@VTriangleV@Gu@physx@@@01@AEBU?$LocalConvex@VCapsuleV@Gu@physx@@@01@AEBT__m128@@2_NPEIAE4AEAEAEAUGjkOutput@01@@Z 00000001800726c0 f i GuCCDSweepPrimitives.obj
 0001:00071730       ??$gjkPenetration@U?$RelativeConvex@VTriangleV@Gu@physx@@@Gu@physx@@U?$LocalConvex@VCapsuleV@Gu@physx@@@23@@Gu@physx@@YA?AW4GjkStatus@01@AEBU?$RelativeConvex@VTriangleV@Gu@physx@@@01@AEBU?$LocalConvex@VCapsuleV@Gu@physx@@@01@AEBT__m128@@2_NPEIAE4PEIAT5@5AEAEAEAUGjkOutput@01@@Z 0000000180072730 f i GuCCDSweepPrimitives.obj
 0001:00072c40       ??$gjkPenetration@U?$RelativeConvex@VTriangleV@Gu@physx@@@Gu@physx@@U?$LocalConvex@VConvexHullV@Gu@physx@@@23@@Gu@physx@@YA?AW4GjkStatus@01@AEBU?$RelativeConvex@VTriangleV@Gu@physx@@@01@AEBU?$LocalConvex@VConvexHullV@Gu@physx@@@01@AEBT__m128@@2_NPEIAE4AEAEAEAUGjkOutput@01@@Z 0000000180073c40 f i GuCCDSweepPrimitives.obj
 0001:00072cb0       ??$gjkPenetration@U?$RelativeConvex@VTriangleV@Gu@physx@@@Gu@physx@@U?$LocalConvex@VConvexHullV@Gu@physx@@@23@@Gu@physx@@YA?AW4GjkStatus@01@AEBU?$RelativeConvex@VTriangleV@Gu@physx@@@01@AEBU?$LocalConvex@VConvexHullV@Gu@physx@@@01@AEBT__m128@@2_NPEIAE4PEIAT5@5AEAEAEAUGjkOutput@01@@Z 0000000180073cb0 f i GuCCDSweepPrimitives.obj
 0001:00074260       ??$gjkRaycast@U?$RelativeConvex@VCapsuleV@Gu@physx@@@Gu@physx@@U?$LocalConvex@VBoxV@Gu@physx@@@23@@Gu@physx@@YA_NAEBU?$RelativeConvex@VCapsuleV@Gu@physx@@@01@AEBU?$LocalConvex@VBoxV@Gu@physx@@@01@AEBT__m128@@222AEAT4@33M@Z 0000000180075260 f i GuCCDSweepPrimitives.obj
 0001:00074ed0       ??$gjkRaycast@U?$RelativeConvex@VCapsuleV@Gu@physx@@@Gu@physx@@U?$LocalConvex@VCapsuleV@Gu@physx@@@23@@Gu@physx@@YA_NAEBU?$RelativeConvex@VCapsuleV@Gu@physx@@@01@AEBU?$LocalConvex@VCapsuleV@Gu@physx@@@01@AEBT__m128@@222AEAT4@33M@Z 0000000180075ed0 f i GuCCDSweepPrimitives.obj
 0001:00075bc0       ??$gjkRaycast@U?$RelativeConvex@VCapsuleV@Gu@physx@@@Gu@physx@@U?$LocalConvex@VConvexHullV@Gu@physx@@@23@@Gu@physx@@YA_NAEBU?$RelativeConvex@VCapsuleV@Gu@physx@@@01@AEBU?$LocalConvex@VConvexHullV@Gu@physx@@@01@AEBT__m128@@222AEAT4@33M@Z 0000000180076bc0 f i GuCCDSweepPrimitives.obj
 0001:000769c0       ??$gjkRaycast@U?$RelativeConvex@VTriangleV@Gu@physx@@@Gu@physx@@U?$LocalConvex@VBoxV@Gu@physx@@@23@@Gu@physx@@YA_NAEBU?$RelativeConvex@VTriangleV@Gu@physx@@@01@AEBU?$LocalConvex@VBoxV@Gu@physx@@@01@AEBT__m128@@222AEAT4@33M@Z 00000001800779c0 f i GuCCDSweepPrimitives.obj
 0001:000776d0       ??$gjkRaycast@U?$RelativeConvex@VTriangleV@Gu@physx@@@Gu@physx@@U?$LocalConvex@VCapsuleV@Gu@physx@@@23@@Gu@physx@@YA_NAEBU?$RelativeConvex@VTriangleV@Gu@physx@@@01@AEBU?$LocalConvex@VCapsuleV@Gu@physx@@@01@AEBT__m128@@222AEAT4@33M@Z 00000001800786d0 f i GuCCDSweepPrimitives.obj
 0001:00078450       ??$gjkRaycast@U?$RelativeConvex@VTriangleV@Gu@physx@@@Gu@physx@@U?$LocalConvex@VConvexHullV@Gu@physx@@@23@@Gu@physx@@YA_NAEBU?$RelativeConvex@VTriangleV@Gu@physx@@@01@AEBU?$LocalConvex@VConvexHullV@Gu@physx@@@01@AEBT__m128@@222AEAT4@33M@Z 0000000180079450 f i GuCCDSweepPrimitives.obj
 0001:00079310       ?SweepShapeShape@Gu@physx@@YAMAEBUCCDShape@12@0AEBUPxTransformPadded@2@111MAEAV?$PxVec3T@M@2@2MAEAIM@Z 000000018007a310 f   GuCCDSweepPrimitives.obj
 0001:00079330       ?SweepShapeTriangle@Gu@physx@@YAMAEBVPxGeometry@2@0AEBUPxTransformPadded@2@111MAEAV?$PxVec3T@M@2@2AEBVFastVertex2ShapeScaling@Cm@2@AEAVTriangleV@12@M@Z 000000018007a330 f   GuCCDSweepPrimitives.obj
 0001:00079350       ?barycentricCoordinates@Gu@physx@@YAXAEBT__m128@@000AEAT3@1@Z 000000018007a350 f   GuBarycentricCoordinates.obj
 0001:00079490       ?barycentricCoordinates@Gu@physx@@YAXAEBT__m128@@00AEAT3@@Z 000000018007a490 f   GuBarycentricCoordinates.obj
 0001:00079500       ??$?_UV?$PxReflectionAllocator@VAdjTriangle@Gu@physx@@@physx@@@PxUserAllocated@physx@@SAPEAX_KV?$PxReflectionAllocator@VAdjTriangle@Gu@physx@@@1@PEBDH@Z 000000018007a500 f i GuAdjacencies.obj
 0001:000795e0       ??0AdjacenciesBuilder@Gu@physx@@QEAA@XZ 000000018007a5e0 f   GuAdjacencies.obj
 0001:000795f0       ??1AdjacenciesBuilder@Gu@physx@@QEAA@XZ 000000018007a5f0 f   GuAdjacencies.obj
 0001:00079740       ?ComputeNbBoundaryEdges@Adjacencies@Gu@physx@@QEBAIXZ 000000018007a740 f   GuAdjacencies.obj
 0001:000799d0       ?Init@AdjacenciesBuilder@Gu@physx@@QEAA_NAEBUADJACENCIESCREATE@23@@Z 000000018007a9d0 f   GuAdjacencies.obj
 0001:00079f30       ??0EdgeList@Gu@physx@@QEAA@XZ 000000018007af30 f   GuEdgeList.obj
 0001:00079f50       ??1EdgeList@Gu@physx@@QEAA@XZ 000000018007af50 f   GuEdgeList.obj
 0001:0007a000       ?computeActiveEdges@EdgeList@Gu@physx@@AEAA_NIPEBIPEBGPEBV?$PxVec3T@M@3@M@Z 000000018007b000 f   GuEdgeList.obj
 0001:0007b380       ?createEdgesToFaces@EdgeList@Gu@physx@@AEAA_NIPEBIPEBG@Z 000000018007c380 f   GuEdgeList.obj
 0001:0007b5e0       ?createFacesToEdges@EdgeList@Gu@physx@@AEAA_NIPEBIPEBG@Z 000000018007c5e0 f   GuEdgeList.obj
 0001:0007b9b0       ?init@EdgeList@Gu@physx@@QEAA_NAEBUEDGELISTCREATE@23@@Z 000000018007c9b0 f   GuEdgeList.obj
 0001:0007bae0       ?addAxis@SeparatingAxes@Gu@physx@@QEAA_NAEBV?$PxVec3T@M@3@@Z 000000018007cae0 f   GuSeparatingAxes.obj
 0001:0007bba0       ??$kmeans_cluster@V?$PxVec3T@M@physx@@M@@YAIPEBV?$PxVec3T@M@physx@@IIPEAV01@PEAIMM@Z 000000018007cba0 f i GuQuantizer.obj
 0001:0007c560       ??_EQuantizer@Gu@physx@@MEAAPEAXI@Z 000000018007d560 f i GuQuantizer.obj
 0001:0007c560       ??_GQuantizer@Gu@physx@@MEAAPEAXI@Z 000000018007d560 f i GuQuantizer.obj
 0001:0007c590       ??_EQuantizerImpl@@EEAAPEAXI@Z 000000018007d590 f i GuQuantizer.obj
 0001:0007c590       ??_GQuantizerImpl@@EEAAPEAXI@Z 000000018007d590 f i GuQuantizer.obj
 0001:0007c660       ?createQuantizer@Gu@physx@@YAPEAVQuantizer@12@XZ 000000018007d660 f   GuQuantizer.obj
 0001:0007c710       ?getDenormalizeCenter@QuantizerImpl@@UEBAAEBV?$PxVec3T@M@physx@@XZ 000000018007d710 f i GuQuantizer.obj
 0001:0007c720       ?getCurrentAABBTreeBounds@PruningPool@Gu@physx@@QEBAAEBVAABBTreeBounds@23@XZ 000000018007d720 f i GuIncrementalAABBPrunerCore.obj
 0001:0007c720       ?getDenormalizeScale@QuantizerImpl@@UEBAAEBV?$PxVec3T@M@physx@@XZ 000000018007d720 f i GuQuantizer.obj
 0001:0007c730       ?kmeansQuantize3D@QuantizerImpl@@UEAAPEBV?$PxVec3T@M@physx@@IPEBV23@I_NIAEAI@Z 000000018007d730 f i GuQuantizer.obj
 0001:0007c9a0       ?normalizeInput@QuantizerImpl@@AEAAXIPEBV?$PxVec3T@M@physx@@I@Z 000000018007d9a0 f i GuQuantizer.obj
 0001:0007cdf0       ?release@QuantizerImpl@@UEAAXXZ 000000018007ddf0 f i GuQuantizer.obj
 0001:0007ce10       ??0MeshCleaner@Gu@physx@@QEAA@IPEBV?$PxVec3T@M@2@IPEBIMM@Z 000000018007de10 f   GuMeshCleaner.obj
 0001:0007d7e0       ??1MeshCleaner@Gu@physx@@QEAA@XZ 000000018007e7e0 f   GuMeshCleaner.obj
 0001:0007d870       ??0ReducedVertexCloud@Gu@physx@@QEAA@PEBV?$PxVec3T@M@2@I@Z 000000018007e870 f   GuVertexReducer.obj
 0001:0007d890       ??1ReducedVertexCloud@Gu@physx@@QEAA@XZ 000000018007e890 f   GuVertexReducer.obj
 0001:0007d8a0       ?clean@ReducedVertexCloud@Gu@physx@@QEAAAEAV123@XZ 000000018007e8a0 f   GuVertexReducer.obj
 0001:0007d910       ?reduce@ReducedVertexCloud@Gu@physx@@QEAA_NPEAUREDUCEDCLOUD@23@@Z 000000018007e910 f   GuVertexReducer.obj
 0001:0007dbb0       ?buildConsistentTriangleOrientationMap@MeshAnalyzer@Gu@physx@@SA_NPEBU?$IndexedTriangleT@H@23@IAEAV?$PxArray@_NV?$PxReflectionAllocator@_N@physx@@@3@AEAV?$PxHashMap@_KHU?$PxHash@_K@physx@@VPxAllocator@2@@3@AEAV?$PxArray@V?$PxArray@IV?$PxReflectionAllocator@I@physx@@@physx@@V?$PxReflectionAllocator@V?$PxArray@IV?$PxReflectionAllocator@I@physx@@@physx@@@2@@3@@Z 000000018007ebb0 f   GuMeshAnalysis.obj
 0001:0007e0f0       ?buildTriangleAdjacency@MeshAnalyzer@Gu@physx@@SA_NPEBU?$IndexedTriangleT@H@23@IAEAV?$PxArray@HV?$PxReflectionAllocator@H@physx@@@3@AEAV?$PxHashMap@_KHU?$PxHash@_K@physx@@VPxAllocator@2@@3@@Z 000000018007f0f0 f   GuMeshAnalysis.obj
 0001:0007e3f0       ?checkConsistentTriangleOrientation@MeshAnalyzer@Gu@physx@@SA_NPEBU?$IndexedTriangleT@H@23@I@Z 000000018007f3f0 f   GuMeshAnalysis.obj
 0001:0007e540       ?checkMeshWatertightness@MeshAnalyzer@Gu@physx@@SA_NPEBU?$IndexedTriangleT@H@23@I_N@Z 000000018007f540 f   GuMeshAnalysis.obj
 0001:0007e710       ?destroy@?$PxArray@V?$PxArray@IV?$PxReflectionAllocator@I@physx@@@physx@@V?$PxReflectionAllocator@V?$PxArray@IV?$PxReflectionAllocator@I@physx@@@physx@@@2@@physx@@KAXPEAV?$PxArray@IV?$PxReflectionAllocator@I@physx@@@2@0@Z 000000018007f710 f i GuMeshAnalysis.obj
 0001:0007e780       ?erase@?$PxHashBase@V?$PxPair@$$CB_KH@physx@@_KU?$PxHash@_K@2@UGetKey@?$PxHashMapBase@_KHU?$PxHash@_K@physx@@VPxAllocator@2@@2@VPxAllocator@2@$00@physx@@QEAA_NAEB_K@Z 000000018007f780 f i GuMeshAnalysis.obj
 0001:0007e930       ?growAndPushBack@?$PxArray@V?$PxArray@IV?$PxReflectionAllocator@I@physx@@@physx@@V?$PxReflectionAllocator@V?$PxArray@IV?$PxReflectionAllocator@I@physx@@@physx@@@2@@physx@@IEAAAEAV?$PxArray@IV?$PxReflectionAllocator@I@physx@@@2@AEBV32@@Z 000000018007f930 f i GuMeshAnalysis.obj
 0001:0007ea80       ?makeTriOrientationConsistent@MeshAnalyzer@Gu@physx@@SA_NPEAU?$IndexedTriangleT@H@23@I_N@Z 000000018007fa80 f   GuMeshAnalysis.obj
 0001:0007ebf0       ?recreate@?$PxArray@_NV?$PxReflectionAllocator@_N@physx@@@physx@@IEAAXI@Z 000000018007fbf0 f i GuMeshAnalysis.obj
 0001:0007ece0       ?resize@?$PxArray@HV?$PxReflectionAllocator@H@physx@@@physx@@QEAAXIAEBH@Z 000000018007fce0 f i GuMeshAnalysis.obj
 0001:0007eda0       ?resize@?$PxArray@_NV?$PxReflectionAllocator@_N@physx@@@physx@@QEAAXIAEB_N@Z 000000018007fda0 f i GuMeshAnalysis.obj
 0001:0007ee60       ?contactBoxBox@Gu@physx@@YA_NAEBVPxGeometry@2@0AEBUPxTransformPadded@2@1AEBUNarrowPhaseParams@12@AEAUCache@12@AEAVPxContactBuffer@2@PEAVPxRenderOutput@2@@Z 000000018007fe60 f   GuContactBoxBox.obj
 0001:00082ff0       ?contactCapsuleBox@Gu@physx@@YA_NAEBVPxGeometry@2@0AEBUPxTransformPadded@2@1AEBUNarrowPhaseParams@12@AEAUCache@12@AEAVPxContactBuffer@2@PEAVPxRenderOutput@2@@Z 0000000180083ff0 f   GuContactCapsuleBox.obj
 0001:00083800       ?contactCapsuleCapsule@Gu@physx@@YA_NAEBVPxGeometry@2@0AEBUPxTransformPadded@2@1AEBUNarrowPhaseParams@12@AEAUCache@12@AEAVPxContactBuffer@2@PEAVPxRenderOutput@2@@Z 0000000180084800 f   GuContactCapsuleCapsule.obj
 0001:000861f0       ?contactCapsuleConvex@Gu@physx@@YA_NAEBVPxGeometry@2@0AEBUPxTransformPadded@2@1AEBUNarrowPhaseParams@12@AEAUCache@12@AEAVPxContactBuffer@2@PEAVPxRenderOutput@2@@Z 00000001800871f0 f   GuContactCapsuleConvex.obj
 0001:00088730       ?contactCapsuleHeightfield@Gu@physx@@YA_NAEBVPxGeometry@2@0AEBUPxTransformPadded@2@1AEBUNarrowPhaseParams@12@AEAUCache@12@AEAVPxContactBuffer@2@PEAVPxRenderOutput@2@@Z 0000000180089730 f   GuContactCapsuleMesh.obj
 0001:00088f40       ?contactCapsuleMesh@Gu@physx@@YA_NAEBVPxGeometry@2@0AEBUPxTransformPadded@2@1AEBUNarrowPhaseParams@12@AEAUCache@12@AEAVPxContactBuffer@2@PEAVPxRenderOutput@2@@Z 0000000180089f40 f   GuContactCapsuleMesh.obj
 0001:0008a320       ?transformQueryBounds@FastVertex2ShapeScaling@Cm@physx@@QEBAXAEAV?$PxVec3T@M@3@0AEAV?$PxMat33T@M@3@@Z 000000018008b320 f i GuContactCapsuleMesh.obj
 0001:0008e5c0       ?contactBoxConvex@Gu@physx@@YA_NAEBVPxGeometry@2@0AEBUPxTransformPadded@2@1AEBUNarrowPhaseParams@12@AEAUCache@12@AEAVPxContactBuffer@2@PEAVPxRenderOutput@2@@Z 000000018008f5c0 f   GuContactConvexConvex.obj
 0001:0008e790       ?contactConvexConvex@Gu@physx@@YA_NAEBVPxGeometry@2@0AEBUPxTransformPadded@2@1AEBUNarrowPhaseParams@12@AEAUCache@12@AEAVPxContactBuffer@2@PEAVPxRenderOutput@2@@Z 000000018008f790 f   GuContactConvexConvex.obj
 0001:0008ec10       ?transformPlaneToShapeSpace@FastVertex2ShapeScaling@Cm@physx@@QEBAXAEBV?$PxVec3T@M@3@MAEAV43@AEAM@Z 000000018008fc10 f i GuContactConvexConvex.obj
 0001:0008f0c0       ??_EConvexMeshContactGenerationCallback@@UEAAPEAXI@Z 00000001800900c0 f i GuContactConvexMesh.obj
 0001:0008f0c0       ??_GConvexMeshContactGenerationCallback@@UEAAPEAXI@Z 00000001800900c0 f i GuContactConvexMesh.obj
 0001:0008f120       ?addData@?$CacheMap@UCachedEdge@Gu@physx@@$0IA@@Gu@physx@@QEAA_NAEBUCachedEdge@23@@Z 0000000180090120 f i GuContactConvexMesh.obj
 0001:0008f200       ?addData@?$CacheMap@UCachedVertex@Gu@physx@@$0IA@@Gu@physx@@QEAA_NAEBUCachedVertex@23@@Z 0000000180090200 f i GuContactConvexMesh.obj
 0001:0008f290       ?allocate@?$PxArray@IV?$PxInlineAllocator@$0BBAA@V?$PxReflectionAllocator@I@physx@@@physx@@@physx@@IEAAPEAII@Z 0000000180090290 f i GuContactConvexMesh.obj
 0001:0008f690       ?contactBoxHeightfield@Gu@physx@@YA_NAEBVPxGeometry@2@0AEBUPxTransformPadded@2@1AEBUNarrowPhaseParams@12@AEAUCache@12@AEAVPxContactBuffer@2@PEAVPxRenderOutput@2@@Z 0000000180090690 f   GuContactConvexMesh.obj
 0001:0008f810       ?contactBoxMesh@Gu@physx@@YA_NAEBVPxGeometry@2@0AEBUPxTransformPadded@2@1AEBUNarrowPhaseParams@12@AEAUCache@12@AEAVPxContactBuffer@2@PEAVPxRenderOutput@2@@Z 0000000180090810 f   GuContactConvexMesh.obj
 0001:0008f9e0       ?contactConvexHeightfield@Gu@physx@@YA_NAEBVPxGeometry@2@0AEBUPxTransformPadded@2@1AEBUNarrowPhaseParams@12@AEAUCache@12@AEAVPxContactBuffer@2@PEAVPxRenderOutput@2@@Z 00000001800909e0 f   GuContactConvexMesh.obj
 0001:0008fb30       ?contactConvexMesh@Gu@physx@@YA_NAEBVPxGeometry@2@0AEBUPxTransformPadded@2@1AEBUNarrowPhaseParams@12@AEAUCache@12@AEAVPxContactBuffer@2@PEAVPxRenderOutput@2@@Z 0000000180090b30 f   GuContactConvexMesh.obj
 0001:00093240       ?processHit@ConvexMeshContactGenerationCallback@@UEAA_NAEBUPxGeomRaycastHit@physx@@AEBV?$PxVec3T@M@3@11AEAMPEBI@Z 0000000180094240 f i GuContactConvexMesh.obj
 0001:00093c00       ?recreate@?$PxArray@IV?$PxInlineAllocator@$0BBAA@V?$PxReflectionAllocator@I@physx@@@physx@@@physx@@IEAAXI@Z 0000000180094c00 f i GuContactConvexMesh.obj
 0001:000952e0       ?contactPlaneBox@Gu@physx@@YA_NAEBVPxGeometry@2@0AEBUPxTransformPadded@2@1AEBUNarrowPhaseParams@12@AEAUCache@12@AEAVPxContactBuffer@2@PEAVPxRenderOutput@2@@Z 00000001800962e0 f   GuContactPlaneBox.obj
 0001:00095fa0       ?contactPlaneCapsule@Gu@physx@@YA_NAEBVPxGeometry@2@0AEBUPxTransformPadded@2@1AEBUNarrowPhaseParams@12@AEAUCache@12@AEAVPxContactBuffer@2@PEAVPxRenderOutput@2@@Z 0000000180096fa0 f   GuContactPlaneCapsule.obj
 0001:00096670       ?contactPlaneConvex@Gu@physx@@YA_NAEBVPxGeometry@2@0AEBUPxTransformPadded@2@1AEBUNarrowPhaseParams@12@AEAUCache@12@AEAVPxContactBuffer@2@PEAVPxRenderOutput@2@@Z 0000000180097670 f   GuContactPlaneConvex.obj
 0001:000983b0       ?contactPolygonPolygonExt@Gu@physx@@YA_NIPEBV?$PxVec3T@M@2@PEBEAEBV?$PxMat34T@M@2@AEBVPxPlane@2@AEBV?$PxMat33T@M@2@I01234AEBV32@22IIAEAVPxContactBuffer@2@_N5M@Z 00000001800993b0 f   GuContactPolygonPolygon.obj
 0001:00099b20       ?findRotationMatrixFromZ@Gu@physx@@YA?AV?$PxMat33T@M@2@AEBV?$PxVec3T@M@2@@Z 000000018009ab20 f   GuContactPolygonPolygon.obj
 0001:0009a540       ?contactSphereBox@Gu@physx@@YA_NAEBVPxGeometry@2@0AEBUPxTransformPadded@2@1AEBUNarrowPhaseParams@12@AEAUCache@12@AEAVPxContactBuffer@2@PEAVPxRenderOutput@2@@Z 000000018009b540 f   GuContactSphereBox.obj
 0001:0009ab10       ?contactSphereCapsule@Gu@physx@@YA_NAEBVPxGeometry@2@0AEBUPxTransformPadded@2@1AEBUNarrowPhaseParams@12@AEAUCache@12@AEAVPxContactBuffer@2@PEAVPxRenderOutput@2@@Z 000000018009bb10 f   GuContactSphereCapsule.obj
 0001:0009b8f0       ?contactSphereHeightfield@Gu@physx@@YA_NAEBVPxGeometry@2@0AEBUPxTransformPadded@2@1AEBUNarrowPhaseParams@12@AEAUCache@12@AEAVPxContactBuffer@2@PEAVPxRenderOutput@2@@Z 000000018009c8f0 f   GuContactSphereMesh.obj
 0001:0009c2f0       ?contactSphereMesh@Gu@physx@@YA_NAEBVPxGeometry@2@0AEBUPxTransformPadded@2@1AEBUNarrowPhaseParams@12@AEAUCache@12@AEAVPxContactBuffer@2@PEAVPxRenderOutput@2@@Z 000000018009d2f0 f   GuContactSphereMesh.obj
 0001:0009e670       ?contactSpherePlane@Gu@physx@@YA_NAEBVPxGeometry@2@0AEBUPxTransformPadded@2@1AEBUNarrowPhaseParams@12@AEAUCache@12@AEAVPxContactBuffer@2@PEAVPxRenderOutput@2@@Z 000000018009f670 f   GuContactSpherePlane.obj
 0001:0009e880       ?contactSphereSphere@Gu@physx@@YA_NAEBVPxGeometry@2@0AEBUPxTransformPadded@2@1AEBUNarrowPhaseParams@12@AEAUCache@12@AEAVPxContactBuffer@2@PEAVPxRenderOutput@2@@Z 000000018009f880 f   GuContactSphereSphere.obj
 0001:0009ea00       ?contactCustomGeometryGeometry@Gu@physx@@YA_NAEBVPxGeometry@2@0AEBUPxTransformPadded@2@1AEBUNarrowPhaseParams@12@AEAUCache@12@AEAVPxContactBuffer@2@PEAVPxRenderOutput@2@@Z 000000018009fa00 f   GuContactCustomGeometry.obj
 0001:0009ea60       ?contactGeometryCustomGeometry@Gu@physx@@YA_NAEBVPxGeometry@2@0AEBUPxTransformPadded@2@1AEBUNarrowPhaseParams@12@AEAUCache@12@AEAVPxContactBuffer@2@PEAVPxRenderOutput@2@@Z 000000018009fa60 f   GuContactCustomGeometry.obj
 0001:0009eb20       ?selectNormal@Gu@physx@@YA_NEMM@Z 000000018009fb20 f   GuFeatureCode.obj
 0001:0009eba0       ??0BigConvexData@physx@@QEAA@XZ 000000018009fba0 f   GuBigConvexData.obj
 0001:0009ebc0       ??1BigConvexData@physx@@QEAA@XZ 000000018009fbc0 f   GuBigConvexData.obj
 0001:0009ec80       ?ComputeNearestOffset@BigConvexData@physx@@QEBAIAEBV?$PxVec3T@M@2@@Z 000000018009fc80 f   GuBigConvexData.obj
 0001:0009ed80       ?ComputeOffset@BigConvexData@physx@@QEBAIAEBV?$PxVec3T@M@2@@Z 000000018009fd80 f   GuBigConvexData.obj
 0001:0009ee80       ?CreateOffsets@BigConvexData@physx@@IEAAXXZ 000000018009fe80 f   GuBigConvexData.obj
 0001:0009eed0       ?Load@BigConvexData@physx@@QEAA_NAEAVPxInputStream@2@@Z 000000018009fed0 f   GuBigConvexData.obj
 0001:0009efe0       ?VLoad@BigConvexData@physx@@IEAA_NAEAVPxInputStream@2@@Z 000000018009ffe0 f   GuBigConvexData.obj
 0001:0009f180       ?exportExtraData@BigConvexData@physx@@QEAAXAEAVPxSerializationContext@2@@Z 00000001800a0180 f   GuBigConvexData.obj
 0001:0009f200       ?importExtraData@BigConvexData@physx@@QEAAXAEAVPxDeserializationContext@2@@Z 00000001800a0200 f   GuBigConvexData.obj
 0001:0009f270       ?findUniqueConvexEdges@Gu@physx@@YAIIPEIAUConvexEdge@12@IPEIBUHullPolygonData@12@PEIBE@Z 00000001800a0270 f   GuConvexHelper.obj
 0001:0009f3b0       ?getConvexData@Gu@physx@@YA_NAEBVPxConvexMeshGeometry@2@AEAVFastVertex2ShapeScaling@Cm@2@AEAVPxBounds3@2@AEAUPolygonalData@12@@Z 00000001800a03b0 f   GuConvexHelper.obj
 0001:0009f630       ?getScaledConvex@Gu@physx@@YAXAEAPEAV?$PxVec3T@M@2@AEAPEAEPEAV32@PEAE_NPEBV32@PEBEIAEBVFastVertex2ShapeScaling@Cm@2@@Z 00000001800a0630 f   GuConvexHelper.obj
 0001:0009f760       ??0ConvexMesh@Gu@physx@@QEAA@PEAVMeshFactory@12@@Z 00000001800a0760 f   GuConvexMesh.obj
 0001:0009f7f0       ??0ConvexMesh@Gu@physx@@QEAA@PEAVMeshFactory@12@AEAUConvexHullInitData@12@@Z 00000001800a07f0 f   GuConvexMesh.obj
 0001:0009f920       ??_EConvexMesh@Gu@physx@@UEAAPEAXI@Z 00000001800a0920 f i GuConvexMesh.obj
 0001:0009f920       ??_GConvexMesh@Gu@physx@@UEAAPEAXI@Z 00000001800a0920 f i GuConvexMesh.obj
 0001:0009fa30       ??_EPxBVH@physx@@MEAAPEAXI@Z 00000001800a0a30 f i GuBVH.obj
 0001:0009fa30       ??_EPxBase@physx@@MEAAPEAXI@Z 00000001800a0a30 f i GuConvexMesh.obj
 0001:0009fa30       ??_GPxBVH@physx@@MEAAPEAXI@Z 00000001800a0a30 f i GuBVH.obj
 0001:0009fa30       ??_GPxBase@physx@@MEAAPEAXI@Z 00000001800a0a30 f i GuConvexMesh.obj
 0001:0009fa60       ?acquireReference@ConvexMesh@Gu@physx@@UEAAXXZ 00000001800a0a60 f   GuConvexMesh.obj
 0001:0009fa60       ?acquireReference@HeightField@Gu@physx@@UEAAXXZ 00000001800a0a60 f   GuHeightField.obj
 0001:0009fa60       ?acquireReference@SoftBodyAuxData@Gu@physx@@UEAAXXZ 00000001800a0a60 f   GuTetrahedronMesh.obj
 0001:0009fa60       ?acquireReference@SoftBodyMesh@Gu@physx@@UEAAXXZ 00000001800a0a60 f   GuTetrahedronMesh.obj
 0001:0009fa60       ?acquireReference@TetrahedronMesh@Gu@physx@@UEAAXXZ 00000001800a0a60 f   GuTetrahedronMesh.obj
 0001:0009fa60       ?acquireReference@TriangleMesh@Gu@physx@@UEAAXXZ 00000001800a0a60 f   GuTriangleMesh.obj
 0001:0009ff20       ?createObject@ConvexMesh@Gu@physx@@SAPEAV123@AEAPEAEAEAVPxDeserializationContext@3@@Z 00000001800a0f20 f   GuConvexMesh.obj
 0001:000a0040       ?exportExtraData@ConvexMesh@Gu@physx@@UEAAXAEAVPxSerializationContext@3@@Z 00000001800a1040 f   GuConvexMesh.obj
 0001:000a0140       ?getConcreteTypeName@PxConvexMesh@physx@@UEBAPEBDXZ 00000001800a1140 f i GuConvexMesh.obj
 0001:000a0150       ?getIndexBuffer@ConvexMesh@Gu@physx@@UEBAPEBEXZ 00000001800a1150 f i GuConvexMesh.obj
 0001:000a0190       ?getLocalBounds@ConvexMesh@Gu@physx@@UEBA?AVPxBounds3@3@XZ 00000001800a1190 f   GuConvexMesh.obj
 0001:000a0220       ?getMassInformation@ConvexMesh@Gu@physx@@UEBAXAEAMAEAV?$PxMat33T@M@3@AEAV?$PxVec3T@M@3@@Z 00000001800a1220 f   GuConvexMesh.obj
 0001:000a0290       ?getNbPolygons@ConvexMesh@Gu@physx@@UEBAIXZ 00000001800a1290 f i GuConvexMesh.obj
 0001:000a02a0       ?getNbVertices@ConvexMesh@Gu@physx@@UEBAIXZ 00000001800a12a0 f i GuConvexMesh.obj
 0001:000a02b0       ?getPolygonData@ConvexMesh@Gu@physx@@UEBA_NIAEAUPxHullPolygon@3@@Z 00000001800a12b0 f   GuConvexMesh.obj
 0001:000a0300       ?getReferenceCount@ConvexMesh@Gu@physx@@UEBAIXZ 00000001800a1300 f   GuConvexMesh.obj
 0001:000a0300       ?getReferenceCount@HeightField@Gu@physx@@UEBAIXZ 00000001800a1300 f   GuHeightField.obj
 0001:000a0300       ?getReferenceCount@SoftBodyAuxData@Gu@physx@@UEBAIXZ 00000001800a1300 f   GuTetrahedronMesh.obj
 0001:000a0300       ?getReferenceCount@SoftBodyMesh@Gu@physx@@UEBAIXZ 00000001800a1300 f   GuTetrahedronMesh.obj
 0001:000a0300       ?getReferenceCount@TetrahedronMesh@Gu@physx@@UEBAIXZ 00000001800a1300 f   GuTetrahedronMesh.obj
 0001:000a0300       ?getReferenceCount@TriangleMesh@Gu@physx@@UEBAIXZ 00000001800a1300 f   GuTriangleMesh.obj
 0001:000a0300       ?length@DNameStatusNode@@UEBAHXZ 00000001800a1300 f   libvcruntime:undname.obj
 0001:000a0300       ?raw_length@DNameStatusNode@@UEBAHXZ 00000001800a1300 f   libvcruntime:undname.obj
 0001:000a0310       ?getSDF@ConvexMesh@Gu@physx@@UEBAPEBMXZ 00000001800a1310 f   GuConvexMesh.obj
 0001:000a0320       ?getVertices@ConvexMesh@Gu@physx@@UEBAPEBV?$PxVec3T@M@3@XZ 00000001800a1320 f i GuConvexMesh.obj
 0001:000a0340       ?isGpuCompatible@ConvexMesh@Gu@physx@@UEBA_NXZ 00000001800a1340 f   GuConvexMesh.obj
 0001:000a0380       ?isKindOf@PxBase@physx@@MEBA_NPEBD@Z 00000001800a1380 f i GuConvexMesh.obj
 0001:000a03a0       ?isKindOf@PxConvexMesh@physx@@MEBA_NPEBD@Z 00000001800a13a0 f i GuConvexMesh.obj
 0001:000a0430       ?isReleasable@PxBase@physx@@UEBA_NXZ 00000001800a1430 f i GuConvexMesh.obj
 0001:000a0440       ?load@ConvexMesh@Gu@physx@@QEAA_NAEAVPxInputStream@3@@Z 00000001800a1440 f   GuConvexMesh.obj
 0001:000a09a0       ?onRefCountZero@ConvexMesh@Gu@physx@@UEAAXXZ 00000001800a19a0 f   GuConvexMesh.obj
 0001:000a0ad0       ?release@ConvexMesh@Gu@physx@@UEAAXXZ 00000001800a1ad0 f   GuConvexMesh.obj
 0001:000a0ad0       ?release@HeightField@Gu@physx@@UEAAXXZ 00000001800a1ad0 f   GuHeightField.obj
 0001:000a0ad0       ?release@SoftBodyAuxData@Gu@physx@@UEAAXXZ 00000001800a1ad0 f   GuTetrahedronMesh.obj
 0001:000a0ad0       ?release@SoftBodyMesh@Gu@physx@@UEAAXXZ 00000001800a1ad0 f   GuTetrahedronMesh.obj
 0001:000a0ad0       ?release@TetrahedronMesh@Gu@physx@@UEAAXXZ 00000001800a1ad0 f   GuTetrahedronMesh.obj
 0001:000a0ad0       ?release@TriangleMesh@Gu@physx@@UEAAXXZ 00000001800a1ad0 f   GuTriangleMesh.obj
 0001:000a0b00       ??Dphysx@@YA?AV?$PxMat34T@M@0@AEBVPxMeshScale@0@AEBV10@@Z 00000001800a1b00 f i GuConvexUtilsInternal.obj
 0001:000a1070       ?computeHullOBB@Gu@physx@@YAXAEAVBox@12@AEBVPxBounds3@2@MAEBV?$PxMat34T@M@2@2AEBVFastVertex2ShapeScaling@Cm@2@_N@Z 00000001800a2070 f   GuConvexUtilsInternal.obj
 0001:000a1520       ?computeOBBAroundConvex@Gu@physx@@YAXAEAVBox@12@AEBVPxConvexMeshGeometry@2@PEBVPxConvexMesh@2@AEBV?$PxTransformT@M@2@@Z 00000001800a2520 f   GuConvexUtilsInternal.obj
 0001:000a1d70       ?computeVertexSpaceOBB@Gu@physx@@YAXAEAVBox@12@AEBV312@AEBV?$PxTransformT@M@2@AEBVPxMeshScale@2@@Z 00000001800a2d70 f   GuConvexUtilsInternal.obj
 0001:000a20a0       ?transform@physx@@YA?AVBox@Gu@1@AEBV?$PxMat34T@M@1@AEBV231@@Z 00000001800a30a0 f i GuConvexUtilsInternal.obj
 0001:000a22f0       ?localSearch@physx@@YAXAEAIAEBV?$PxVec3T@M@1@PEBV21@PEBUBigConvexRawData@Gu@1@@Z 00000001800a32f0 f   GuHillClimbing.obj
 0001:000a2430       ??0PCMPolygonalBox@Gu@physx@@QEAA@AEBV?$PxVec3T@M@2@@Z 00000001800a3430 f   GuPCMShapeConvex.obj
 0001:000a2430       ??0PolygonalBox@Gu@physx@@QEAA@AEBV?$PxVec3T@M@2@@Z 00000001800a3430 f   GuShapeConvex.obj
 0001:000a38f0       ?getPolygonalData@PolygonalBox@Gu@physx@@QEBAXPEIAUPolygonalData@23@@Z 00000001800a48f0 f   GuShapeConvex.obj
 0001:000a3960       ?getPolygonalData_Convex@Gu@physx@@YAXPEIAUPolygonalData@12@PEIBUConvexHullData@12@AEBVFastVertex2ShapeScaling@Cm@2@@Z 00000001800a4960 f   GuShapeConvex.obj
 0001:000a3ac0       ?distancePointBoxSquared@Gu@physx@@YAMAEBV?$PxVec3T@M@2@00AEBV?$PxMat33T@M@2@PEAV32@@Z 00000001800a4ac0 f   GuDistancePointBox.obj
 0001:000a3c10       ?closestPtPointTriangle@Gu@physx@@YA?AV?$PxVec3T@M@2@AEBV32@000AEAM1@Z 00000001800a4c10 f   GuDistancePointTriangle.obj
 0001:000a4130       ?distancePointTriangleSquared2UnitBox@Gu@physx@@YA?AT__m128@@AEBT3@000AEAT3@11@Z 00000001800a5130 f   GuDistancePointTriangle.obj
 0001:000a4250       ?distancePointTriangleSquared@Gu@physx@@YA?AT__m128@@AEBT3@000AEAT3@11@Z 00000001800a5250 f   GuDistancePointTriangle.obj
 0001:000a4fa0       ?distanceSegmentBoxSquared@Gu@physx@@YAMAEBV?$PxVec3T@M@2@000AEBV?$PxMat33T@M@2@PEAMPEAV32@@Z 00000001800a5fa0 f   GuDistanceSegmentBox.obj
 0001:000a5820       ?distanceSegmentSegmentSquared4@Gu@physx@@YA?AT__m128@@AEBT3@000000000AEAT3@1@Z 00000001800a6820 f   GuDistanceSegmentSegment.obj
 0001:000a5b30       ?distanceSegmentSegmentSquared@Gu@physx@@YA?AT__m128@@AEBT3@000AEAT3@1@Z 00000001800a6b30 f   GuDistanceSegmentSegment.obj
 0001:000a5cf0       ?distanceSegmentSegmentSquared@Gu@physx@@YAMAEBV?$PxVec3T@M@2@000PEAM1@Z 00000001800a6cf0 f   GuDistanceSegmentSegment.obj
 0001:000a5f80       ?distanceSegmentSegmentSquared@Gu@physx@@YAMAEBV?$PxVec3T@M@2@0M00MPEAM1@Z 00000001800a6f80 f   GuDistanceSegmentSegment.obj
 0001:000a66c0       ?distanceSegmentTriangleSquared@Gu@physx@@YA?AT__m128@@AEBT3@0000AEAT3@1@Z 00000001800a76c0 f   GuDistanceSegmentTriangle.obj
 0001:000a6e00       ?distanceSegmentTriangleSquared@Gu@physx@@YAMAEBV?$PxVec3T@M@2@0000PEAM11@Z 00000001800a7e00 f   GuDistanceSegmentTriangle.obj
 0001:000a8470       ?distanceTriangleTriangleSquared@Gu@physx@@YAMAEAV?$PxVec3T@M@2@0QEBVPxVec3Padded@2@1@Z 00000001800a9470 f   GuDistanceTriangleTriangle.obj
 0001:000a8fa0       ?PointOutsideOfPlane4@Gu@physx@@YA?AV?$PxVec4T@M@2@AEBV?$PxVec3T@M@2@0000@Z 00000001800a9fa0 f   GuDistancePointTetrahedron.obj
 0001:000a9410       ?closestPtPointTetrahedron@Gu@physx@@YA?AV?$PxVec3T@M@2@AEBV32@0000AEBV?$PxVec4T@M@2@@Z 00000001800aa410 f   GuDistancePointTetrahedron.obj
 0001:000aa500       ?PenetrationDepth@EPA@Gu@physx@@QEAA?AW4GjkStatus@23@AEBUGjkConvex@23@0PEIBT__m128@@1E_NT6@AEAUGjkOutput@23@@Z 00000001800ab500 f   GuEPA.obj
 0001:000aafc0       ?addFacet@EPA@Gu@physx@@QEAAPEAVFacet@23@IIIAEBT__m128@@@Z 00000001800abfc0 f   GuEPA.obj
 0001:000ab3f0       ?epaPenetration@Gu@physx@@YA?AW4GjkStatus@12@AEBUGjkConvex@12@0PEIBE1E_NT__m128@@AEAUGjkOutput@12@@Z 00000001800ac3f0 f   GuEPA.obj
 0001:000ab560       ?epaPenetration@Gu@physx@@YA?AW4GjkStatus@12@AEBUGjkConvex@12@0PEIBT__m128@@1E_NT5@AEAUGjkOutput@12@@Z 00000001800ac560 f   GuEPA.obj
 0001:000ab610       ?silhouette@Facet@Gu@physx@@QEAAXAEBT__m128@@PEIBT4@1AEAVEdgeBuffer@23@AEAV?$InlineDeferredIDPool@$0EA@@Cm@3@@Z 00000001800ac610 f   GuEPA.obj
 0001:000ab7e0       ?closestPtPointTetrahedron@Gu@physx@@YA?AT__m128@@PEIAT3@00AEAI@Z 00000001800ac7e0 f   GuGJKSimplex.obj
 0001:000abf50       ?closestPtPointTetrahedron@Gu@physx@@YA?AT__m128@@PEIAT3@00PEIAH1AEAI@Z 00000001800acf50 f   GuGJKSimplex.obj
 0001:000ad9d0       ??$gjk@UGjkConvex@Gu@physx@@U123@@Gu@physx@@YA?AW4GjkStatus@01@AEBUGjkConvex@01@0AEBT__m128@@1AEAT4@222@Z 00000001800ae9d0 f i GuGJKTest.obj
 0001:000ae5f0       ??$gjkPenetration@UGjkConvex@Gu@physx@@U123@@Gu@physx@@YA?AW4GjkStatus@01@AEBUGjkConvex@01@0AEBT__m128@@1_NPEIAE3AEAEAEAUGjkOutput@01@@Z 00000001800af5f0 f i GuGJKTest.obj
 0001:000ae660       ??$gjkPenetration@UGjkConvex@Gu@physx@@U123@@Gu@physx@@YA?AW4GjkStatus@01@AEBUGjkConvex@01@0AEBT__m128@@1_NPEIAE3PEIAT4@4AEAEAEAUGjkOutput@01@@Z 00000001800af660 f i GuGJKTest.obj
 0001:000afab0       ?testEpaPenetration@Gu@physx@@YA?AW4GjkStatus@12@AEBUGjkConvex@12@0PEBE1EAEAUGjkOutput@12@@Z 00000001800b0ab0 f   GuGJKTest.obj
 0001:000afb00       ?testGjk@Gu@physx@@YA?AW4GjkStatus@12@AEBUGjkConvex@12@0AEBT__m128@@1AEAT5@222@Z 00000001800b0b00 f   GuGJKTest.obj
 0001:000afb10       ?testGjkPenetration@Gu@physx@@YA?AW4GjkStatus@12@AEBUGjkConvex@12@0AEBT__m128@@1PEAE2AEAEAEAUGjkOutput@12@@Z 00000001800b0b10 f   GuGJKTest.obj
 0001:000afb60       ??0HeightField@Gu@physx@@QEAA@PEAVMeshFactory@12@@Z 00000001800b0b60 f   GuHeightField.obj
 0001:000afbb0       ??0HeightField@Gu@physx@@QEAA@PEAVMeshFactory@12@AEAUHeightFieldData@12@@Z 00000001800b0bb0 f   GuHeightField.obj
 0001:000afc60       ??1HeightField@Gu@physx@@UEAA@XZ 00000001800b0c60 f   GuHeightField.obj
 0001:000afce0       ??_EHeightField@Gu@physx@@UEAAPEAXI@Z 00000001800b0ce0 f i GuHeightField.obj
 0001:000afce0       ??_GHeightField@Gu@physx@@UEAAPEAXI@Z 00000001800b0ce0 f i GuHeightField.obj
 0001:000afd90       ?computeCellCoordinates@HeightField@Gu@physx@@QEBAIMMAEAM0@Z 00000001800b0d90 f   GuHeightField.obj
 0001:000afeb0       ?createObject@HeightField@Gu@physx@@SAPEAV123@AEAPEAEAEAVPxDeserializationContext@3@@Z 00000001800b0eb0 f   GuHeightField.obj
 0001:000aff00       ?exportExtraData@HeightField@Gu@physx@@UEAAXAEAVPxSerializationContext@3@@Z 00000001800b0f00 f   GuHeightField.obj
 0001:000aff50       ?getConcreteTypeName@PxHeightField@physx@@UEBAPEBDXZ 00000001800b0f50 f i GuHeightField.obj
 0001:000aff60       ?getConvexEdgeThreshold@HeightField@Gu@physx@@UEBAMXZ 00000001800b0f60 f i GuHeightField.obj
 0001:000aff70       ?getFlags@HeightField@Gu@physx@@UEBA?AV?$PxFlags@W4Enum@PxHeightFieldFlag@physx@@G@3@XZ 00000001800b0f70 f i GuHeightField.obj
 0001:000aff80       ?getFormat@HeightField@Gu@physx@@UEBA?AW4Enum@PxHeightFieldFormat@3@XZ 00000001800b0f80 f i GuHeightField.obj
 0001:000aff90       ?getHeight@HeightField@Gu@physx@@UEBAMMM@Z 00000001800b0f90 f i GuHeightField.obj
 0001:000b00b0       ?getNbColumns@HeightField@Gu@physx@@UEBAIXZ 00000001800b10b0 f i GuHeightField.obj
 0001:000b00c0       ?getNbBounds@BVH@Gu@physx@@UEBAIXZ 00000001800b10c0 f i GuBVH.obj
 0001:000b00c0       ?getNbPrimitives@SourceMesh@Gu@physx@@UEBAIXZ 00000001800b10c0 f i GuBV4.obj
 0001:000b00c0       ?getNbPrimitives@TetrahedronSourceMesh@Gu@physx@@UEBAIXZ 00000001800b10c0 f i GuBV4.obj
 0001:000b00c0       ?getNbRows@HeightField@Gu@physx@@UEBAIXZ 00000001800b10c0 f i GuHeightField.obj
 0001:000b00d0       ?getSample@HeightField@Gu@physx@@UEBAAEBUPxHeightFieldSample@3@II@Z 00000001800b10d0 f i GuHeightField.obj
 0001:000b00e0       ?getSampleStride@HeightField@Gu@physx@@UEBAIXZ 00000001800b10e0 f i GuHeightField.obj
 0001:000b00f0       ?getTimestamp@HeightField@Gu@physx@@UEBAIXZ 00000001800b10f0 f i GuHeightField.obj
 0001:000b0100       ?getTriangleMaterialIndex@HeightField@Gu@physx@@UEBAGI@Z 00000001800b1100 f i GuHeightField.obj
 0001:000b0130       ?getTriangleNormal@HeightField@Gu@physx@@UEBA?AV?$PxVec3T@M@3@I@Z 00000001800b1130 f i GuHeightField.obj
 0001:000b0150       ?getTriangleNormalInternal@HeightField@Gu@physx@@QEBA?AV?$PxVec3T@M@3@I@Z 00000001800b1150 f i GuHeightField.obj
 0001:000b0480       ?isCollisionVertexPreca@HeightField@Gu@physx@@QEBA_NIIIG@Z 00000001800b1480 f   GuHeightField.obj
 0001:000b0520       ?isConvexVertex@HeightField@Gu@physx@@QEBA_NIII@Z 00000001800b1520 f i GuHeightField.obj
 0001:000b05f0       ?isKindOf@PxHeightField@physx@@MEBA_NPEBD@Z 00000001800b15f0 f i GuHeightField.obj
 0001:000b0680       ?isSolidVertex@HeightField@Gu@physx@@QEBA_NIIIGAEA_N@Z 00000001800b1680 f   GuHeightField.obj
 0001:000b0920       ?load@HeightField@Gu@physx@@QEAA_NAEAVPxInputStream@3@@Z 00000001800b1920 f   GuHeightField.obj
 0001:000b0c80       ?loadFromDesc@HeightField@Gu@physx@@QEAA_NAEBVPxHeightFieldDesc@3@@Z 00000001800b1c80 f   GuHeightField.obj
 0001:000b0e80       ?modifySamples@HeightField@Gu@physx@@UEAA_NHHAEBVPxHeightFieldDesc@3@_N@Z 00000001800b1e80 f   GuHeightField.obj
 0001:000b11f0       ?onRefCountZero@HeightField@Gu@physx@@UEAAXXZ 00000001800b21f0 f   GuHeightField.obj
 0001:000b12c0       ?parseTrianglesForCollisionVertices@HeightField@Gu@physx@@QEAAXG@Z 00000001800b22c0 f   GuHeightField.obj
 0001:000b17d0       ?releaseMemory@HeightField@Gu@physx@@QEAAXXZ 00000001800b27d0 f   GuHeightField.obj
 0001:000b1820       ?resizeAndClear@?$PxBitMapBase@VPxAllocator@physx@@@physx@@QEAAXI@Z 00000001800b2820 f i GuHeightField.obj
 0001:000b18d0       ?save@HeightField@Gu@physx@@QEAA_NAEAVPxOutputStream@3@_N@Z 00000001800b28d0 f   GuHeightField.obj
 0001:000b1b10       ?saveCells@HeightField@Gu@physx@@UEBAIPEAXI@Z 00000001800b2b10 f   GuHeightField.obj
 0001:000b1b50       ?computeLocalBounds@HeightFieldUtil@Gu@physx@@QEBAXAEAVPxBounds3@3@@Z 00000001800b2b50 f   GuHeightFieldUtil.obj
 0001:000b2010       ?getTriangle@HeightFieldUtil@Gu@physx@@QEBAIAEBV?$PxTransformT@M@3@AEAVPxTriangle@3@PEAI2I_N3@Z 00000001800b3010 f   GuHeightFieldUtil.obj
 0001:000b2b10       ?getTriangleAdjacencyIndices@HeightField@Gu@physx@@QEBAXIIIIAEAI00@Z 00000001800b3b10 f i GuHeightFieldUtil.obj
 0001:000b2cc0       ?getTriangleVertexIndices@HeightField@Gu@physx@@QEBAXIAEAI00@Z 00000001800b3cc0 f i GuHeightFieldUtil.obj
 0001:000b2d80       ?overlapAABBTriangles@HeightFieldUtil@Gu@physx@@QEBAXAEBVPxBounds3@3@AEAVOverlapReport@23@I@Z 00000001800b3d80 f   GuHeightFieldUtil.obj
 0001:000b31e0       ??$gjk@U?$RelativeConvex@VTriangleV@Gu@physx@@@Gu@physx@@U?$LocalConvex@VConvexHullV@Gu@physx@@@23@@Gu@physx@@YA?AW4GjkStatus@01@AEBU?$RelativeConvex@VTriangleV@Gu@physx@@@01@AEBU?$LocalConvex@VConvexHullV@Gu@physx@@@01@AEBT__m128@@2AEAT5@333@Z 00000001800b41e0 f i GuOverlapTestsHF.obj
 0001:000b4120       ?GeomOverlapCallback_BoxHeightfield@@YA_NAEBVPxGeometry@physx@@AEBV?$PxTransformT@M@2@01PEAUTriggerCache@Gu@2@PEAUPxQueryThreadContext@2@@Z 00000001800b5120 f   GuOverlapTestsHF.obj
 0001:000b4680       ?GeomOverlapCallback_CapsuleHeightfield@@YA_NAEBVPxGeometry@physx@@AEBV?$PxTransformT@M@2@01PEAUTriggerCache@Gu@2@PEAUPxQueryThreadContext@2@@Z 00000001800b5680 f   GuOverlapTestsHF.obj
 0001:000b4c80       ?GeomOverlapCallback_ConvexHeightfield@@YA_NAEBVPxGeometry@physx@@AEBV?$PxTransformT@M@2@01PEAUTriggerCache@Gu@2@PEAUPxQueryThreadContext@2@@Z 00000001800b5c80 f   GuOverlapTestsHF.obj
 0001:000b56c0       ?GeomOverlapCallback_SphereHeightfield@@YA_NAEBVPxGeometry@physx@@AEBV?$PxTransformT@M@2@01PEAUTriggerCache@Gu@2@PEAUPxQueryThreadContext@2@@Z 00000001800b66c0 f   GuOverlapTestsHF.obj
 0001:000b6280       ??$gjkRaycast@U?$LocalConvex@VTriangleV@Gu@physx@@@Gu@physx@@U?$LocalConvex@VConvexHullV@Gu@physx@@@23@@Gu@physx@@YA_NAEBU?$LocalConvex@VTriangleV@Gu@physx@@@01@AEBU?$LocalConvex@VConvexHullV@Gu@physx@@@01@AEBT__m128@@222AEAT4@33M@Z 00000001800b7280 f i GuSweepsHF.obj
 0001:000b7080       ??$traceSegment@VBoxTraceSegmentReport@@$0A@$00@HeightFieldTraceUtil@Gu@physx@@QEBAXAEBV?$PxVec3T@M@2@0MPEAVBoxTraceSegmentReport@@AEBVPxBounds3@2@_NPEBV32@@Z 00000001800b8080 f i GuSweepsHF.obj
 0001:000b7080       ??$traceSegment@VCapsuleTraceSegmentReport@@$0A@$00@HeightFieldTraceUtil@Gu@physx@@QEBAXAEBV?$PxVec3T@M@2@0MPEAVCapsuleTraceSegmentReport@@AEBVPxBounds3@2@_NPEBV32@@Z 00000001800b8080 f i GuSweepsHF.obj
 0001:000b7080       ??$traceSegment@VConvexTraceSegmentReport@@$0A@$00@HeightFieldTraceUtil@Gu@physx@@QEBAXAEBV?$PxVec3T@M@2@0MPEAVConvexTraceSegmentReport@@AEBVPxBounds3@2@_NPEBV32@@Z 00000001800b8080 f i GuSweepsHF.obj
 0001:000b7850       ??0ConvexTraceSegmentReport@@QEAA@AEBVHeightFieldUtil@Gu@physx@@AEBUConvexHullData@23@AEBVPxMeshScale@3@AEBV?$PxTransformT@M@3@3AEBV?$PxVec3T@M@3@MV?$PxFlags@W4Enum@PxHitFlag@physx@@G@3@M@Z 00000001800b8850 f i GuSweepsHF.obj
 0001:000b81d0       ??_EBoxTraceSegmentReport@@UEAAPEAXI@Z 00000001800b91d0 f i GuSweepsHF.obj
 0001:000b81d0       ??_GBoxTraceSegmentReport@@UEAAPEAXI@Z 00000001800b91d0 f i GuSweepsHF.obj
 0001:000b8200       ??_ECapsuleTraceSegmentReport@@UEAAPEAXI@Z 00000001800b9200 f i GuSweepsHF.obj
 0001:000b8200       ??_GCapsuleTraceSegmentReport@@UEAAPEAXI@Z 00000001800b9200 f i GuSweepsHF.obj
 0001:000b8230       ??_EConvexTraceSegmentReport@@UEAAPEAXI@Z 00000001800b9230 f i GuSweepsHF.obj
 0001:000b8230       ??_GConvexTraceSegmentReport@@UEAAPEAXI@Z 00000001800b9230 f i GuSweepsHF.obj
 0001:000b8260       ??_EHeightFieldTraceSegmentReport@@UEAAPEAXI@Z 00000001800b9260 f i GuSweepsHF.obj
 0001:000b8260       ??_GHeightFieldTraceSegmentReport@@UEAAPEAXI@Z 00000001800b9260 f i GuSweepsHF.obj
 0001:000b8290       ?finalizeHit@ConvexTraceSegmentReport@@QEAA_NAEAUPxGeomSweepHit@physx@@AEBVPxHeightFieldGeometry@3@AEBV?$PxTransformT@M@3@AEBVPxConvexMeshGeometry@3@2AEBV?$PxVec3T@M@3@M@Z 00000001800b9290 f i GuSweepsHF.obj
 0001:000b84b0       ?onEvent@BoxTraceSegmentReport@@UEAA_NIPEBI@Z 00000001800b94b0 f i GuSweepsHF.obj
 0001:000b8900       ?onEvent@CapsuleTraceSegmentReport@@UEAA_NIPEBI@Z 00000001800b9900 f i GuSweepsHF.obj
 0001:000b8b20       ?onEvent@ConvexTraceSegmentReport@@UEAA_NIPEBI@Z 00000001800b9b20 f i GuSweepsHF.obj
 0001:000b90e0       ?prepare@?$OverlapTraceSegment@VBoxTraceSegmentReport@@@HeightFieldTraceUtil@Gu@physx@@QEAAXAEBV?$PxVec3T@M@4@00AEAM1@Z 00000001800ba0e0 f i GuSweepsHF.obj
 0001:000b90e0       ?prepare@?$OverlapTraceSegment@VCapsuleTraceSegmentReport@@@HeightFieldTraceUtil@Gu@physx@@QEAAXAEBV?$PxVec3T@M@4@00AEAM1@Z 00000001800ba0e0 f i GuSweepsHF.obj
 0001:000b90e0       ?prepare@?$OverlapTraceSegment@VConvexTraceSegmentReport@@@HeightFieldTraceUtil@Gu@physx@@QEAAXAEBV?$PxVec3T@M@4@00AEAM1@Z 00000001800ba0e0 f i GuSweepsHF.obj
 0001:000b93a0       ?sweepBox_HeightFieldGeom@@YA_NAEBVPxGeometry@physx@@AEBV?$PxTransformT@M@2@AEBVPxBoxGeometry@2@1AEBVBox@Gu@2@AEBV?$PxVec3T@M@2@MAEAUPxGeomSweepHit@2@V?$PxFlags@W4Enum@PxHitFlag@physx@@G@2@MPEAUPxQueryThreadContext@2@@Z 00000001800ba3a0 f   GuSweepsHF.obj
 0001:000ba1e0       ?sweepCapsule_HeightFieldGeom@@YA_NAEBVPxGeometry@physx@@AEBV?$PxTransformT@M@2@AEBVPxCapsuleGeometry@2@1AEBVCapsule@Gu@2@AEBV?$PxVec3T@M@2@MAEAUPxGeomSweepHit@2@V?$PxFlags@W4Enum@PxHitFlag@physx@@G@2@MPEAUPxQueryThreadContext@2@@Z 00000001800bb1e0 f   GuSweepsHF.obj
 0001:000bab30       ?sweepConvex_HeightFieldGeom@@YA_NAEBVPxGeometry@physx@@AEBV?$PxTransformT@M@2@AEBVPxConvexMeshGeometry@2@1AEBV?$PxVec3T@M@2@MAEAUPxGeomSweepHit@2@V?$PxFlags@W4Enum@PxHitFlag@physx@@G@2@MPEAUPxQueryThreadContext@2@@Z 00000001800bbb30 f   GuSweepsHF.obj
 0001:000bb4f0       ?testVertexIndex@?$OverlapTraceSegment@VBoxTraceSegmentReport@@@HeightFieldTraceUtil@Gu@physx@@QEAA_NI@Z 00000001800bc4f0 f i GuSweepsHF.obj
 0001:000bb4f0       ?testVertexIndex@?$OverlapTraceSegment@VCapsuleTraceSegmentReport@@@HeightFieldTraceUtil@Gu@physx@@QEAA_NI@Z 00000001800bc4f0 f i GuSweepsHF.obj
 0001:000bb4f0       ?testVertexIndex@?$OverlapTraceSegment@VConvexTraceSegmentReport@@@HeightFieldTraceUtil@Gu@physx@@QEAA_NI@Z 00000001800bc4f0 f i GuSweepsHF.obj
 0001:000bb650       ?transformFast@PxBounds3@physx@@SA?AV12@AEBV?$PxTransformT@M@2@AEBV12@@Z 00000001800bc650 f i GuSweepsHF.obj
 0001:000bba30       ?visitCells@?$OverlapTraceSegment@VBoxTraceSegmentReport@@@HeightFieldTraceUtil@Gu@physx@@QEAA_NAEBUOverlapRectangle@1234@@Z 00000001800bca30 f i GuSweepsHF.obj
 0001:000bba30       ?visitCells@?$OverlapTraceSegment@VCapsuleTraceSegmentReport@@@HeightFieldTraceUtil@Gu@physx@@QEAA_NAEBUOverlapRectangle@1234@@Z 00000001800bca30 f i GuSweepsHF.obj
 0001:000bba30       ?visitCells@?$OverlapTraceSegment@VConvexTraceSegmentReport@@@HeightFieldTraceUtil@Gu@physx@@QEAA_NAEBUOverlapRectangle@1234@@Z 00000001800bca30 f i GuSweepsHF.obj
 0001:000bbc20       ?intersectOBBOBB@Gu@physx@@YA_NAEBV?$PxVec3T@M@2@0AEBV?$PxMat33T@M@2@001_N@Z 00000001800bcc20 f   GuIntersectionBoxBox.obj
 0001:000bc270       ?intersectCapsuleTriangle@Gu@physx@@YA_NAEBV?$PxVec3T@M@2@000AEBVCapsule@12@AEBUCapsuleTriangleOverlapData@12@@Z 00000001800bd270 f   GuIntersectionCapsuleTriangle.obj
 0001:000bce60       ?intersectEdgeEdge@Gu@physx@@YA_NAEBV?$PxVec3T@M@2@0000AEAMAEAV32@@Z 00000001800bde60 f   GuIntersectionEdgeEdge.obj
 0001:000bd190       ?intersectRayAABB2@Gu@physx@@YA_NAEBT__m128@@0000AEAT3@1@Z 00000001800be190 f   GuIntersectionRayBox.obj
 0001:000bd250       ?intersectRayAABB2@Gu@physx@@YA_NAEBV?$PxVec3T@M@2@000MAEAM1@Z 00000001800be250 f   GuIntersectionRayBox.obj
 0001:000bd400       ?intersectRayAABB@Gu@physx@@YAHAEBV?$PxVec3T@M@2@000AEAM1@Z 00000001800be400 f   GuIntersectionRayBox.obj
 0001:000bd510       ?rayAABBIntersect2@Gu@physx@@YAIAEBV?$PxVec3T@M@2@000AEAV32@AEAM@Z 00000001800be510 f   GuIntersectionRayBox.obj
 0001:000bd710       ?intersectRayCapsuleInternal@Gu@physx@@YAIAEBV?$PxVec3T@M@2@000MQEAM@Z 00000001800be710 f   GuIntersectionRayCapsule.obj
 0001:000bdbd0       ?intersectRaySphere@Gu@physx@@YA_NAEBV?$PxVec3T@M@2@0M0MAEAMPEAV32@@Z 00000001800bebd0 f   GuIntersectionRaySphere.obj
 0001:000bdcc0       ?intersectRaySphereBasic@Gu@physx@@YA_NAEBV?$PxVec3T@M@2@0M0MAEAMPEAV32@@Z 00000001800becc0 f   GuIntersectionRaySphere.obj
 0001:000bde20       ?intersectSphereBox@Gu@physx@@YA_NAEBVSphere@12@AEBVBox@12@@Z 00000001800bee20 f   GuIntersectionSphereBox.obj
 0001:000be050       ?intersectTetrahedronBox@Gu@physx@@YA_NAEBV?$PxVec3T@M@2@000AEBVPxBounds3@2@@Z 00000001800bf050 f   GuIntersectionTetrahedronBox.obj
 0001:000be420       ?intersectTriangleBox@Gu@physx@@YAHAEBVBoxPadded@12@AEBV?$PxVec3T@M@2@11@Z 00000001800bf420 f   GuIntersectionTriangleBox.obj
 0001:000be9f0       ?intersectTriangleBoxBV4@@YAHAEBV?$PxVec3T@M@physx@@00AEBV?$PxMat33T@M@2@00@Z 00000001800bf9f0 f   GuIntersectionTriangleBox.obj
 0001:000bee30       ?intersectTriangleBox_ReferenceCode@Gu@physx@@YAHAEBV?$PxVec3T@M@2@0000@Z 00000001800bfe30 f   GuIntersectionTriangleBox.obj
 0001:000bf600       ?intersectTriangleBox_Unsafe@Gu@physx@@YAHAEBV?$PxVec3T@M@2@0000@Z 00000001800c0600 f   GuIntersectionTriangleBox.obj
 0001:000bf9c0       ?trianglesIntersect@Gu@physx@@YA_NAEBV?$PxVec3T@M@2@00000_N@Z 00000001800c09c0 f   GuIntersectionTriangleTriangle.obj
 0001:000c0de0       ??0BV4Tree@Gu@physx@@QEAA@W4PxEMPTY@2@@Z 00000001800c1de0 f   GuBV4.obj
 0001:000c0df0       ??0BV4Tree@Gu@physx@@QEAA@XZ 00000001800c1df0 f   GuBV4.obj
 0001:000c0e20       ??0SourceMesh@Gu@physx@@QEAA@XZ 00000001800c1e20 f   GuBV4.obj
 0001:000c0e50       ??0TetrahedronSourceMesh@Gu@physx@@QEAA@XZ 00000001800c1e50 f   GuBV4.obj
 0001:000c0e80       ??1BV4Tree@Gu@physx@@QEAA@XZ 00000001800c1e80 f   GuBV4.obj
 0001:000c0ee0       ??1SourceMesh@Gu@physx@@UEAA@XZ 00000001800c1ee0 f   GuBV4.obj
 0001:000c0ee0       ??1TetrahedronSourceMesh@Gu@physx@@UEAA@XZ 00000001800c1ee0 f   GuBV4.obj
 0001:000c0f30       ??4BV4Tree@Gu@physx@@QEAAXAEAV012@@Z 00000001800c1f30 f   GuBV4.obj
 0001:000c0fc0       ??4SourceMesh@Gu@physx@@QEAAXAEAV012@@Z 00000001800c1fc0 f   GuBV4.obj
 0001:000c1010       ??_ESourceMesh@Gu@physx@@UEAAPEAXI@Z 00000001800c2010 f i GuBV4.obj
 0001:000c1010       ??_ETetrahedronSourceMesh@Gu@physx@@UEAAPEAXI@Z 00000001800c2010 f i GuBV4.obj
 0001:000c1010       ??_GSourceMesh@Gu@physx@@UEAAPEAXI@Z 00000001800c2010 f i GuBV4.obj
 0001:000c1010       ??_GTetrahedronSourceMesh@Gu@physx@@UEAAPEAXI@Z 00000001800c2010 f i GuBV4.obj
 0001:000c10b0       ??_ESourceMeshBase@Gu@physx@@UEAAPEAXI@Z 00000001800c20b0 f i GuBV4.obj
 0001:000c10b0       ??_GSourceMeshBase@Gu@physx@@UEAAPEAXI@Z 00000001800c20b0 f i GuBV4.obj
 0001:000c1150       ?exportExtraData@BV4Tree@Gu@physx@@QEAAXAEAVPxSerializationContext@3@@Z 00000001800c2150 f   GuBV4.obj
 0001:000c11b0       ?getPrimitiveBox@SourceMesh@Gu@physx@@UEAAXIAEAT__m128@@0@Z 00000001800c21b0 f   GuBV4.obj
 0001:000c1250       ?getPrimitiveBox@TetrahedronSourceMesh@Gu@physx@@UEAAXIAEAT__m128@@0@Z 00000001800c2250 f   GuBV4.obj
 0001:000c1310       ?importExtraData@BV4Tree@Gu@physx@@QEAAXAEAVPxDeserializationContext@3@@Z 00000001800c2310 f   GuBV4.obj
 0001:000c1360       ?init@BV32Tree@Gu@physx@@QEAA_NPEAVSourceMeshBase@23@AEBVPxBounds3@3@@Z 00000001800c2360 f   GuBV32.obj
 0001:000c1360       ?init@BV4Tree@Gu@physx@@QEAA_NPEAVSourceMeshBase@23@AEBVPxBounds3@3@@Z 00000001800c2360 f   GuBV4.obj
 0001:000c1400       ?load@BV4Tree@Gu@physx@@QEAA_NAEAVPxInputStream@3@_N@Z 00000001800c2400 f   GuBV4.obj
 0001:000c1640       ?refit@BV4Tree@Gu@physx@@QEAA_NAEAVPxBounds3@3@M@Z 00000001800c2640 f   GuBV4.obj
 0001:000c1cc0       ?refit@SourceMesh@Gu@physx@@UEAAXIAEAVPxBounds3@3@@Z 00000001800c2cc0 f   GuBV4.obj
 0001:000c1e60       ?refit@TetrahedronSourceMesh@Gu@physx@@UEAAXIAEAVPxBounds3@3@@Z 00000001800c2e60 f   GuBV4.obj
 0001:000c2080       ?remapTopology@SourceMesh@Gu@physx@@UEAAXPEBI@Z 00000001800c3080 f   GuBV4.obj
 0001:000c2310       ?remapTopology@TetrahedronSourceMesh@Gu@physx@@UEAAXPEBI@Z 00000001800c3310 f   GuBV4.obj
 0001:000c2590       ??0BV4_AABBTree@Gu@physx@@QEAA@XZ 00000001800c3590 f   GuBV4Build.obj
 0001:000c25a0       ??0BVData@@QEAA@XZ         00000001800c35a0 f   GuBV4Build.obj
 0001:000c25d0       ??0BuildStats@Gu@physx@@QEAA@XZ 00000001800c35d0 f i GuBV4Build.obj
 0001:000c25e0       ??1BV4_AABBTree@Gu@physx@@QEAA@XZ 00000001800c35e0 f   GuBV4Build.obj
 0001:000c25f0       ??4BuildStats@Gu@physx@@QEAAAEAU012@$$QEAU012@@Z 00000001800c35f0 f i GuBV4Build.obj
 0001:000c2600       ??4BuildStats@Gu@physx@@QEAAAEAU012@AEBU012@@Z 00000001800c3600 f i GuBV4Build.obj
 0001:000c2610       ?BuildBV4Ex@Gu@physx@@YA_NAEAVBV4Tree@12@AEAVSourceMeshBase@12@MI_NW4BV4_BuildStrategy@12@@Z 00000001800c3610 f   GuBV4Build.obj
 0001:000c34e0       ?allocateNode@BV4BuildParams@@QEAAPEAUBV4Node@@XZ 00000001800c44e0 f   GuBV4Build.obj
 0001:000c3950       ?buildFromMesh@BV4_AABBTree@Gu@physx@@QEAA_NAEAVSourceMeshBase@23@IW4BV4_BuildStrategy@23@@Z 00000001800c4950 f   GuBV4Build.obj
 0001:000c4880       ?increaseCount@BuildStats@Gu@physx@@QEAAXI@Z 00000001800c5880 f i GuBV4Build.obj
 0001:000c52d0       ?release@BV4_AABBTree@Gu@physx@@QEAAXXZ 00000001800c62d0 f   GuBV4Build.obj
 0001:000c5380       ?releaseNodes@BV4BuildParams@@QEAAXXZ 00000001800c6380 f   GuBV4Build.obj
 0001:000c53f0       ?reset@BuildStats@Gu@physx@@QEAAXXZ 00000001800c63f0 f i GuBV4Build.obj
 0001:000c5400       ?setCount@BuildStats@Gu@physx@@QEAAXI@Z 00000001800c6400 f i GuBV4Build.obj
 0001:000c5a60       ?walk@BV4_AABBTree@Gu@physx@@QEBAIP6A_NPEBVAABBTreeNode@23@IPEAX@Z1@Z 00000001800c6a60 f   GuBV4Build.obj
 0001:000c5b20       ?walkDistance@BV4_AABBTree@Gu@physx@@QEBAIP6A_NPEBVAABBTreeNode@23@IPEAX@ZP6A_N01@Z1@Z 00000001800c6b20 f   GuBV4Build.obj
 0001:000c9b50       ?GenericSweep_AABB_CB@@YAXAEBVBox@Gu@physx@@AEBV?$PxVec3T@M@3@MAEBVBV4Tree@23@P6A_NPEAX111IAEAM@Z3I@Z 00000001800cab50 f   GuBV4_AABBSweep.obj
 0001:000c9cb0       ?Sweep_AABB_BV4@@YAHAEBVBox@Gu@physx@@AEBV?$PxVec3T@M@3@MAEBVBV4Tree@23@PEIAVSweepHit@23@I@Z 00000001800cacb0 f   GuBV4_AABBSweep.obj
 0001:000d2a30       ?BV4_OverlapBoxAll@@YAIAEBVBox@Gu@physx@@AEBVBV4Tree@23@PEIBV?$PxMat44T@M@3@PEAIIAEA_N@Z 00000001800d3a30 f   GuBV4_BoxOverlap.obj
 0001:000d3240       ?BV4_OverlapBoxAny@@YAHAEBVBox@Gu@physx@@AEBVBV4Tree@23@PEIBV?$PxMat44T@M@3@@Z 00000001800d4240 f   GuBV4_BoxOverlap.obj
 0001:000d3a40       ?BV4_OverlapBoxCB@@YAXAEBVBox@Gu@physx@@AEBVBV4Tree@23@P6A_NPEAXAEBV?$PxVec3T@M@3@333IPEBI@Z2@Z 00000001800d4a40 f   GuBV4_BoxOverlap.obj
 0001:000d40f0       ?BV4_OverlapBoxCB@@YAXAEBVBox@Gu@physx@@AEBVBV4Tree@23@P6A_NPEAXAEBV?$PxVec3T@M@3@33IPEBI@Z2@Z 00000001800d50f0 f   GuBV4_BoxOverlap.obj
 0001:000d45a0       ?BV4_OverlapCapsuleAll@@YAIAEBVCapsule@Gu@physx@@AEBVBV4Tree@23@PEIBV?$PxMat44T@M@3@PEAIIAEA_N@Z 00000001800d55a0 f   GuBV4_BoxOverlap.obj
 0001:000d4cc0       ?BV4_OverlapCapsuleAny@@YAHAEBVCapsule@Gu@physx@@AEBVBV4Tree@23@PEIBV?$PxMat44T@M@3@@Z 00000001800d5cc0 f   GuBV4_BoxOverlap.obj
 0001:000d7b70       ?BV4_CapsuleSweepSingle@@YAHAEBVCapsule@Gu@physx@@AEBV?$PxVec3T@M@3@MAEBVBV4Tree@23@PEIAVSweepHit@23@I@Z 00000001800d8b70 f   GuBV4_CapsuleSweep.obj
 0001:000dbc10       ?BV4_CapsuleSweepSingleAA@@YAHAEBVCapsule@Gu@physx@@AEBV?$PxVec3T@M@3@MAEBVBV4Tree@23@PEIAVSweepHit@23@I@Z 00000001800dcc10 f   GuBV4_CapsuleSweepAA.obj
 0001:000ebfd0       ?BV4_OverlapMeshVsMesh@@YA_NAEAV?$PxReportCallback@UPxGeomIndexPair@physx@@@physx@@AEBVBV4Tree@Gu@2@1PEBV?$PxMat44T@M@2@2AEBV?$PxTransformT@M@2@3AEBVPxMeshScale@2@4V?$PxFlags@W4Enum@PxMeshMeshQueryFlag@physx@@I@2@M@Z 00000001800ecfd0 f   GuBV4_MeshMeshOverlap.obj
 0001:000ec210       ?BV4_OverlapMeshVsMesh@@YA_NAEAV?$PxReportCallback@UPxGeomIndexPair@physx@@@physx@@AEBVBV4Tree@Gu@2@1PEBV?$PxMat44T@M@2@2V?$PxFlags@W4Enum@PxMeshMeshQueryFlag@physx@@I@2@M@Z 00000001800ed210 f   GuBV4_MeshMeshOverlap.obj
 0001:000f59c0       ??D?$PxMat33T@M@physx@@QEBA?BV?$PxVec3T@M@1@AEBV21@@Z 00000001800f69c0 f i GuBV4_OBBSweep.obj
 0001:000f5a50       ?BV4_BoxSweepSingle@@YAHAEBVBox@Gu@physx@@AEBV?$PxVec3T@M@3@MAEBVBV4Tree@23@PEIBV?$PxMat44T@M@3@PEIAVSweepHit@23@I@Z 00000001800f6a50 f   GuBV4_OBBSweep.obj
 0001:000f6180       ?BV4_GenericSweepCB@@YAXAEBVBox@Gu@physx@@AEBV?$PxVec3T@M@3@MAEBVBV4Tree@23@P6A_NPEAX111IAEAM@Z3_N@Z 00000001800f7180 f   GuBV4_OBBSweep.obj
 0001:000f63b0       ?Sweep_OBB_BV4@@YAHAEBVBox@Gu@physx@@AEBV?$PxVec3T@M@3@MAEBVBV4Tree@23@PEIAVSweepHit@23@I@Z 00000001800f73b0 f   GuBV4_OBBSweep.obj
 0001:000f8f10       ?BV4_RaycastCB@@YAXAEBV?$PxVec3T@M@physx@@0AEBVBV4Tree@Gu@2@PEIBV?$PxMat44T@M@2@MMIP6A?AW4HitCode@42@PEAX000IMMM@Z3@Z 00000001800f9f10 f   GuBV4_Raycast.obj
 0001:000f9350       ?BV4_RaycastSingle@@YAHAEBV?$PxVec3T@M@physx@@0AEBVBV4Tree@Gu@2@PEIBV?$PxMat44T@M@2@PEIAUPxGeomRaycastHit@2@MMIV?$PxFlags@W4Enum@PxHitFlag@physx@@G@2@@Z 00000001800fa350 f   GuBV4_Raycast.obj
 0001:000fb880       ?BV4_OverlapSphereAll@@YAIAEBVSphere@Gu@physx@@AEBVBV4Tree@23@PEIBV?$PxMat44T@M@3@PEAIIAEA_N@Z 00000001800fc880 f   GuBV4_SphereOverlap.obj
 0001:000fbba0       ?BV4_OverlapSphereAny@@YAHAEBVSphere@Gu@physx@@AEBVBV4Tree@23@PEIBV?$PxMat44T@M@3@@Z 00000001800fcba0 f   GuBV4_SphereOverlap.obj
 0001:000fbe80       ?BV4_PointDistance@@YAXAEBV?$PxVec3T@M@physx@@AEBVBV4Tree@Gu@2@MAEAIAEAMAEAV12@@Z 00000001800fce80 f   GuBV4_SphereOverlap.obj
 0001:00102830       ?BV4_GenericSweepCB_Old@@YAXAEBV?$PxVec3T@M@physx@@00MAEBVBV4Tree@Gu@2@PEIBV?$PxMat44T@M@2@P6A_NPEAX000IAEAM@Z3@Z 0000000180103830 f   GuBV4_SphereSweep.obj
 0001:00102c30       ?BV4_SphereSweepSingle@@YAHAEBVSphere@Gu@physx@@AEBV?$PxVec3T@M@3@MAEBVBV4Tree@23@PEIBV?$PxMat44T@M@3@PEIAVSweepHit@23@I@Z 0000000180103c30 f   GuBV4_SphereSweep.obj
 0001:00103f30       ?computeSweepData@physx@@YAMAEBVPxTriangleMeshGeometry@1@AEAV?$PxVec3T@M@1@11M@Z 0000000180104f30 f i GuMidphaseBV4.obj
 0001:00105350       ?intersectBoxVsMesh_BV4@Gu@physx@@YA_NAEBVBox@12@AEBVTriangleMesh@12@AEBV?$PxTransformT@M@2@AEBVPxMeshScale@2@PEAULimitedResults@12@@Z 0000000180106350 f   GuMidphaseBV4.obj
 0001:00105e50       ?intersectCapsuleVsMesh_BV4@Gu@physx@@YA_NAEBVCapsule@12@AEBVTriangleMesh@12@AEBV?$PxTransformT@M@2@AEBVPxMeshScale@2@PEAULimitedResults@12@@Z 0000000180106e50 f   GuMidphaseBV4.obj
 0001:00106690       ?intersectMeshVsMesh_BV4@Gu@physx@@YA_NAEAV?$PxReportCallback@UPxGeomIndexPair@physx@@@2@AEBVTriangleMesh@12@AEBV?$PxTransformT@M@2@AEBVPxMeshScale@2@123V?$PxFlags@W4Enum@PxMeshMeshQueryFlag@physx@@I@2@M@Z 0000000180107690 f   GuMidphaseBV4.obj
 0001:00106f90       ?intersectOBB_BV4@Gu@physx@@YAXPEBVTetrahedronMesh@12@AEBVBox@12@AEAU?$TetMeshHitCallback@UPxGeomRaycastHit@physx@@@12@@Z 0000000180107f90 f   GuMidphaseBV4.obj
 0001:00106fb0       ?intersectOBB_BV4@Gu@physx@@YAXPEBVTriangleMesh@12@AEBVBox@12@AEAU?$MeshHitCallback@UPxGeomRaycastHit@physx@@@12@_N3@Z 0000000180107fb0 f   GuMidphaseBV4.obj
 0001:00106fd0       ?intersectSphereVsMesh_BV4@Gu@physx@@YA_NAEBVSphere@12@AEBVTriangleMesh@12@AEBV?$PxTransformT@M@2@AEBVPxMeshScale@2@PEAULimitedResults@12@@Z 0000000180107fd0 f   GuMidphaseBV4.obj
 0001:00107700       ?pointMeshDistance_BV4@Gu@physx@@YAXPEBVTriangleMesh@12@AEBVPxTriangleMeshGeometry@2@AEBV?$PxTransformT@M@2@AEBV?$PxVec3T@M@2@MAEAIAEAMAEAV62@@Z 0000000180108700 f   GuMidphaseBV4.obj
 0001:00107db0       ?raycast_triangleMesh_BV4@Gu@physx@@YAIPEBVTriangleMesh@12@AEBVPxTriangleMeshGeometry@2@AEBV?$PxTransformT@M@2@AEBV?$PxVec3T@M@2@3MV?$PxFlags@W4Enum@PxHitFlag@physx@@G@2@IPEIAUPxGeomRaycastHit@2@I@Z 0000000180108db0 f   GuMidphaseBV4.obj
 0001:00108bc0       ?sweepBox_MeshGeom_BV4@Gu@physx@@YA_NPEBVTriangleMesh@12@AEBVPxTriangleMeshGeometry@2@AEBV?$PxTransformT@M@2@AEBVBox@12@AEBV?$PxVec3T@M@2@MAEAUPxGeomSweepHit@2@V?$PxFlags@W4Enum@PxHitFlag@physx@@G@2@M@Z 0000000180109bc0 f   GuMidphaseBV4.obj
 0001:0010a220       ?sweepCapsule_MeshGeom_BV4@Gu@physx@@YA_NPEBVTriangleMesh@12@AEBVPxTriangleMeshGeometry@2@AEBV?$PxTransformT@M@2@AEBVCapsule@12@AEBV?$PxVec3T@M@2@MAEAUPxGeomSweepHit@2@V?$PxFlags@W4Enum@PxHitFlag@physx@@G@2@M@Z 000000018010b220 f   GuMidphaseBV4.obj
 0001:0010ad30       ?sweepConvex_MeshGeom_BV4@Gu@physx@@YAXPEBVTriangleMesh@12@AEBVBox@12@AEBV?$PxVec3T@M@2@MAEAUSweepConvexMeshHitCallback@12@_N@Z 000000018010bd30 f   GuMidphaseBV4.obj
 0001:0010ad70       ?transform@PxMeshScale@physx@@QEBA?AV?$PxVec3T@M@2@AEBV32@@Z 000000018010bd70 f i GuMidphaseBV4.obj
 0001:0010afb0       ?findOverlapHeightField@PxMeshQuery@physx@@SAIAEBVPxGeometry@2@AEBV?$PxTransformT@M@2@AEBVPxHeightFieldGeometry@2@1PEAIIIAEA_NV?$PxFlags@W4Enum@PxGeometryQueryFlag@physx@@I@2@@Z 000000018010bfb0 f   GuMeshQuery.obj
 0001:0010b720       ?findOverlapTriangleMesh@PxMeshQuery@physx@@SAIAEBVPxGeometry@2@AEBV?$PxTransformT@M@2@AEBVPxTriangleMeshGeometry@2@1PEAIIIAEA_NV?$PxFlags@W4Enum@PxGeometryQueryFlag@physx@@I@2@@Z 000000018010c720 f   GuMeshQuery.obj
 0001:0010ba40       ?findOverlapTriangleMesh@PxMeshQuery@physx@@SA_NAEAV?$PxReportCallback@UPxGeomIndexPair@physx@@@2@AEBVPxTriangleMeshGeometry@2@AEBV?$PxTransformT@M@2@12V?$PxFlags@W4Enum@PxGeometryQueryFlag@physx@@I@2@V?$PxFlags@W4Enum@PxMeshMeshQueryFlag@physx@@I@2@M@Z 000000018010ca40 f   GuMeshQuery.obj
 0001:0010bb70       ?getTriangle@PxMeshQuery@physx@@SAXAEBVPxHeightFieldGeometry@2@AEBV?$PxTransformT@M@2@IAEAVPxTriangle@2@PEAI3@Z 000000018010cb70 f   GuMeshQuery.obj
 0001:0010bbf0       ?getTriangle@PxMeshQuery@physx@@SAXAEBVPxTriangleMeshGeometry@2@AEBV?$PxTransformT@M@2@IAEAVPxTriangle@2@PEAI3@Z 000000018010cbf0 f   GuMeshQuery.obj
 0001:0010c0f0       ?sweep@PxMeshQuery@physx@@SA_NAEBV?$PxVec3T@M@2@MAEBVPxGeometry@2@AEBV?$PxTransformT@M@2@IPEBVPxTriangle@2@AEAUPxGeomSweepHit@2@V?$PxFlags@W4Enum@PxHitFlag@physx@@G@2@PEBIM_NV?$PxFlags@W4Enum@PxGeometryQueryFlag@physx@@I@2@@Z 000000018010d0f0 f   GuMeshQuery.obj
 0001:0010c370       ??$collide@$00$00@MeshRayCollider@@SAXAEBV?$PxVec3T@M@physx@@0M_NPEBVRTreeTriangleMesh@Gu@2@AEAU?$MeshHitCallback@UPxGeomRaycastHit@physx@@@42@PEBV12@@Z 000000018010d370 f i GuMidphaseRTree.obj
 0001:0010c6e0       ??$collide@$00$0A@@MeshRayCollider@@SAXAEBV?$PxVec3T@M@physx@@0M_NPEBVRTreeTriangleMesh@Gu@2@AEAU?$MeshHitCallback@UPxGeomRaycastHit@physx@@@42@PEBV12@@Z 000000018010d6e0 f i GuMidphaseRTree.obj
 0001:0010c920       ??$collide@$0A@$00@MeshRayCollider@@SAXAEBV?$PxVec3T@M@physx@@0M_NPEBVRTreeTriangleMesh@Gu@2@AEAU?$MeshHitCallback@UPxGeomRaycastHit@physx@@@42@PEBV12@@Z 000000018010d920 f i GuMidphaseRTree.obj
 0001:0010ec80       ??0?$RayRTreeCallback@$00$0A@@@QEAA@MAEAU?$MeshHitCallback@UPxGeomRaycastHit@physx@@@Gu@physx@@HPEBXPEBV?$PxVec3T@M@3@AEBV43@3M_N2@Z 000000018010fc80 f i GuMidphaseRTree.obj
 0001:0010eda0       ??1?$RayRTreeCallback@$00$00@@UEAA@XZ 000000018010fda0 f i GuMidphaseRTree.obj
 0001:0010ee30       ??1?$RayRTreeCallback@$00$0A@@@UEAA@XZ 000000018010fe30 f i GuMidphaseRTree.obj
 0001:0010ee30       ??1?$RayRTreeCallback@$0A@$0A@@@UEAA@XZ 000000018010fe30 f i GuMidphaseRTree.obj
 0001:0010eec0       ??1?$RayRTreeCallback@$0A@$00@@UEAA@XZ 000000018010fec0 f i GuMidphaseRTree.obj
 0001:0010ef48       ??_E?$RayRTreeCallback@$00$00@@W7EAAPEAXI@Z 000000018010ff48 f i GuMidphaseRTree.obj
 0001:0010ef54       ??_E?$RayRTreeCallback@$00$0A@@@W7EAAPEAXI@Z 000000018010ff54 f i GuMidphaseRTree.obj
 0001:0010ef54       ??_E?$RayRTreeCallback@$0A@$0A@@@W7EAAPEAXI@Z 000000018010ff54 f i GuMidphaseRTree.obj
 0001:0010ef60       ??_E?$RayRTreeCallback@$0A@$00@@W7EAAPEAXI@Z 000000018010ff60 f i GuMidphaseRTree.obj
 0001:0010efd0       ??_E?$RayRTreeCallback@$00$00@@UEAAPEAXI@Z 000000018010ffd0 f i GuMidphaseRTree.obj
 0001:0010efd0       ??_G?$RayRTreeCallback@$00$00@@UEAAPEAXI@Z 000000018010ffd0 f i GuMidphaseRTree.obj
 0001:0010f010       ??_E?$RayRTreeCallback@$00$0A@@@UEAAPEAXI@Z 0000000180110010 f i GuMidphaseRTree.obj
 0001:0010f010       ??_E?$RayRTreeCallback@$0A@$0A@@@UEAAPEAXI@Z 0000000180110010 f i GuMidphaseRTree.obj
 0001:0010f010       ??_G?$RayRTreeCallback@$00$0A@@@UEAAPEAXI@Z 0000000180110010 f i GuMidphaseRTree.obj
 0001:0010f010       ??_G?$RayRTreeCallback@$0A@$0A@@@UEAAPEAXI@Z 0000000180110010 f i GuMidphaseRTree.obj
 0001:0010f050       ??_E?$RayRTreeCallback@$0A@$00@@UEAAPEAXI@Z 0000000180110050 f i GuMidphaseRTree.obj
 0001:0010f050       ??_G?$RayRTreeCallback@$0A@$00@@UEAAPEAXI@Z 0000000180110050 f i GuMidphaseRTree.obj
 0001:0010f090       ??_ECallback@RTree@Gu@physx@@UEAAPEAXI@Z 0000000180110090 f i GuMidphaseRTree.obj
 0001:0010f090       ??_GCallback@RTree@Gu@physx@@UEAAPEAXI@Z 0000000180110090 f i GuMidphaseRTree.obj
 0001:0010f0c0       ??_ERayMeshColliderCallback@@UEAAPEAXI@Z 00000001801100c0 f i GuMidphaseRTree.obj
 0001:0010f0c0       ??_ESweepCapsuleMeshHitCallback@Gu@physx@@UEAAPEAXI@Z 00000001801100c0 f i GuSweepsMesh.obj
 0001:0010f0c0       ??_GRayMeshColliderCallback@@UEAAPEAXI@Z 00000001801100c0 f i GuMidphaseRTree.obj
 0001:0010f0c0       ??_GSweepCapsuleMeshHitCallback@Gu@physx@@UEAAPEAXI@Z 00000001801100c0 f i GuSweepsMesh.obj
 0001:0010f0f0       ?collideOBB@MeshRayCollider@@SAXAEBVBox@Gu@physx@@_NPEBVRTreeTriangleMesh@34@AEAU?$MeshHitCallback@UPxGeomRaycastHit@physx@@@34@1@Z 00000001801100f0 f   GuMidphaseRTree.obj
 0001:0010f5c0       ?intersectBoxVsMesh_RTREE@Gu@physx@@YA_NAEBVBox@12@AEBVTriangleMesh@12@AEBV?$PxTransformT@M@2@AEBVPxMeshScale@2@PEAULimitedResults@12@@Z 00000001801105c0 f   GuMidphaseRTree.obj
 0001:0010f630       ?intersectCapsuleVsMesh_RTREE@Gu@physx@@YA_NAEBVCapsule@12@AEBVTriangleMesh@12@AEBV?$PxTransformT@M@2@AEBVPxMeshScale@2@PEAULimitedResults@12@@Z 0000000180110630 f   GuMidphaseRTree.obj
 0001:0010f6b0       ?intersectOBB_RTREE@Gu@physx@@YAXPEBVTriangleMesh@12@AEBVBox@12@AEAU?$MeshHitCallback@UPxGeomRaycastHit@physx@@@12@_N3@Z 00000001801106b0 f   GuMidphaseRTree.obj
 0001:0010f6e0       ?intersectSphereVsMesh_RTREE@Gu@physx@@YA_NAEBVSphere@12@AEBVTriangleMesh@12@AEBV?$PxTransformT@M@2@AEBVPxMeshScale@2@PEAULimitedResults@12@@Z 00000001801106e0 f   GuMidphaseRTree.obj
 0001:0010f710       ?pointMeshDistance_RTREE@Gu@physx@@YAXPEBVTriangleMesh@12@AEBVPxTriangleMeshGeometry@2@AEBV?$PxTransformT@M@2@AEBV?$PxVec3T@M@2@MAEAIAEAMAEAV62@@Z 0000000180110710 f   GuMidphaseRTree.obj
 0001:00110500       ?processHit@RayMeshColliderCallback@@UEAA_NAEBUPxGeomRaycastHit@physx@@AEBV?$PxVec3T@M@3@11AEAMPEBI@Z 0000000180111500 f i GuMidphaseRTree.obj
 0001:00110ca0       ?processResults@?$RayRTreeCallback@$00$00@@UEAA_NIPEAI@Z 0000000180111ca0 f i GuMidphaseRTree.obj
 0001:00111020       ?processResults@?$RayRTreeCallback@$00$00@@UEAA_NIPEAIAEAM@Z 0000000180112020 f i GuMidphaseRTree.obj
 0001:001113c0       ?processResults@?$RayRTreeCallback@$00$0A@@@UEAA_NIPEAI@Z 00000001801123c0 f i GuMidphaseRTree.obj
 0001:001113c0       ?processResults@?$RayRTreeCallback@$0A@$0A@@@UEAA_NIPEAI@Z 00000001801123c0 f i GuMidphaseRTree.obj
 0001:00111620       ?processResults@?$RayRTreeCallback@$00$0A@@@UEAA_NIPEAIAEAM@Z 0000000180112620 f i GuMidphaseRTree.obj
 0001:00111620       ?processResults@?$RayRTreeCallback@$0A@$0A@@@UEAA_NIPEAIAEAM@Z 0000000180112620 f i GuMidphaseRTree.obj
 0001:001118b0       ?processResults@?$RayRTreeCallback@$0A@$00@@UEAA_NIPEAI@Z 00000001801128b0 f i GuMidphaseRTree.obj
 0001:00111ef0       ?processResults@?$RayRTreeCallback@$0A@$00@@UEAA_NIPEAIAEAM@Z 0000000180112ef0 f i GuMidphaseRTree.obj
 0001:00112540       ?raycast_triangleMesh_RTREE@Gu@physx@@YAIPEBVTriangleMesh@12@AEBVPxTriangleMeshGeometry@2@AEBV?$PxTransformT@M@2@AEBV?$PxVec3T@M@2@3MV?$PxFlags@W4Enum@PxHitFlag@physx@@G@2@IPEIAUPxGeomRaycastHit@2@I@Z 0000000180113540 f   GuMidphaseRTree.obj
 0001:00112cc0       ?sweepBox_MeshGeom_RTREE@Gu@physx@@YA_NPEBVTriangleMesh@12@AEBVPxTriangleMeshGeometry@2@AEBV?$PxTransformT@M@2@AEBVBox@12@AEBV?$PxVec3T@M@2@MAEAUPxGeomSweepHit@2@V?$PxFlags@W4Enum@PxHitFlag@physx@@G@2@M@Z 0000000180113cc0 f   GuMidphaseRTree.obj
 0001:00114150       ?sweepCapsule_MeshGeom_RTREE@Gu@physx@@YA_NPEBVTriangleMesh@12@AEBVPxTriangleMeshGeometry@2@AEBV?$PxTransformT@M@2@AEBVCapsule@12@AEBV?$PxVec3T@M@2@MAEAUPxGeomSweepHit@2@V?$PxFlags@W4Enum@PxHitFlag@physx@@G@2@M@Z 0000000180115150 f   GuMidphaseRTree.obj
 0001:00114900       ?sweepConvex_MeshGeom_RTREE@Gu@physx@@YAXPEBVTriangleMesh@12@AEBVBox@12@AEBV?$PxVec3T@M@2@MAEAUSweepConvexMeshHitCallback@12@_N@Z 0000000180115900 f   GuMidphaseRTree.obj
 0001:001152b0       ??_E?$PxReportCallback@UPxGeomIndexPair@physx@@@physx@@UEAAPEAXI@Z 00000001801162b0 f i GuOverlapTestsMesh.obj
 0001:001152b0       ??_G?$PxReportCallback@UPxGeomIndexPair@physx@@@physx@@UEAAPEAXI@Z 00000001801162b0 f i GuOverlapTestsMesh.obj
 0001:00115340       ?GeomOverlapCallback_BoxMesh@@YA_NAEBVPxGeometry@physx@@AEBV?$PxTransformT@M@2@01PEAUTriggerCache@Gu@2@PEAUPxQueryThreadContext@2@@Z 0000000180116340 f   GuOverlapTestsMesh.obj
 0001:00115450       ?GeomOverlapCallback_CapsuleMesh@@YA_NAEBVPxGeometry@physx@@AEBV?$PxTransformT@M@2@01PEAUTriggerCache@Gu@2@PEAUPxQueryThreadContext@2@@Z 0000000180116450 f   GuOverlapTestsMesh.obj
 0001:00115560       ?GeomOverlapCallback_ConvexMesh@@YA_NAEBVPxGeometry@physx@@AEBV?$PxTransformT@M@2@01PEAUTriggerCache@Gu@2@PEAUPxQueryThreadContext@2@@Z 0000000180116560 f   GuOverlapTestsMesh.obj
 0001:00115a60       ?GeomOverlapCallback_MeshMesh@@YA_NAEBVPxGeometry@physx@@AEBV?$PxTransformT@M@2@01PEAUTriggerCache@Gu@2@PEAUPxQueryThreadContext@2@@Z 0000000180116a60 f   GuOverlapTestsMesh.obj
 0001:00115b30       ?GeomOverlapCallback_SphereMesh@@YA_NAEBVPxGeometry@physx@@AEBV?$PxTransformT@M@2@01PEAUTriggerCache@Gu@2@PEAUPxQueryThreadContext@2@@Z 0000000180116b30 f   GuOverlapTestsMesh.obj
 0001:00115f20       ??0RTree@Gu@physx@@QEAA@W4PxEMPTY@2@@Z 0000000180116f20 f   GuRTree.obj
 0001:00115f30       ?exportExtraData@RTree@Gu@physx@@QEAAXAEAVPxSerializationContext@3@@Z 0000000180116f30 f   GuRTree.obj
 0001:00115f70       ?importExtraData@RTree@Gu@physx@@QEAAXAEAVPxDeserializationContext@3@@Z 0000000180116f70 f   GuRTree.obj
 0001:00115fa0       ?load@RTree@Gu@physx@@QEAA_NAEAVPxInputStream@3@I_N@Z 0000000180116fa0 f   GuRTree.obj
 0001:001162a0       ?refitAllStaticTree@RTree@Gu@physx@@QEAAXAEAUCallbackRefit@123@PEAVPxBounds3@3@@Z 00000001801172a0 f   GuRTree.obj
 0001:001167f0       ?validate@RTree@Gu@physx@@QEAAXPEAUCallbackRefit@123@@Z 00000001801177f0 f   GuRTree.obj
 0001:00116a30       ?validateRecursive@RTree@Gu@physx@@IEAAXIURTreeNodeQ@23@PEAURTreePage@23@PEAUCallbackRefit@123@@Z 0000000180117a30 f   GuRTree.obj
 0001:00116bf0       ??$traverseRay@$00@RTree@Gu@physx@@QEBAXAEBV?$PxVec3T@M@2@0IPEAIPEAUCallbackRaycast@012@PEBV32@M@Z 0000000180117bf0 f i GuRTreeQueries.obj
 0001:00116f90       ??$traverseRay@$0A@@RTree@Gu@physx@@QEBAXAEBV?$PxVec3T@M@2@0IPEAIPEAUCallbackRaycast@012@PEBV32@M@Z 0000000180117f90 f i GuRTreeQueries.obj
 0001:001172d0       ?traverseAABB@RTree@Gu@physx@@QEBAXAEBV?$PxVec3T@M@3@0IPEAIPEAUCallback@123@@Z 00000001801182d0 f   GuRTreeQueries.obj
 0001:00117490       ?traverseOBB@RTree@Gu@physx@@QEBAXAEBVBox@23@IPEAIPEAUCallback@123@@Z 0000000180118490 f   GuRTreeQueries.obj
 0001:00117d60       ??0SweepBoxMeshHitCallback@Gu@physx@@QEAA@W4Enum@CallbackMode@12@AEBVPxMat34Padded@2@M_NAEBVBox@12@AEBV?$PxVec3T@M@2@44AEBV?$PxFlags@W4Enum@PxHitFlag@physx@@G@2@M2M@Z 0000000180118d60 f   GuSweepsMesh.obj
 0001:00117e70       ??0SweepCapsuleMeshHitCallback@Gu@physx@@QEAA@AEAUPxGeomSweepHit@2@AEBV?$PxMat34T@M@2@M_NAEBVCapsule@12@AEBV?$PxVec3T@M@2@AEBV?$PxFlags@W4Enum@PxHitFlag@physx@@G@2@2M@Z 0000000180118e70 f   GuSweepsMesh.obj
 0001:00117f40       ??0SweepConvexMeshHitCallback@Gu@physx@@QEAA@AEBUConvexHullData@12@AEBVPxMeshScale@2@AEBVFastVertex2ShapeScaling@Cm@2@AEBV?$PxTransformT@M@2@3AEBV?$PxVec3T@M@2@MV?$PxFlags@W4Enum@PxHitFlag@physx@@G@2@_NM6M@Z 0000000180118f40 f   GuSweepsMesh.obj
 0001:001188a0       ??_ESweepBoxMeshHitCallback@Gu@physx@@UEAAPEAXI@Z 00000001801198a0 f i GuSweepsMesh.obj
 0001:001188a0       ??_GSweepBoxMeshHitCallback@Gu@physx@@UEAAPEAXI@Z 00000001801198a0 f i GuSweepsMesh.obj
 0001:001188d0       ??_ESweepConvexMeshHitCallback@Gu@physx@@UEAAPEAXI@Z 00000001801198d0 f i GuSweepsMesh.obj
 0001:001188d0       ??_GSweepConvexMeshHitCallback@Gu@physx@@UEAAPEAXI@Z 00000001801198d0 f i GuSweepsMesh.obj
 0001:00118900       ??_ESweepShapeMeshHitCallback@Gu@physx@@UEAAPEAXI@Z 0000000180119900 f i GuSweepsMesh.obj
 0001:00118900       ??_GSweepShapeMeshHitCallback@Gu@physx@@UEAAPEAXI@Z 0000000180119900 f i GuSweepsMesh.obj
 0001:00118930       ?finalizeHit@SweepBoxMeshHitCallback@Gu@physx@@QEBA_NAEAUPxGeomSweepHit@3@AEBVPxTriangleMeshGeometry@3@AEBV?$PxTransformT@M@3@2AEBV?$PxVec3T@M@3@_N4@Z 0000000180119930 f   GuSweepsMesh.obj
 0001:00118ff0       ?finalizeHit@SweepCapsuleMeshHitCallback@Gu@physx@@QEBA_NAEAUPxGeomSweepHit@3@AEBVCapsule@23@AEBVPxTriangleMeshGeometry@3@AEBV?$PxTransformT@M@3@_N@Z 0000000180119ff0 f   GuSweepsMesh.obj
 0001:001191a0       ?finalizeHit@SweepConvexMeshHitCallback@Gu@physx@@QEAA_NAEAUPxGeomSweepHit@3@AEBVPxTriangleMeshGeometry@3@AEBV?$PxTransformT@M@3@AEBVPxConvexMeshGeometry@3@2AEBV?$PxVec3T@M@3@M_N555@Z 000000018011a1a0 f   GuSweepsMesh.obj
 0001:00119670       ?processHit@SweepBoxMeshHitCallback@Gu@physx@@UEAA_NAEBUPxGeomRaycastHit@3@AEBV?$PxVec3T@M@3@11AEAMPEBI@Z 000000018011a670 f   GuSweepsMesh.obj
 0001:00119e50       ?processHit@SweepCapsuleMeshHitCallback@Gu@physx@@UEAA_NAEBUPxGeomRaycastHit@3@AEBV?$PxVec3T@M@3@11AEAMPEBI@Z 000000018011ae50 f   GuSweepsMesh.obj
 0001:0011a3b0       ?processHit@SweepConvexMeshHitCallback@Gu@physx@@UEAA_NAEBUPxGeomRaycastHit@3@AEBV?$PxVec3T@M@3@11AEAMPEBI@Z 000000018011b3b0 f   GuSweepsMesh.obj
 0001:0011ab00       ?sweepBox_MeshGeom@@YA_NAEBVPxGeometry@physx@@AEBV?$PxTransformT@M@2@AEBVPxBoxGeometry@2@1AEBVBox@Gu@2@AEBV?$PxVec3T@M@2@MAEAUPxGeomSweepHit@2@V?$PxFlags@W4Enum@PxHitFlag@physx@@G@2@MPEAUPxQueryThreadContext@2@@Z 000000018011bb00 f   GuSweepsMesh.obj
 0001:0011ab90       ?sweepCapsule_MeshGeom@@YA_NAEBVPxGeometry@physx@@AEBV?$PxTransformT@M@2@AEBVPxCapsuleGeometry@2@1AEBVCapsule@Gu@2@AEBV?$PxVec3T@M@2@MAEAUPxGeomSweepHit@2@V?$PxFlags@W4Enum@PxHitFlag@physx@@G@2@MPEAUPxQueryThreadContext@2@@Z 000000018011bb90 f   GuSweepsMesh.obj
 0001:0011ac20       ?sweepConvex_MeshGeom@@YA_NAEBVPxGeometry@physx@@AEBV?$PxTransformT@M@2@AEBVPxConvexMeshGeometry@2@1AEBV?$PxVec3T@M@2@MAEAUPxGeomSweepHit@2@V?$PxFlags@W4Enum@PxHitFlag@physx@@G@2@MPEAUPxQueryThreadContext@2@@Z 000000018011bc20 f   GuSweepsMesh.obj
 0001:0011b760       ??0TriangleMesh@Gu@physx@@QEAA@AEBUPxTriangleMeshInternalData@2@@Z 000000018011c760 f   GuTriangleMesh.obj
 0001:0011b840       ??0TriangleMesh@Gu@physx@@QEAA@PEAVMeshFactory@12@AEAVTriangleMeshData@12@@Z 000000018011c840 f   GuTriangleMesh.obj
 0001:0011bbc0       ??1TriangleMesh@Gu@physx@@UEAA@XZ 000000018011cbc0 f   GuTriangleMesh.obj
 0001:0011be30       ??_ETriangleMesh@Gu@physx@@UEAAPEAXI@Z 000000018011ce30 f i GuTriangleMesh.obj
 0001:0011be30       ??_GTriangleMesh@Gu@physx@@UEAAPEAXI@Z 000000018011ce30 f i GuTriangleMesh.obj
 0001:0011bea0       ?exportExtraData@TriangleMesh@Gu@physx@@UEAAXAEAVPxSerializationContext@3@@Z 000000018011cea0 f   GuTriangleMesh.obj
 0001:0011c100       ?getLocalBounds@TriangleMesh@Gu@physx@@UEBA?AVPxBounds3@3@XZ 000000018011d100 f i GuTriangleMesh.obj
 0001:0011c190       ?getMassInformation@TriangleMesh@Gu@physx@@UEBAXAEAMAEAV?$PxMat33T@M@3@AEAV?$PxVec3T@M@3@@Z 000000018011d190 f i GuTriangleMesh.obj
 0001:0011c210       ?getNbTriangles@TriangleMesh@Gu@physx@@UEBAIXZ 000000018011d210 f i GuTriangleMesh.obj
 0001:0011c220       ?getPreferSDFProjection@TriangleMesh@Gu@physx@@UEBA_NXZ 000000018011d220 f i GuTriangleMesh.obj
 0001:0011c230       ?getSDF@TriangleMesh@Gu@physx@@UEBAPEBMXZ 000000018011d230 f i GuTriangleMesh.obj
 0001:0011c240       ?getSDFDimensions@TriangleMesh@Gu@physx@@UEBAXAEAI00@Z 000000018011d240 f i GuTriangleMesh.obj
 0001:0011c270       ?getTriangleMaterialIndex@TriangleMesh@Gu@physx@@UEBAGI@Z 000000018011d270 f i GuTriangleMesh.obj
 0001:0011c290       ?getTriangleMeshFlags@TriangleMesh@Gu@physx@@UEBA?AV?$PxFlags@W4Enum@PxTriangleMeshFlag@physx@@E@3@XZ 000000018011d290 f i GuTriangleMesh.obj
 0001:0011c2a0       ?getTrianglesRemap@TriangleMesh@Gu@physx@@UEBAPEBIXZ 000000018011d2a0 f i GuTriangleMesh.obj
 0001:0011c2b0       ?getVerticesForModification@TriangleMesh@Gu@physx@@UEAAPEAV?$PxVec3T@M@3@XZ 000000018011d2b0 f   GuTriangleMesh.obj
 0001:0011c2f0       ?importExtraData@TriangleMesh@Gu@physx@@QEAAXAEAVPxDeserializationContext@3@@Z 000000018011d2f0 f   GuTriangleMesh.obj
 0001:0011c500       ?isKindOf@PxTriangleMesh@physx@@MEBA_NPEBD@Z 000000018011d500 f i GuTriangleMesh.obj
 0001:0011c590       ?onRefCountZero@TriangleMesh@Gu@physx@@UEAAXXZ 000000018011d590 f   GuTriangleMesh.obj
 0001:0011c660       ?refitBVH@TriangleMesh@Gu@physx@@UEAA?AVPxBounds3@3@XZ 000000018011d660 f   GuTriangleMesh.obj
 0001:0011c730       ?requestEdgeList@TriangleMesh@Gu@physx@@QEBAPEBVEdgeList@23@XZ 000000018011d730 f   GuTriangleMesh.obj
 0001:0011c810       ?setAllEdgesActive@TriangleMesh@Gu@physx@@QEAAXXZ 000000018011d810 f   GuTriangleMesh.obj
 0001:0011c900       ?setPreferSDFProjection@TriangleMesh@Gu@physx@@UEAAX_N@Z 000000018011d900 f i GuTriangleMesh.obj
 0001:0011c930       ??0BV4TriangleMesh@Gu@physx@@QEAA@AEBUPxTriangleMeshInternalData@2@@Z 000000018011d930 f   GuTriangleMeshBV4.obj
 0001:0011ca90       ??0BV4TriangleMesh@Gu@physx@@QEAA@PEAVMeshFactory@12@AEAVTriangleMeshData@12@@Z 000000018011da90 f   GuTriangleMeshBV4.obj
 0001:0011cb20       ??_EBV4TriangleMesh@Gu@physx@@UEAAPEAXI@Z 000000018011db20 f i GuTriangleMeshBV4.obj
 0001:0011cb20       ??_GBV4TriangleMesh@Gu@physx@@UEAAPEAXI@Z 000000018011db20 f i GuTriangleMeshBV4.obj
 0001:0011cbb0       ?createObject@BV4TriangleMesh@Gu@physx@@SAPEAVTriangleMesh@23@AEAPEAEAEAVPxDeserializationContext@3@@Z 000000018011dbb0 f   GuTriangleMeshBV4.obj
 0001:0011cc80       ?exportExtraData@BV4TriangleMesh@Gu@physx@@UEAAXAEAVPxSerializationContext@3@@Z 000000018011dc80 f   GuTriangleMeshBV4.obj
 0001:0011ccc0       ?getConcreteTypeName@BV4TriangleMesh@Gu@physx@@UEBAPEBDXZ 000000018011dcc0 f i GuTriangleMeshBV4.obj
 0001:0011ccd0       ?getInternalData@BV4TriangleMesh@Gu@physx@@UEBA_NAEAUPxTriangleMeshInternalData@3@_N@Z 000000018011dcd0 f   GuTriangleMeshBV4.obj
 0001:0011cdc0       ?getMidphaseID@BV4TriangleMesh@Gu@physx@@UEBA?AW4Enum@PxMeshMidPhase@3@XZ 000000018011ddc0 f i GuTriangleMeshBV4.obj
 0001:0011cdc0       ?getMidphaseID@BV4TriangleMeshBuilder@physx@@UEBA?AW4Enum@PxMeshMidPhase@2@XZ 000000018011ddc0 f i GuCookingTriangleMesh.obj
 0001:0011cdc0       ?length@charNode@@UEBAHXZ  000000018011ddc0 f i libvcruntime:undname.obj
 0001:0011cdc0       ?raw_length@charNode@@UEBAHXZ 000000018011ddc0 f i libvcruntime:undname.obj
 0001:0011cdc0       DllMain                    000000018011ddc0 f i LIBCMT:dll_dllmain_stub.obj
 0001:0011cdc0       _get_startup_argv_mode     000000018011ddc0 f i LIBCMT:argv_mode.obj
 0001:0011cdd0       ?getVerticesForModification@BV4TriangleMesh@Gu@physx@@UEAAPEAV?$PxVec3T@M@3@XZ 000000018011ddd0 f   GuTriangleMeshBV4.obj
 0001:0011cdd0       ?getVerticesForModification@RTreeTriangleMesh@Gu@physx@@UEAAPEAV?$PxVec3T@M@3@XZ 000000018011ddd0 f   GuTriangleMeshRTree.obj
 0001:0011cde0       ?refitBVH@BV4TriangleMesh@Gu@physx@@UEAA?AVPxBounds3@3@XZ 000000018011dde0 f   GuTriangleMeshBV4.obj
 0001:0011cf50       PxGetTriangleMeshInternalData 000000018011df50 f   GuTriangleMeshBV4.obj
 0001:0011cf70       ??0RTreeTriangleMesh@Gu@physx@@QEAA@PEAVMeshFactory@12@AEAVTriangleMeshData@12@@Z 000000018011df70 f   GuTriangleMeshRTree.obj
 0001:0011d0e0       ??_E?$RefitCallback@G@physx@@UEAAPEAXI@Z 000000018011e0e0 f i GuTriangleMeshRTree.obj
 0001:0011d0e0       ??_E?$RefitCallback@I@physx@@UEAAPEAXI@Z 000000018011e0e0 f i GuTriangleMeshRTree.obj
 0001:0011d0e0       ??_G?$RefitCallback@G@physx@@UEAAPEAXI@Z 000000018011e0e0 f i GuTriangleMeshRTree.obj
 0001:0011d0e0       ??_G?$RefitCallback@I@physx@@UEAAPEAXI@Z 000000018011e0e0 f i GuTriangleMeshRTree.obj
 0001:0011d110       ??_ERTreeTriangleMesh@Gu@physx@@UEAAPEAXI@Z 000000018011e110 f i GuTriangleMeshRTree.obj
 0001:0011d110       ??_GRTreeTriangleMesh@Gu@physx@@UEAAPEAXI@Z 000000018011e110 f i GuTriangleMeshRTree.obj
 0001:0011d1c0       ?createObject@RTreeTriangleMesh@Gu@physx@@SAPEAVTriangleMesh@23@AEAPEAEAEAVPxDeserializationContext@3@@Z 000000018011e1c0 f   GuTriangleMeshRTree.obj
 0001:0011d240       ?exportExtraData@RTreeTriangleMesh@Gu@physx@@UEAAXAEAVPxSerializationContext@3@@Z 000000018011e240 f   GuTriangleMeshRTree.obj
 0001:0011d280       ?getConcreteTypeName@RTreeTriangleMesh@Gu@physx@@UEBAPEBDXZ 000000018011e280 f i GuTriangleMeshRTree.obj
 0001:0011d290       ?recomputeBounds@?$RefitCallback@G@physx@@UEAAXIAEAT__m128@@0@Z 000000018011e290 f i GuTriangleMeshRTree.obj
 0001:0011d5c0       ?recomputeBounds@?$RefitCallback@I@physx@@UEAAXIAEAT__m128@@0@Z 000000018011e5c0 f i GuTriangleMeshRTree.obj
 0001:0011d8e0       ?refitBVH@RTreeTriangleMesh@Gu@physx@@UEAA?AVPxBounds3@3@XZ 000000018011e8e0 f   GuTriangleMeshRTree.obj
 0001:0011da00       ??0BV32Tree@Gu@physx@@QEAA@W4PxEMPTY@2@@Z 000000018011ea00 f   GuBV32.obj
 0001:0011da20       ??0BV32Tree@Gu@physx@@QEAA@XZ 000000018011ea20 f   GuBV32.obj
 0001:0011da50       ??1BV32Tree@Gu@physx@@QEAA@XZ 000000018011ea50 f   GuBV32.obj
 0001:0011da60       ?createSOAformatNode@BV32Tree@Gu@physx@@QEAAXAEAUBV32DataPacked@23@AEBUBV32Data@23@IAEAI2@Z 000000018011ea60 f   GuBV32.obj
 0001:0011dec0       ?exportExtraData@BV32Tree@Gu@physx@@QEAAXAEAVPxSerializationContext@3@@Z 000000018011eec0 f   GuBV32.obj
 0001:0011df00       ?importExtraData@BV32Tree@Gu@physx@@QEAAXAEAVPxDeserializationContext@3@@Z 000000018011ef00 f   GuBV32.obj
 0001:0011df30       ?load@BV32Tree@Gu@physx@@QEAA_NAEAVPxInputStream@3@_N@Z 000000018011ef30 f   GuBV32.obj
 0001:0011e270       ?release@BV32Tree@Gu@physx@@QEAAXXZ 000000018011f270 f   GuBV32.obj
 0001:0011e330       ??0BV32Node@@QEAA@XZ       000000018011f330 f i GuBV32Build.obj
 0001:0011e7b0       ?BuildBV32Ex@Gu@physx@@YA_NAEAVBV32Tree@12@AEAVSourceMeshBase@12@MI@Z 000000018011f7b0 f   GuBV32Build.obj
 0001:0011f7a0       ??0BVTetrahedronMesh@Gu@physx@@QEAA@AEAVTetrahedronMeshData@12@AEAVSoftBodyCollisionData@12@PEAVMeshFactory@12@@Z 00000001801207a0 f   GuTetrahedronMesh.obj
 0001:0011fa00       ??0SoftBodyMesh@Gu@physx@@QEAA@PEAVMeshFactory@12@AEAVSoftBodyMeshData@12@@Z 0000000180120a00 f   GuTetrahedronMesh.obj
 0001:0011fda0       ??0TetrahedronMesh@Gu@physx@@QEAA@PEAVMeshFactory@12@AEAVTetrahedronMeshData@12@@Z 0000000180120da0 f   GuTetrahedronMesh.obj
 0001:0011fe90       ??1SoftBodyAuxData@Gu@physx@@UEAA@XZ 0000000180120e90 f   GuTetrahedronMesh.obj
 0001:00120110       ??1TetrahedronMesh@Gu@physx@@UEAA@XZ 0000000180121110 f   GuTetrahedronMesh.obj
 0001:001201b0       ??_EBVTetrahedronMesh@Gu@physx@@UEAAPEAXI@Z 00000001801211b0 f i GuTetrahedronMesh.obj
 0001:001201b0       ??_GBVTetrahedronMesh@Gu@physx@@UEAAPEAXI@Z 00000001801211b0 f i GuTetrahedronMesh.obj
 0001:00120330       ??_ESoftBodyAuxData@Gu@physx@@UEAAPEAXI@Z 0000000180121330 f i GuTetrahedronMesh.obj
 0001:00120330       ??_GSoftBodyAuxData@Gu@physx@@UEAAPEAXI@Z 0000000180121330 f i GuTetrahedronMesh.obj
 0001:001203a0       ??_ESoftBodyMesh@Gu@physx@@UEAAPEAXI@Z 00000001801213a0 f i GuTetrahedronMesh.obj
 0001:001203a0       ??_GSoftBodyMesh@Gu@physx@@UEAAPEAXI@Z 00000001801213a0 f i GuTetrahedronMesh.obj
 0001:00120470       ??_ETetrahedronMesh@Gu@physx@@UEAAPEAXI@Z 0000000180121470 f i GuTetrahedronMesh.obj
 0001:00120470       ??_GTetrahedronMesh@Gu@physx@@UEAAPEAXI@Z 0000000180121470 f i GuTetrahedronMesh.obj
 0001:001204e0       ?exportExtraData@SoftBodyMesh@Gu@physx@@UEAAXAEAVPxSerializationContext@3@@Z 00000001801214e0 f   GuTetrahedronMesh.obj
 0001:001205d0       ?getConcreteTypeName@SoftBodyAuxData@Gu@physx@@UEBAPEBDXZ 00000001801215d0 f i GuTetrahedronMesh.obj
 0001:001205e0       ?getConcreteTypeName@SoftBodyMesh@Gu@physx@@UEBAPEBDXZ 00000001801215e0 f i GuTetrahedronMesh.obj
 0001:001205f0       ?getConcreteTypeName@TetrahedronMesh@Gu@physx@@UEBAPEBDXZ 00000001801215f0 f i GuTetrahedronMesh.obj
 0001:00120600       ?getLocalBounds@TetrahedronMesh@Gu@physx@@UEBA?AVPxBounds3@3@XZ 0000000180121600 f i GuTetrahedronMesh.obj
 0001:00120690       ?getNbTetrahedrons@TetrahedronMesh@Gu@physx@@UEBAIXZ 0000000180121690 f i GuTetrahedronMesh.obj
 0001:001206a0       ?getBounds@BVH@Gu@physx@@UEBAPEBVPxBounds3@3@XZ 00000001801216a0 f i GuBVH.obj
 0001:001206a0       ?getTetrahedraRemap@BVTetrahedronMesh@Gu@physx@@UEBAPEBIXZ 00000001801216a0 f i GuTetrahedronMesh.obj
 0001:001206b0       ?getTetrahedronMeshFlags@TetrahedronMesh@Gu@physx@@UEBA?AV?$PxFlags@W4Enum@PxTetrahedronMeshFlag@physx@@E@3@XZ 00000001801216b0 f i GuTetrahedronMesh.obj
 0001:001206c0       ?getTetrahedrons@TetrahedronMesh@Gu@physx@@UEBAPEBXXZ 00000001801216c0 f i GuTetrahedronMesh.obj
 0001:001206d0       ?isKindOf@PxSoftBodyAuxData@physx@@MEBA_NPEBD@Z 00000001801216d0 f i GuTetrahedronMesh.obj
 0001:00120760       ?isKindOf@PxSoftBodyMesh@physx@@MEBA_NPEBD@Z 0000000180121760 f i GuTetrahedronMesh.obj
 0001:001207f0       ?isKindOf@PxTetrahedronMesh@physx@@MEBA_NPEBD@Z 00000001801217f0 f i GuTetrahedronMesh.obj
 0001:00120880       ?onRefCountZero@SoftBodyAuxData@Gu@physx@@UEAAXXZ 0000000180121880 f i GuTetrahedronMesh.obj
 0001:00120880       ?release@SimulationTetrahedronMeshData@Gu@physx@@UEAAXXZ 0000000180121880 f i GuCookingTetrahedronMesh.obj
 0001:001208a0       ?onRefCountZero@SoftBodyMesh@Gu@physx@@UEAAXXZ 00000001801218a0 f   GuTetrahedronMesh.obj
 0001:00120940       ?onRefCountZero@TetrahedronMesh@Gu@physx@@UEAAXXZ 0000000180121940 f   GuTetrahedronMesh.obj
 0001:001209e0       ?addAxisToSimMeshBarycentric@Gu@physx@@YA?AV?$PxVec4T@M@2@AEBVPxTetrahedronMesh@2@IAEBV32@AEBV?$PxVec3T@M@2@@Z 00000001801219e0 f   GuTetrahedronMeshUtils.obj
 0001:00120ca0       ?closestPtPointTetrahedron@Gu@physx@@YA?AV?$PxVec3T@M@2@AEBV32@0000@Z 0000000180121ca0 f i GuTetrahedronMeshUtils.obj
 0001:00121de0       ?computeBarycentric@physx@@YAXAEBV?$PxVec3T@M@1@0000AEAV?$PxVec4T@M@1@@Z 0000000180122de0 f i GuTetrahedronMeshUtils.obj
 0001:00122090       ?convertSoftbodyCollisionToSimMeshTets@Gu@physx@@YAXAEBVPxTetrahedronMesh@2@AEBVSoftBodyAuxData@12@AEBVBVTetrahedronMesh@12@IAEBV?$PxVec4T@M@2@AEAIAEAV62@@Z 0000000180123090 f   GuTetrahedronMeshUtils.obj
 0001:00124c70       ?pcmContactBoxBox@Gu@physx@@YA_NAEBVPxGeometry@2@0AEBUPxTransformPadded@2@1AEBUNarrowPhaseParams@12@AEAUCache@12@AEAVPxContactBuffer@2@PEAVPxRenderOutput@2@@Z 0000000180125c70 f   GuPCMContactBoxBox.obj
 0001:00125b10       ??$gjkPenetration@U?$RelativeConvex@VBoxV@Gu@physx@@@Gu@physx@@U?$LocalConvex@VConvexHullNoScaleV@Gu@physx@@@23@@Gu@physx@@YA?AW4GjkStatus@01@AEBU?$RelativeConvex@VBoxV@Gu@physx@@@01@AEBU?$LocalConvex@VConvexHullNoScaleV@Gu@physx@@@01@AEBT__m128@@2_NPEIAE4AEAEAEAUGjkOutput@01@@Z 0000000180126b10 f i GuPCMContactBoxConvex.obj
 0001:00125b80       ??$gjkPenetration@U?$RelativeConvex@VBoxV@Gu@physx@@@Gu@physx@@U?$LocalConvex@VConvexHullNoScaleV@Gu@physx@@@23@@Gu@physx@@YA?AW4GjkStatus@01@AEBU?$RelativeConvex@VBoxV@Gu@physx@@@01@AEBU?$LocalConvex@VConvexHullNoScaleV@Gu@physx@@@01@AEBT__m128@@2_NPEIAE4PEIAT5@5AEAEAEAUGjkOutput@01@@Z 0000000180126b80 f i GuPCMContactBoxConvex.obj
 0001:00127760       ?pcmContactBoxConvex@Gu@physx@@YA_NAEBVPxGeometry@2@0AEBUPxTransformPadded@2@1AEBUNarrowPhaseParams@12@AEAUCache@12@AEAVPxContactBuffer@2@PEAVPxRenderOutput@2@@Z 0000000180128760 f   GuPCMContactBoxConvex.obj
 0001:00128560       ?support@?$LocalConvex@VConvexHullNoScaleV@Gu@physx@@@Gu@physx@@UEBA?AT__m128@@AEBT4@@Z 0000000180129560 f i GuPCMContactBoxConvex.obj
 0001:001285b0       ?support@?$LocalConvex@VConvexHullNoScaleV@Gu@physx@@@Gu@physx@@UEBA?AT__m128@@AEBT4@AEAH@Z 00000001801295b0 f i GuPCMContactBoxConvex.obj
 0001:00128610       ?supportPoint@?$LocalConvex@VConvexHullNoScaleV@Gu@physx@@@Gu@physx@@UEBA?AT__m128@@H@Z 0000000180129610 f i GuPCMContactBoxConvex.obj
 0001:00128640       ?pcmContactCapsuleBox@Gu@physx@@YA_NAEBVPxGeometry@2@0AEBUPxTransformPadded@2@1AEBUNarrowPhaseParams@12@AEAUCache@12@AEAVPxContactBuffer@2@PEAVPxRenderOutput@2@@Z 0000000180129640 f   GuPCMContactCapsuleBox.obj
 0001:001295a0       ?pcmContactCapsuleCapsule@Gu@physx@@YA_NAEBVPxGeometry@2@0AEBUPxTransformPadded@2@1AEBUNarrowPhaseParams@12@AEAUCache@12@AEAVPxContactBuffer@2@PEAVPxRenderOutput@2@@Z 000000018012a5a0 f   GuPCMContactCapsuleCapsule.obj
 0001:00129d40       ??$gjkPenetration@U?$LocalConvex@VCapsuleV@Gu@physx@@@Gu@physx@@U?$LocalConvex@VConvexHullNoScaleV@Gu@physx@@@23@@Gu@physx@@YA?AW4GjkStatus@01@AEBU?$LocalConvex@VCapsuleV@Gu@physx@@@01@AEBU?$LocalConvex@VConvexHullNoScaleV@Gu@physx@@@01@AEBT__m128@@2_NPEIAE4AEAEAEAUGjkOutput@01@@Z 000000018012ad40 f i GuPCMContactCapsuleConvex.obj
 0001:00129db0       ??$gjkPenetration@U?$LocalConvex@VCapsuleV@Gu@physx@@@Gu@physx@@U?$LocalConvex@VConvexHullNoScaleV@Gu@physx@@@23@@Gu@physx@@YA?AW4GjkStatus@01@AEBU?$LocalConvex@VCapsuleV@Gu@physx@@@01@AEBU?$LocalConvex@VConvexHullNoScaleV@Gu@physx@@@01@AEBT__m128@@2_NPEIAE4PEIAT5@5AEAEAEAUGjkOutput@01@@Z 000000018012adb0 f i GuPCMContactCapsuleConvex.obj
 0001:0012b470       ?pcmContactCapsuleConvex@Gu@physx@@YA_NAEBVPxGeometry@2@0AEBUPxTransformPadded@2@1AEBUNarrowPhaseParams@12@AEAUCache@12@AEAVPxContactBuffer@2@PEAVPxRenderOutput@2@@Z 000000018012c470 f   GuPCMContactCapsuleConvex.obj
 0001:0012c660       ??_EPCMCapsuleVsHeightfieldContactGenerationCallback@@UEAAPEAXI@Z 000000018012d660 f i GuPCMContactCapsuleHeightField.obj
 0001:0012c660       ??_GPCMCapsuleVsHeightfieldContactGenerationCallback@@UEAAPEAXI@Z 000000018012d660 f i GuPCMContactCapsuleHeightField.obj
 0001:0012c690       ?pcmContactCapsuleHeightField@Gu@physx@@YA_NAEBVPxGeometry@2@0AEBUPxTransformPadded@2@1AEBUNarrowPhaseParams@12@AEAUCache@12@AEAVPxContactBuffer@2@PEAVPxRenderOutput@2@@Z 000000018012d690 f   GuPCMContactCapsuleHeightField.obj
 0001:0012d5a0       ?reportTouchedTris@?$PCMHeightfieldContactGenerationCallback@UPCMCapsuleVsHeightfieldContactGenerationCallback@@@Gu@physx@@UEAA_NIPEBI@Z 000000018012e5a0 f i GuPCMContactCapsuleHeightField.obj
 0001:0012dc10       ?generateContacts@PCMCapsuleVsMeshContactGeneration@Gu@physx@@SAXAEBT__m128@@0000I000PEAVMeshPersistentContact@23@AEAI@Z 000000018012ec10 f   GuPCMContactCapsuleMesh.obj
 0001:0012e030       ?generateEE@PCMCapsuleVsMeshContactGeneration@Gu@physx@@QEAAXAEBT__m128@@000I00PEAVMeshPersistentContact@23@AEAI@Z 000000018012f030 f   GuPCMContactCapsuleMesh.obj
 0001:0012e2a0       ?generateEEMTD@PCMCapsuleVsMeshContactGeneration@Gu@physx@@SAXAEBT__m128@@000I00PEAVMeshPersistentContact@23@AEAI@Z 000000018012f2a0 f   GuPCMContactCapsuleMesh.obj
 0001:0012e4d0       ?pcmContactCapsuleMesh@Gu@physx@@YA_NAEBVPxGeometry@2@0AEBUPxTransformPadded@2@1AEBUNarrowPhaseParams@12@AEAUCache@12@AEAVPxContactBuffer@2@PEAVPxRenderOutput@2@@Z 000000018012f4d0 f   GuPCMContactCapsuleMesh.obj
 0001:0012fd40       ?pcmDistanceSegmentTriangleSquaredExported@@YA?AT__m128@@AEBT1@0000AEAT1@11@Z 0000000180130d40 f   GuPCMContactCapsuleMesh.obj
 0001:001301a0       ?processTriangle@PCMCapsuleVsMeshContactGeneration@Gu@physx@@QEAA_NPEBV?$PxVec3T@M@3@IEPEBI@Z 00000001801311a0 f   GuPCMContactCapsuleMesh.obj
 0001:00130da0       ?processTriangle@PCMCapsuleVsMeshContactGeneration@Gu@physx@@SA_NAEBVTriangleV@23@IAEBVCapsuleV@23@AEBT__m128@@EPEAVMeshPersistentContact@23@AEAI@Z 0000000180131da0 f   GuPCMContactCapsuleMesh.obj
 0001:001310d0       ?addContactsToPatch@PCMConvexVsMeshContactGeneration@Gu@physx@@QEAAXAEBT__m128@@I@Z 00000001801320d0 f   GuPCMContactConvexCommon.obj
 0001:00131a10       ?doSupport@?$SupportLocalImpl@VTriangleV@Gu@physx@@@Gu@physx@@UEBA?AT__m128@@AEBT4@@Z 0000000180132a10 f i GuPCMContactConvexCommon.obj
 0001:00131aa0       ?doSupport@?$SupportLocalImpl@VTriangleV@Gu@physx@@@Gu@physx@@UEBAXAEBT__m128@@AEAT4@1@Z 0000000180132aa0 f i GuPCMContactConvexCommon.obj
 0001:00131b10       ?generateLastContacts@PCMConvexVsMeshContactGeneration@Gu@physx@@QEAAXXZ 0000000180132b10 f   GuPCMContactConvexCommon.obj
 0001:00132070       ?populateVerts@?$SupportLocalImpl@VTriangleV@Gu@physx@@@Gu@physx@@UEBAXPEBEIPEBV?$PxVec3T@M@3@PEAT__m128@@@Z 0000000180133070 f i GuPCMContactConvexCommon.obj
 0001:001321b0       ?processTriangle@PCMConvexVsMeshContactGeneration@Gu@physx@@QEAA_NPEBV?$PxVec3T@M@3@IEPEBI@Z 00000001801331b0 f   GuPCMContactConvexCommon.obj
 0001:00132700       ?processTriangle@PCMConvexVsMeshContactGeneration@Gu@physx@@SA_NAEBUPolygonalData@23@PEBVSupportLocal@23@PEBV?$PxVec3T@M@3@IEAEBT__m128@@_NAEBVPxTransformV@aos@3@AEBVPxMatTransformV@93@PEAVMeshPersistentContact@23@AEAI@Z 0000000180133700 f   GuPCMContactConvexCommon.obj
 0001:00132980       ??$gjkPenetration@U?$RelativeConvex@VConvexHullNoScaleV@Gu@physx@@@Gu@physx@@U?$LocalConvex@VConvexHullNoScaleV@Gu@physx@@@23@@Gu@physx@@YA?AW4GjkStatus@01@AEBU?$RelativeConvex@VConvexHullNoScaleV@Gu@physx@@@01@AEBU?$LocalConvex@VConvexHullNoScaleV@Gu@physx@@@01@AEBT__m128@@2_NPEIAE4AEAEAEAUGjkOutput@01@@Z 0000000180133980 f i GuPCMContactConvexConvex.obj
 0001:001329f0       ??$gjkPenetration@U?$RelativeConvex@VConvexHullNoScaleV@Gu@physx@@@Gu@physx@@U?$LocalConvex@VConvexHullNoScaleV@Gu@physx@@@23@@Gu@physx@@YA?AW4GjkStatus@01@AEBU?$RelativeConvex@VConvexHullNoScaleV@Gu@physx@@@01@AEBU?$LocalConvex@VConvexHullNoScaleV@Gu@physx@@@01@AEBT__m128@@2_NPEIAE4PEIAT5@5AEAEAEAUGjkOutput@01@@Z 00000001801339f0 f i GuPCMContactConvexConvex.obj
 0001:00133f00       ??$gjkPenetration@U?$RelativeConvex@VConvexHullNoScaleV@Gu@physx@@@Gu@physx@@U?$LocalConvex@VConvexHullV@Gu@physx@@@23@@Gu@physx@@YA?AW4GjkStatus@01@AEBU?$RelativeConvex@VConvexHullNoScaleV@Gu@physx@@@01@AEBU?$LocalConvex@VConvexHullV@Gu@physx@@@01@AEBT__m128@@2_NPEIAE4AEAEAEAUGjkOutput@01@@Z 0000000180134f00 f i GuPCMContactConvexConvex.obj
 0001:00133f70       ??$gjkPenetration@U?$RelativeConvex@VConvexHullNoScaleV@Gu@physx@@@Gu@physx@@U?$LocalConvex@VConvexHullV@Gu@physx@@@23@@Gu@physx@@YA?AW4GjkStatus@01@AEBU?$RelativeConvex@VConvexHullNoScaleV@Gu@physx@@@01@AEBU?$LocalConvex@VConvexHullV@Gu@physx@@@01@AEBT__m128@@2_NPEIAE4PEIAT5@5AEAEAEAUGjkOutput@01@@Z 0000000180134f70 f i GuPCMContactConvexConvex.obj
 0001:00135510       ??$gjkPenetration@U?$RelativeConvex@VConvexHullV@Gu@physx@@@Gu@physx@@U?$LocalConvex@VConvexHullNoScaleV@Gu@physx@@@23@@Gu@physx@@YA?AW4GjkStatus@01@AEBU?$RelativeConvex@VConvexHullV@Gu@physx@@@01@AEBU?$LocalConvex@VConvexHullNoScaleV@Gu@physx@@@01@AEBT__m128@@2_NPEIAE4AEAEAEAUGjkOutput@01@@Z 0000000180136510 f i GuPCMContactConvexConvex.obj
 0001:00135580       ??$gjkPenetration@U?$RelativeConvex@VConvexHullV@Gu@physx@@@Gu@physx@@U?$LocalConvex@VConvexHullNoScaleV@Gu@physx@@@23@@Gu@physx@@YA?AW4GjkStatus@01@AEBU?$RelativeConvex@VConvexHullV@Gu@physx@@@01@AEBU?$LocalConvex@VConvexHullNoScaleV@Gu@physx@@@01@AEBT__m128@@2_NPEIAE4PEIAT5@5AEAEAEAUGjkOutput@01@@Z 0000000180136580 f i GuPCMContactConvexConvex.obj
 0001:00137570       ?pcmContactConvexConvex@Gu@physx@@YA_NAEBVPxGeometry@2@0AEBUPxTransformPadded@2@1AEBUNarrowPhaseParams@12@AEAUCache@12@AEAVPxContactBuffer@2@PEAVPxRenderOutput@2@@Z 0000000180138570 f   GuPCMContactConvexConvex.obj
 0001:00138680       ?support@?$RelativeConvex@VConvexHullNoScaleV@Gu@physx@@@Gu@physx@@UEBA?AT__m128@@AEBT4@@Z 0000000180139680 f i GuPCMContactConvexConvex.obj
 0001:00138730       ?support@?$RelativeConvex@VConvexHullNoScaleV@Gu@physx@@@Gu@physx@@UEBA?AT__m128@@AEBT4@AEAH@Z 0000000180139730 f i GuPCMContactConvexConvex.obj
 0001:001387f0       ?supportPoint@?$RelativeConvex@VConvexHullNoScaleV@Gu@physx@@@Gu@physx@@UEBA?AT__m128@@H@Z 00000001801397f0 f i GuPCMContactConvexConvex.obj
 0001:00138880       ?PCMContactConvexHeightfield@Gu@physx@@YA_NAEBUPolygonalData@12@PEBVSupportLocal@12@AEBT__m128@@AEBVPxBounds3@2@AEBVPxHeightFieldGeometry@2@AEBV?$PxTransformT@M@2@5MAEAVPxContactBuffer@2@AEBVFastVertex2ShapeScaling@Cm@2@_NAEAVMultiplePersistentContactManifold@12@PEAVPxRenderOutput@2@@Z 0000000180139880 f   GuPCMContactConvexHeightField.obj
 0001:00139700       ?pcmContactBoxHeightField@Gu@physx@@YA_NAEBVPxGeometry@2@0AEBUPxTransformPadded@2@1AEBUNarrowPhaseParams@12@AEAUCache@12@AEAVPxContactBuffer@2@PEAVPxRenderOutput@2@@Z 000000018013a700 f   GuPCMContactConvexHeightField.obj
 0001:001399a0       ?pcmContactConvexHeightField@Gu@physx@@YA_NAEBVPxGeometry@2@0AEBUPxTransformPadded@2@1AEBUNarrowPhaseParams@12@AEAUCache@12@AEAVPxContactBuffer@2@PEAVPxRenderOutput@2@@Z 000000018013a9a0 f   GuPCMContactConvexHeightField.obj
 0001:0013a6f0       ?PCMContactConvexMesh@Gu@physx@@YA_NAEBUPolygonalData@12@PEBVSupportLocal@12@AEBT__m128@@AEBVPxBounds3@2@AEBVPxTriangleMeshGeometry@2@AEBV?$PxTransformT@M@2@5MAEAVPxContactBuffer@2@AEBVFastVertex2ShapeScaling@Cm@2@7_N8AEAVMultiplePersistentContactManifold@12@PEAVPxRenderOutput@2@@Z 000000018013b6f0 f   GuPCMContactConvexMesh.obj
 0001:0013b1f0       ?pcmContactBoxMesh@Gu@physx@@YA_NAEBVPxGeometry@2@0AEBUPxTransformPadded@2@1AEBUNarrowPhaseParams@12@AEAUCache@12@AEAVPxContactBuffer@2@PEAVPxRenderOutput@2@@Z 000000018013c1f0 f   GuPCMContactConvexMesh.obj
 0001:0013b530       ?pcmContactConvexMesh@Gu@physx@@YA_NAEBVPxGeometry@2@0AEBUPxTransformPadded@2@1AEBUNarrowPhaseParams@12@AEAUCache@12@AEAVPxContactBuffer@2@PEAVPxRenderOutput@2@@Z 000000018013c530 f   GuPCMContactConvexMesh.obj
 0001:0013c140       ?addGJKEPAContacts@Gu@physx@@YA_NPEBUGjkConvex@12@0AEBVPxMatTransformV@aos@2@W4GjkStatus@12@PEAVPersistentContact@12@T__m128@@4AEAUGjkOutput@12@AEAVPersistentContactManifold@12@@Z 000000018013d140 f   GuPCMContactGenBoxConvex.obj
 0001:0013c5f0       ?computeMTD@Gu@physx@@YA_NAEBUPolygonalData@12@0PEBVSupportLocal@12@1AEAT__m128@@2@Z 000000018013d5f0 f   GuPCMContactGenBoxConvex.obj
 0001:0013cc20       ?generateFullContactManifold@Gu@physx@@YA_NAEBUPolygonalData@12@0PEBVSupportLocal@12@1PEAVPersistentContact@12@AEAIAEBT__m128@@444MM_NPEAVPxRenderOutput@2@M@Z 000000018013dc20 f   GuPCMContactGenBoxConvex.obj
 0001:0013eb90       ?computeMTD@Gu@physx@@YA_NAEBVCapsuleV@12@AEBUPolygonalData@12@PEBVSupportLocal@12@AEAT__m128@@3@Z 000000018013fb90 f   GuPCMContactGenSphereCapsule.obj
 0001:0013ec80       ?generateCapsuleBoxFullContactManifold@Gu@physx@@YA_NAEBVCapsuleV@12@AEBUPolygonalData@12@PEBVSupportLocal@12@AEBVPxMatTransformV@aos@2@PEAVPersistentContact@12@AEAIAEBT__m128@@AEAT9@6M_NMPEAVPxRenderOutput@2@@Z 000000018013fc80 f   GuPCMContactGenSphereCapsule.obj
 0001:0013ee20       ?generateFullContactManifold@Gu@physx@@YA_NAEBVCapsuleV@12@AEBUPolygonalData@12@PEBVSupportLocal@12@AEBVPxMatTransformV@aos@2@PEAVPersistentContact@12@AEAIAEBT__m128@@AEAT9@6M_NM@Z 000000018013fe20 f   GuPCMContactGenSphereCapsule.obj
 0001:0013f010       ?generateSphereFullContactManifold@Gu@physx@@YA_NAEBVCapsuleV@12@AEBUPolygonalData@12@PEBVSupportLocal@12@PEAVPersistentContact@12@AEAIAEBT__m128@@AEAT7@_N@Z 0000000180140010 f   GuPCMContactGenSphereCapsule.obj
 0001:00140510       ?pcmContactPlaneBox@Gu@physx@@YA_NAEBVPxGeometry@2@0AEBUPxTransformPadded@2@1AEBUNarrowPhaseParams@12@AEAUCache@12@AEAVPxContactBuffer@2@PEAVPxRenderOutput@2@@Z 0000000180141510 f   GuPCMContactPlaneBox.obj
 0001:001410d0       ?pcmContactPlaneCapsule@Gu@physx@@YA_NAEBVPxGeometry@2@0AEBUPxTransformPadded@2@1AEBUNarrowPhaseParams@12@AEAUCache@12@AEAVPxContactBuffer@2@PEAVPxRenderOutput@2@@Z 00000001801420d0 f   GuPCMContactPlaneCapsule.obj
 0001:00141850       ?pcmContactPlaneConvex@Gu@physx@@YA_NAEBVPxGeometry@2@0AEBUPxTransformPadded@2@1AEBUNarrowPhaseParams@12@AEAUCache@12@AEAVPxContactBuffer@2@PEAVPxRenderOutput@2@@Z 0000000180142850 f   GuPCMContactPlaneConvex.obj
 0001:001424d0       ?pcmContactSphereBox@Gu@physx@@YA_NAEBVPxGeometry@2@0AEBUPxTransformPadded@2@1AEBUNarrowPhaseParams@12@AEAUCache@12@AEAVPxContactBuffer@2@PEAVPxRenderOutput@2@@Z 00000001801434d0 f   GuPCMContactSphereBox.obj
 0001:00142930       ?pcmContactSphereCapsule@Gu@physx@@YA_NAEBVPxGeometry@2@0AEBUPxTransformPadded@2@1AEBUNarrowPhaseParams@12@AEAUCache@12@AEAVPxContactBuffer@2@PEAVPxRenderOutput@2@@Z 0000000180143930 f   GuPCMContactSphereCapsule.obj
 0001:00142da0       ?pcmContactSphereConvex@Gu@physx@@YA_NAEBVPxGeometry@2@0AEBUPxTransformPadded@2@1AEBUNarrowPhaseParams@12@AEAUCache@12@AEAVPxContactBuffer@2@PEAVPxRenderOutput@2@@Z 0000000180143da0 f   GuPCMContactSphereConvex.obj
 0001:00143a70       ??1?$PxArray@USortedTriangle@Gu@physx@@V?$PxInlineAllocator@$0IAA@V?$PxReflectionAllocator@USortedTriangle@Gu@physx@@@physx@@@3@@physx@@QEAA@XZ 0000000180144a70 f i GuPCMContactSphereHeightField.obj
 0001:00143b30       ?pcmContactSphereHeightField@Gu@physx@@YA_NAEBVPxGeometry@2@0AEBUPxTransformPadded@2@1AEBUNarrowPhaseParams@12@AEAUCache@12@AEAVPxContactBuffer@2@PEAVPxRenderOutput@2@@Z 0000000180144b30 f   GuPCMContactSphereHeightField.obj
 0001:00144ba0       ??$PxSort@USortedTriangle@Gu@physx@@U?$PxLess@USortedTriangle@Gu@physx@@@3@V?$PxReflectionAllocator@USortedTriangle@Gu@physx@@@3@@physx@@YAXPEAUSortedTriangle@Gu@0@IAEBU?$PxLess@USortedTriangle@Gu@physx@@@0@AEBV?$PxReflectionAllocator@USortedTriangle@Gu@physx@@@0@I@Z 0000000180145ba0 f i GuPCMContactSphereMesh.obj
 0001:001450c0       ??$processTriangleCache@$0BA@VPCMSphereVsMeshContactGeneration@Gu@physx@@@PCMMeshContactGeneration@Gu@physx@@QEAA_NAEAU?$TriangleCache@$0BA@@12@@Z 00000001801460c0 f i GuPCMContactSphereMesh.obj
 0001:00145590       ?addToPatch@PCMSphereVsMeshContactGeneration@Gu@physx@@QEAAXAEBT__m128@@0T4@I@Z 0000000180146590 f   GuPCMContactSphereMesh.obj
 0001:00145c50       ?allocate@?$PxArray@IV?$PxInlineAllocator@$0PAA@V?$PxReflectionAllocator@I@physx@@@physx@@@physx@@IEAAPEAII@Z 0000000180146c50 f i GuPCMContactSphereMesh.obj
 0001:00145d10       ?allocate@?$PxArray@USortedTriangle@Gu@physx@@V?$PxInlineAllocator@$0IAA@V?$PxReflectionAllocator@USortedTriangle@Gu@physx@@@physx@@@3@@physx@@IEAAPEAUSortedTriangle@Gu@2@I@Z 0000000180146d10 f i GuPCMContactSphereMesh.obj
 0001:00145dd0       ?generateLastContacts@PCMSphereVsMeshContactGeneration@Gu@physx@@QEAAXXZ 0000000180146dd0 f   GuPCMContactSphereMesh.obj
 0001:00146400       ?growAndPushBack@?$PxArray@USortedTriangle@Gu@physx@@V?$PxInlineAllocator@$0IAA@V?$PxReflectionAllocator@USortedTriangle@Gu@physx@@@physx@@@3@@physx@@IEAAAEAUSortedTriangle@Gu@2@AEBU342@@Z 0000000180147400 f i GuPCMContactSphereMesh.obj
 0001:00146510       ?pcmContactSphereMesh@Gu@physx@@YA_NAEBVPxGeometry@2@0AEBUPxTransformPadded@2@1AEBUNarrowPhaseParams@12@AEAUCache@12@AEAVPxContactBuffer@2@PEAVPxRenderOutput@2@@Z 0000000180147510 f   GuPCMContactSphereMesh.obj
 0001:00147a80       ?processTriangle@PCMSphereVsMeshContactGeneration@Gu@physx@@QEAA_NPEBV?$PxVec3T@M@3@IEPEBI@Z 0000000180148a80 f   GuPCMContactSphereMesh.obj
 0001:00147e70       ?recreate@?$PxArray@IV?$PxInlineAllocator@$0PAA@V?$PxReflectionAllocator@I@physx@@@physx@@@physx@@IEAAXI@Z 0000000180148e70 f i GuPCMContactSphereMesh.obj
 0001:00147f30       ?pcmContactSpherePlane@Gu@physx@@YA_NAEBVPxGeometry@2@0AEBUPxTransformPadded@2@1AEBUNarrowPhaseParams@12@AEAUCache@12@AEAVPxContactBuffer@2@PEAVPxRenderOutput@2@@Z 0000000180148f30 f   GuPCMContactSpherePlane.obj
 0001:001480b0       ?pcmContactSphereSphere@Gu@physx@@YA_NAEBVPxGeometry@2@0AEBUPxTransformPadded@2@1AEBUNarrowPhaseParams@12@AEAUCache@12@AEAVPxContactBuffer@2@PEAVPxRenderOutput@2@@Z 00000001801490b0 f   GuPCMContactSphereSphere.obj
 0001:00148980       ?pcmContactGeometryCustomGeometry@Gu@physx@@YA_NAEBVPxGeometry@2@0AEBUPxTransformPadded@2@1AEBUNarrowPhaseParams@12@AEAUCache@12@AEAVPxContactBuffer@2@PEAVPxRenderOutput@2@@Z 0000000180149980 f   GuPCMContactCustomGeometry.obj
 0001:00148a30       ?getPCMConvexData@Gu@physx@@YAXAEBVConvexHullV@12@_NAEAUPolygonalData@12@@Z 0000000180149a30 f   GuPCMShapeConvex.obj
 0001:00148a70       ?getPCMConvexData@Gu@physx@@YA_NAEBVPxConvexMeshGeometry@2@AEAVFastVertex2ShapeScaling@Cm@2@AEAVPxBounds3@2@AEAUPolygonalData@12@@Z 0000000180149a70 f   GuPCMShapeConvex.obj
 0001:00148fc0       ?getPolygonalData@PCMPolygonalBox@Gu@physx@@QEBAXPEIAUPolygonalData@23@@Z 0000000180149fc0 f   GuPCMShapeConvex.obj
 0001:00149040       ?generatePolyDataContactManifold@PCMConvexVsMeshContactGeneration@Gu@physx@@QEAA_NAEBVTriangleV@23@IIEPEAVMeshPersistentContact@23@AEAIAEBT__m128@@AEAT6@@Z 000000018014a040 f   GuPCMTriangleContactGen.obj
 0001:00149160       ?generateTriangleFullContactManifold@PCMConvexVsMeshContactGeneration@Gu@physx@@QEAA_NAEBVTriangleV@23@IPEBIEAEBUPolygonalData@23@PEBV?$SupportLocalImpl@VTriangleV@Gu@physx@@@23@PEBVSupportLocal@23@PEAVMeshPersistentContact@23@AEAIAEBT__m128@@AEAT9@@Z 000000018014a160 f   GuPCMTriangleContactGen.obj
 0001:00149690       ?generateTriangleFullContactManifold@PCMConvexVsMeshContactGeneration@Gu@physx@@SA_NAEBVTriangleV@23@IEAEBUPolygonalData@23@PEBV?$SupportLocalImpl@VTriangleV@Gu@physx@@@23@PEBVSupportLocal@23@PEAVMeshPersistentContact@23@AEAIAEBT__m128@@AEAT9@PEAVPxRenderOutput@3@@Z 000000018014a690 f   GuPCMTriangleContactGen.obj
 0001:0014b710       ?addBatchManifoldContacts2@PersistentContactManifold@Gu@physx@@QEAAXPEBVPersistentContact@23@I@Z 000000018014c710 f   GuPersistentContactManifold.obj
 0001:0014b780       ?addBatchManifoldContacts@PersistentContactManifold@Gu@physx@@QEAAXPEBVPersistentContact@23@IM@Z 000000018014c780 f   GuPersistentContactManifold.obj
 0001:0014b800       ?addBatchManifoldContactsCluster@PersistentContactManifold@Gu@physx@@QEAAXPEBVPersistentContact@23@I@Z 000000018014c800 f   GuPersistentContactManifold.obj
 0001:0014ba80       ?addManifoldContactPoints@MultiplePersistentContactManifold@Gu@physx@@QEAAXPEAVMeshPersistentContact@23@IPEAPEAUPCMContactPatch@23@IAEBT__m128@@2E@Z 000000018014ca80 f   GuPersistentContactManifold.obj
 0001:0014be70       ?addManifoldContactsToContactBuffer@MultiplePersistentContactManifold@Gu@physx@@QEAA_NAEAVPxContactBuffer@3@AEBVPxTransformV@aos@3@1AEBT__m128@@@Z 000000018014ce70 f   GuPersistentContactManifold.obj
 0001:0014c130       ?addManifoldContactsToContactBuffer@MultiplePersistentContactManifold@Gu@physx@@QEAA_NAEAVPxContactBuffer@3@AEBVPxTransformV@aos@3@@Z 000000018014d130 f   GuPersistentContactManifold.obj
 0001:0014c3c0       ?addManifoldContactsToContactBuffer@PersistentContactManifold@Gu@physx@@QEAAXAEAVPxContactBuffer@3@AEBT__m128@@1AEBVPxTransformV@aos@3@11@Z 000000018014d3c0 f   GuPersistentContactManifold.obj
 0001:0014c550       ?addManifoldContactsToContactBuffer@PersistentContactManifold@Gu@physx@@QEAAXAEAVPxContactBuffer@3@AEBT__m128@@AEBVPxMatTransformV@aos@3@@Z 000000018014d550 f   GuPersistentContactManifold.obj
 0001:0014c600       ?addManifoldContactsToContactBuffer@PersistentContactManifold@Gu@physx@@QEAAXAEAVPxContactBuffer@3@AEBT__m128@@AEBVPxTransformV@aos@3@1@Z 000000018014d600 f   GuPersistentContactManifold.obj
 0001:0014c760       ?addManifoldPoint2@PersistentContactManifold@Gu@physx@@QEAAIAEBT__m128@@000@Z 000000018014d760 f   GuPersistentContactManifold.obj
 0001:0014c890       ?addManifoldPoint@Gu@physx@@YAXPEAVPersistentContact@12@AEAVPersistentContactManifold@12@AEAUGjkOutput@12@AEBVPxMatTransformV@aos@2@T__m128@@@Z 000000018014d890 f   GuPersistentContactManifold.obj
 0001:0014ca40       ?addManifoldPoint@PersistentContactManifold@Gu@physx@@QEAAIAEBT__m128@@000@Z 000000018014da40 f   GuPersistentContactManifold.obj
 0001:0014ce80       ?drawLine@MultiplePersistentContactManifold@Gu@physx@@SAXAEAVPxRenderOutput@3@AEBT__m128@@1I@Z 000000018014de80 f   GuPersistentContactManifold.obj
 0001:0014cf30       ?drawLine@MultiplePersistentContactManifold@Gu@physx@@SAXAEAVPxRenderOutput@3@V?$PxVec3T@M@3@1I@Z 000000018014df30 f   GuPersistentContactManifold.obj
 0001:0014cfa0       ?drawManifold@MultiplePersistentContactManifold@Gu@physx@@QEBAXAEAVPxRenderOutput@3@AEBVPxTransformV@aos@3@1@Z 000000018014dfa0 f   GuPersistentContactManifold.obj
 0001:0014d630       ?drawPoint@MultiplePersistentContactManifold@Gu@physx@@SAXAEAVPxRenderOutput@3@AEBT__m128@@MI@Z 000000018014e630 f   GuPersistentContactManifold.obj
 0001:0014d840       ?drawPolygon@MultiplePersistentContactManifold@Gu@physx@@SAXAEAVPxRenderOutput@3@AEBVPxTransformV@aos@3@PEAT__m128@@II@Z 000000018014e840 f   GuPersistentContactManifold.obj
 0001:0014dac0       ?findRotationMatrixFromZAxis@Gu@physx@@YA?AUMat33V@aos@2@AEBT__m128@@@Z 000000018014eac0 f   GuPersistentContactManifold.obj
 0001:0014dd40       ?fromBuffer@MultiplePersistentContactManifold@Gu@physx@@QEAAXPEIAE@Z 000000018014ed40 f   GuPersistentContactManifold.obj
 0001:0014dea0       ?reduceBatchContacts2@PersistentContactManifold@Gu@physx@@QEAAXPEBVPersistentContact@23@I@Z 000000018014eea0 f   GuPersistentContactManifold.obj
 0001:0014e0a0       ?reduceBatchContacts@PersistentContactManifold@Gu@physx@@QEAAXPEBVPersistentContact@23@IM@Z 000000018014f0a0 f   GuPersistentContactManifold.obj
 0001:0014e560       ?reduceBatchContactsCapsule@SinglePersistentContactManifold@Gu@physx@@QEAA?AT__m128@@PEBVMeshPersistentContact@23@IAEAUPCMContactPatch@23@@Z 000000018014f560 f   GuPersistentContactManifold.obj
 0001:0014e7f0       ?reduceBatchContactsCluster@PersistentContactManifold@Gu@physx@@QEAAXPEBVPersistentContact@23@I@Z 000000018014f7f0 f   GuPersistentContactManifold.obj
 0001:0014ec80       ?reduceBatchContactsConvex@SinglePersistentContactManifold@Gu@physx@@QEAA?AT__m128@@PEBVMeshPersistentContact@23@IAEAUPCMContactPatch@23@@Z 000000018014fc80 f   GuPersistentContactManifold.obj
 0001:0014f270       ?reduceContacts@SinglePersistentContactManifold@Gu@physx@@SAIPEAVMeshPersistentContact@23@I@Z 0000000180150270 f   GuPersistentContactManifold.obj
 0001:0014f7f0       ?reduceContactsForPCM@PersistentContactManifold@Gu@physx@@QEAAIAEBT__m128@@00@Z 00000001801507f0 f   GuPersistentContactManifold.obj
 0001:0014fd90       ?refreshContactPoints@SinglePersistentContactManifold@Gu@physx@@QEAA?AT__m128@@AEBVPxMatTransformV@aos@3@AEBT4@1@Z 0000000180150d90 f   GuPersistentContactManifold.obj
 0001:0014fee0       ?replaceManifoldPoint@PersistentContactManifold@Gu@physx@@QEAA_NAEBT__m128@@000@Z 0000000180150ee0 f   GuPersistentContactManifold.obj
 0001:0014ffa0       ?toBuffer@MultiplePersistentContactManifold@Gu@physx@@QEBAXPEIAE@Z 0000000180150fa0 f   GuPersistentContactManifold.obj
 0001:00150080       ?contains@Gu@physx@@YA_NPEAT__m128@@IAEBT3@11@Z 0000000180151080 f   GuPCMContactGenUtil.obj
 0001:00150240       ?getPolygonIndex@Gu@physx@@YAHAEBUPolygonalData@12@PEBVSupportLocal@12@AEBT__m128@@AEAH@Z 0000000180151240 f   GuPCMContactGenUtil.obj
 0001:001504e0       ?getWitnessPolygonIndex@Gu@physx@@YAIAEBUPolygonalData@12@PEBVSupportLocal@12@AEBT__m128@@2M@Z 00000001801514e0 f   GuPCMContactGenUtil.obj
 0001:00150a30       ?sweepBoxBox@Gu@physx@@YA_NAEBVBox@12@0AEBV?$PxVec3T@M@2@MV?$PxFlags@W4Enum@PxHitFlag@physx@@G@2@AEAUPxGeomSweepHit@2@@Z 0000000180151a30 f   GuSweepBoxBox.obj
 0001:00152070       ?sweepBoxSphere@Gu@physx@@YA_NAEBVBox@12@MAEBV?$PxVec3T@M@2@1MAEAMAEAV42@V?$PxFlags@W4Enum@PxHitFlag@physx@@G@2@@Z 0000000180153070 f   GuSweepBoxSphere.obj
 0001:00152d20       ?sweepBoxTriangle@Gu@physx@@YA_NAEBVPxTriangle@2@AEBVPxBounds3@2@AEBV?$PxVec3T@M@2@2AEAV52@3AEAM_N@Z 0000000180153d20 f   GuSweepBoxTriangle_FeatureBased.obj
 0001:00154440       ?triBoxSweepTestBoxSpace@Gu@physx@@YAHAEBVPxTriangle@2@AEBV?$PxVec3T@M@2@11MAEAM_N@Z 0000000180155440 f   GuSweepBoxTriangle_SAT.obj
 0001:00155d60       ?sweepCapsuleBox@Gu@physx@@YA_NAEBVCapsule@12@AEBV?$PxTransformT@M@2@AEBV?$PxVec3T@M@2@2MAEAV52@AEAM3V?$PxFlags@W4Enum@PxHitFlag@physx@@G@2@@Z 0000000180156d60 f   GuSweepCapsuleBox.obj
 0001:001560b0       ?distancePointSegmentSquared@Gu@physx@@YAMAEBVSegment@12@AEBV?$PxVec3T@M@2@PEAM@Z 00000001801570b0 f i GuSweepCapsuleCapsule.obj
 0001:001561c0       ?edgeEdgeDist@@YAXAEAV?$PxVec3T@M@physx@@0AEBV12@111@Z 00000001801571c0 f   GuSweepCapsuleCapsule.obj
 0001:00156430       ?sweepCapsuleCapsule@Gu@physx@@YA_NAEBVCapsule@12@0AEBV?$PxVec3T@M@2@MAEAMAEAV42@3IAEAG@Z 0000000180157430 f   GuSweepCapsuleCapsule.obj
 0001:00157240       ?sweepCapsuleTriangles_Precise@Gu@physx@@YA_NIPEIBVPxTriangle@2@AEBVCapsule@12@AEBV?$PxVec3T@M@2@MPEIBIAEAUPxGeomSweepHit@2@AEAV52@V?$PxFlags@W4Enum@PxHitFlag@physx@@G@2@_NPEBVBoxPadded@12@@Z 0000000180158240 f   GuSweepCapsuleTriangle.obj
 0001:001593a0       ?sweepSphereCapsule@Gu@physx@@YA_NAEBVSphere@12@AEBVCapsule@12@AEBV?$PxVec3T@M@2@MAEAMAEAV52@4V?$PxFlags@W4Enum@PxHitFlag@physx@@G@2@@Z 000000018015a3a0 f   GuSweepSphereCapsule.obj
 0001:00159a40       ?sweepSphereSphere@Gu@physx@@YA_NAEBV?$PxVec3T@M@2@M0M0AEAMAEAV32@@Z 000000018015aa40 f   GuSweepSphereSphere.obj
 0001:00159cb0       ?sweepSphereTriangles@Gu@physx@@YA_NIPEIBVPxTriangle@2@AEBV?$PxVec3T@M@2@M1MPEIBIAEAUPxGeomSweepHit@2@AEAV42@_N555@Z 000000018015acb0 f   GuSweepSphereTriangle.obj
 0001:0015a580       ?sweepSphereVSQuad@Gu@physx@@YA_NPEIBV?$PxVec3T@M@2@AEBV32@1M1AEAM@Z 000000018015b580 f   GuSweepSphereTriangle.obj
 0001:0015b560       ?sweepSphereVSTri@Gu@physx@@YA_NPEIBV?$PxVec3T@M@2@AEBV32@1M1AEAMAEA_N_N@Z 000000018015c560 f   GuSweepSphereTriangle.obj
 0001:0015c270       ??$gjk@U?$LocalConvex@VTriangleV@Gu@physx@@@Gu@physx@@U?$LocalConvex@VBoxV@Gu@physx@@@23@@Gu@physx@@YA?AW4GjkStatus@01@AEBU?$LocalConvex@VTriangleV@Gu@physx@@@01@AEBU?$LocalConvex@VBoxV@Gu@physx@@@01@AEBT__m128@@2AEAT5@333@Z 000000018015d270 f i GuSweepTriangleUtils.obj
 0001:0015cf50       ?computeBoxTriImpactData@Gu@physx@@YAXAEAV?$PxVec3T@M@2@0AEBV32@1AEBVPxTriangle@2@M@Z 000000018015df50 f   GuSweepTriangleUtils.obj
 0001:0015d1d0       ?computeEdgeEdgeNormal@Gu@physx@@YAXAEAV?$PxVec3T@M@2@AEBV32@1111M@Z 000000018015e1d0 f   GuSweepTriangleUtils.obj
 0001:0015d480       ?computeSphereTriImpactData@Gu@physx@@YAXAEAV?$PxVec3T@M@2@0AEBV32@1MAEBVPxTriangle@2@@Z 000000018015e480 f   GuSweepTriangleUtils.obj
 0001:0015d960       ??0ShapeData@Gu@physx@@QEAA@AEBVPxGeometry@2@AEBV?$PxTransformT@M@2@M@Z 000000018015e960 f   GuBounds.obj
 0001:0015ded0       ?computeBounds@Gu@physx@@YAXAEAVPxBounds3@2@AEBVPxGeometry@2@AEBV?$PxTransformT@M@2@MM@Z 000000018015eed0 f   GuBounds.obj
 0001:0015ea60       ?computeBoundsAroundVertices@Gu@physx@@YAXAEAVPxBounds3@2@IPEIBV?$PxVec3T@M@2@@Z 000000018015fa60 f   GuBounds.obj
 0001:0015eaf0       ?computeGlobalBox@Gu@physx@@YAXAEAVPxBounds3@2@IPEIBV32@PEIBI@Z 000000018015faf0 f   GuBounds.obj
 0001:0015eb60       ?computeLocalBoundsAndGeomEpsilon@Gu@physx@@YAXPEBV?$PxVec3T@M@2@IAEAVPxBounds3@2@AEAM@Z 000000018015fb60 f   GuBounds.obj
 0001:0015fc90       ?computeTightBounds@Gu@physx@@YAXAEAVPxBounds3@2@IPEIBV?$PxVec3T@M@2@AEBV?$PxTransformT@M@2@AEBVPxMeshScale@2@MM@Z 0000000180160c90 f   GuBounds.obj
 0001:00160050       ??0AABBTree@Gu@physx@@QEAA@XZ 0000000180161050 f   GuAABBTree.obj
 0001:00160080       ??0BVHPartialRefitData@Gu@physx@@QEAA@XZ 0000000180161080 f   GuAABBTree.obj
 0001:001600b0       ??0NodeAllocator@Gu@physx@@QEAA@XZ 00000001801610b0 f   GuAABBTree.obj
 0001:001600d0       ??1AABBTree@Gu@physx@@QEAA@XZ 00000001801610d0 f   GuAABBTree.obj
 0001:001600f0       ??1BVHPartialRefitData@Gu@physx@@QEAA@XZ 00000001801610f0 f   GuAABBTree.obj
 0001:00160190       ??1NodeAllocator@Gu@physx@@QEAA@XZ 0000000180161190 f   GuAABBTree.obj
 0001:001601e0       ?_buildHierarchy@AABBTreeBuildNode@Gu@physx@@QEAAXAEBVAABBTreeBuildParams@23@AEAUBuildStats@23@AEAVNodeAllocator@23@QEAI@Z 00000001801611e0 f   GuAABBTree.obj
 0001:00160270       ?_buildHierarchySAH@AABBTreeBuildNode@Gu@physx@@QEAAXAEBVAABBTreeBuildParams@23@AEAUSAH_Buffers@23@AEAUBuildStats@23@AEAVNodeAllocator@23@QEAI@Z 0000000180161270 f   GuAABBTree.obj
 0001:00160320       ?addRuntimeChilds@AABBTree@Gu@physx@@AEAAXAEAIAEBVAABBTreeMergeData@23@@Z 0000000180161320 f   GuAABBTree.obj
 0001:00160420       ?build@AABBTree@Gu@physx@@QEAA_NAEBVAABBTreeBuildParams@23@AEAVNodeAllocator@23@@Z 0000000180161420 f   GuAABBTree.obj
 0001:00160640       ?buildAABBTree@Gu@physx@@YAPEAIAEBVAABBTreeBuildParams@12@AEAVNodeAllocator@12@AEAUBuildStats@12@@Z 0000000180161640 f   GuAABBTree.obj
 0001:001606e0       ?buildAABBTree@Gu@physx@@YAXIAEBVAABBTreeBounds@12@AEAV?$PxArray@UBVHNode@Gu@physx@@V?$PxReflectionAllocator@UBVHNode@Gu@physx@@@3@@2@@Z 00000001801616e0 f   GuAABBTree.obj
 0001:00160ab0       ?buildEnd@AABBTree@Gu@physx@@AEAAXAEBVAABBTreeBuildParams@23@AEAVNodeAllocator@23@AEBUBuildStats@23@@Z 0000000180161ab0 f   GuAABBTree.obj
 0001:00160cd0       ?createUpdateMap@BVHPartialRefitData@Gu@physx@@QEAAXI@Z 0000000180161cd0 f   GuAABBTree.obj
 0001:00160df0       ?flattenTree@Gu@physx@@YAXAEBVNodeAllocator@12@PEAUBVHNode@12@PEBI@Z 0000000180161df0 f   GuAABBTree.obj
 0001:00160fe0       ?fullRefit@BVHCoreData@Gu@physx@@QEAAXPEBVPxBounds3@3@@Z 0000000180161fe0 f   GuAABBTree.obj
 0001:001611a0       ?getBiNode@NodeAllocator@Gu@physx@@QEAAPEAVAABBTreeBuildNode@23@XZ 00000001801621a0 f   GuAABBTree.obj
 0001:001612d0       ?getParentIndices@BVHPartialRefitData@Gu@physx@@IEAAPEAIXZ 00000001801622d0 f   GuAABBTree.obj
 0001:00161360       ?growAndPushBack@?$PxArray@PEAVAABBTreeBuildNode@Gu@physx@@V?$PxReflectionAllocator@PEAVAABBTreeBuildNode@Gu@physx@@@3@@physx@@IEAAAEAPEAVAABBTreeBuildNode@Gu@2@AEBQEAV342@@Z 0000000180162360 f i GuAABBTree.obj
 0001:00161480       ?growAndPushBack@?$PxArray@USlab@NodeAllocator@Gu@physx@@V?$PxReflectionAllocator@USlab@NodeAllocator@Gu@physx@@@4@@physx@@IEAAAEAUSlab@NodeAllocator@Gu@2@AEBU3452@@Z 0000000180162480 f i GuAABBTree.obj
 0001:00161540       ?init@AABBTreeBounds@Gu@physx@@QEAAXIPEBVPxBounds3@3@@Z 0000000180162540 f   GuAABBTree.obj
 0001:00161600       ?init@NodeAllocator@Gu@physx@@QEAAXII@Z 0000000180162600 f   GuAABBTree.obj
 0001:00161940       ?initTree@AABBTree@Gu@physx@@QEAAXAEBVAABBTreeMergeData@23@@Z 0000000180162940 f   GuAABBTree.obj
 0001:00161a70       ?markNodeForRefit@BVHPartialRefitData@Gu@physx@@QEAAXI@Z 0000000180162a70 f   GuAABBTree.obj
 0001:00161b80       ?mergeRuntimeLeaf@AABBTree@Gu@physx@@AEAAXAEAUBVHNode@23@AEBVAABBTreeMergeData@23@I@Z 0000000180162b80 f   GuAABBTree.obj
 0001:00161dd0       ?mergeRuntimeNode@AABBTree@Gu@physx@@AEAAXAEAUBVHNode@23@AEBVAABBTreeMergeData@23@I@Z 0000000180162dd0 f   GuAABBTree.obj
 0001:001620f0       ?mergeTree@AABBTree@Gu@physx@@QEAAXAEBVAABBTreeMergeData@23@@Z 00000001801630f0 f   GuAABBTree.obj
 0001:00162380       ?progressiveBuild@AABBTree@Gu@physx@@QEAAIAEBVAABBTreeBuildParams@23@AEAVNodeAllocator@23@AEAUBuildStats@23@II@Z 0000000180163380 f   GuAABBTree.obj
 0001:00162630       ?refitMarkedNodes@BVHPartialRefitData@Gu@physx@@QEAAXPEBVPxBounds3@3@@Z 0000000180163630 f   GuAABBTree.obj
 0001:001627a0       ?release@AABBTree@Gu@physx@@QEAAX_N@Z 00000001801637a0 f   GuAABBTree.obj
 0001:00162890       ?release@AABBTreeBounds@Gu@physx@@QEAAXXZ 0000000180163890 f   GuAABBTree.obj
 0001:001628e0       ?release@NodeAllocator@Gu@physx@@QEAAXXZ 00000001801638e0 f   GuAABBTree.obj
 0001:00162990       ?releasePartialRefitData@BVHPartialRefitData@Gu@physx@@QEAAX_N@Z 0000000180163990 f   GuAABBTree.obj
 0001:00162a20       ?reshuffle@Gu@physx@@YAIIQEIAIPEIBV?$PxVec3T@M@2@MI@Z 0000000180163a20 f   GuAABBTree.obj
 0001:00162b60       ?resize@?$PxArray@USlab@NodeAllocator@Gu@physx@@V?$PxReflectionAllocator@USlab@NodeAllocator@Gu@physx@@@4@@physx@@QEAAXIAEBUSlab@NodeAllocator@Gu@2@@Z 0000000180163b60 f i GuAABBTree.obj
 0001:00162be0       ?resize@AABBTreeBounds@Gu@physx@@QEAAXII@Z 0000000180163be0 f   GuAABBTree.obj
 0001:00162c80       ?shiftIndices@AABBTree@Gu@physx@@QEAAXI@Z 0000000180163c80 f   GuAABBTree.obj
 0001:00162ca0       ?shiftOrigin@AABBTree@Gu@physx@@QEAAXAEBV?$PxVec3T@M@3@@Z 0000000180163ca0 f   GuAABBTree.obj
 0001:00162f30       ?subdivide@AABBTreeBuildNode@Gu@physx@@QEAAXAEBVAABBTreeBuildParams@23@AEAUBuildStats@23@AEAVNodeAllocator@23@QEAI@Z 0000000180163f30 f   GuAABBTree.obj
 0001:00163120       ?subdivideSAH@AABBTreeBuildNode@Gu@physx@@QEAAXAEBVAABBTreeBuildParams@23@AEAUSAH_Buffers@23@AEAUBuildStats@23@AEAVNodeAllocator@23@QEAI@Z 0000000180164120 f   GuAABBTree.obj
 0001:00163210       ?traverseRuntimeNode@AABBTree@Gu@physx@@AEAAXAEAUBVHNode@23@AEBVAABBTreeMergeData@23@I@Z 0000000180164210 f   GuAABBTree.obj
 0001:00163350       ?initMap@AABBTreeUpdateMap@Gu@physx@@QEAAXIAEBVAABBTree@23@@Z 0000000180164350 f   GuAABBTreeUpdateMap.obj
 0001:001634e0       ?invalidate@AABBTreeUpdateMap@Gu@physx@@QEAAXIIAEAVAABBTree@23@@Z 00000001801644e0 f   GuAABBTreeUpdateMap.obj
 0001:00163780       ?visualizeTree@@YAXAEAVPxRenderOutput@physx@@IPEBVAABBTree@Gu@2@@Z 0000000180164780 f   GuSqInternal.obj
 0001:001637f0       ?visualizeTree@@YAXAEAVPxRenderOutput@physx@@IPEBVBVH@Gu@2@@Z 00000001801647f0 f   GuSqInternal.obj
 0001:00163860       ?visualizeTree@@YAXAEAVPxRenderOutput@physx@@IPEBVIncrementalAABBTree@Gu@2@PEAVDebugVizCallback@2@@Z 0000000180164860 f   GuSqInternal.obj
 0001:001638e0       ??$PxSort@PEAXU?$PxLess@PEAX@physx@@V?$PxReflectionAllocator@UAABBTreeIndices@Gu@physx@@@2@@physx@@YAXPEAPEAXIAEBU?$PxLess@PEAX@0@AEBV?$PxReflectionAllocator@UAABBTreeIndices@Gu@physx@@@0@I@Z 00000001801648e0 f i GuIncrementalAABBTree.obj
 0001:00163d40       ??$PxSort@PEAXU?$PxLess@PEAX@physx@@V?$PxReflectionAllocator@UIncrementalAABBTreeNodePair@Gu@physx@@@2@@physx@@YAXPEAPEAXIAEBU?$PxLess@PEAX@0@AEBV?$PxReflectionAllocator@UIncrementalAABBTreeNodePair@Gu@physx@@@0@I@Z 0000000180164d40 f i GuIncrementalAABBTree.obj
 0001:001641a0       ??0IncrementalAABBTree@Gu@physx@@QEAA@XZ 00000001801651a0 f   GuIncrementalAABBTree.obj
 0001:00164220       ??1?$PxPoolBase@UAABBTreeIndices@Gu@physx@@V?$PxReflectionAllocator@UAABBTreeIndices@Gu@physx@@@3@@physx@@QEAA@XZ 0000000180165220 f i GuIncrementalAABBTree.obj
 0001:00164380       ??1?$PxPoolBase@UIncrementalAABBTreeNodePair@Gu@physx@@V?$PxReflectionAllocator@UIncrementalAABBTreeNodePair@Gu@physx@@@3@@physx@@QEAA@XZ 0000000180165380 f i GuIncrementalAABBTree.obj
 0001:001644e0       ??1IncrementalAABBTree@Gu@physx@@QEAA@XZ 00000001801654e0 f   GuIncrementalAABBTree.obj
 0001:00164520       ?allocate@?$PxArray@PEAXV?$PxReflectionAllocator@UAABBTreeIndices@Gu@physx@@@physx@@@physx@@IEAAPEAPEAXI@Z 0000000180165520 f i GuIncrementalAABBTree.obj
 0001:001645b0       ?allocate@?$PxArray@PEAXV?$PxReflectionAllocator@UIncrementalAABBTreeNodePair@Gu@physx@@@physx@@@physx@@IEAAPEAPEAXI@Z 00000001801655b0 f i GuIncrementalAABBTree.obj
 0001:00164640       ?allocate@?$PxPoolBase@UAABBTreeIndices@Gu@physx@@V?$PxReflectionAllocator@UAABBTreeIndices@Gu@physx@@@3@@physx@@QEAAPEAUAABBTreeIndices@Gu@2@XZ 0000000180165640 f i GuIncrementalAABBTree.obj
 0001:00164730       ?allocate@?$PxPoolBase@UIncrementalAABBTreeNodePair@Gu@physx@@V?$PxReflectionAllocator@UIncrementalAABBTreeNodePair@Gu@physx@@@3@@physx@@QEAAPEAUIncrementalAABBTreeNodePair@Gu@2@XZ 0000000180165730 f i GuIncrementalAABBTree.obj
 0001:00164820       ?build@IncrementalAABBTree@Gu@physx@@QEAA_NAEBVAABBTreeBuildParams@23@AEAV?$PxArray@PEAVIncrementalAABBTreeNode@Gu@physx@@V?$PxReflectionAllocator@PEAVIncrementalAABBTreeNode@Gu@physx@@@3@@3@@Z 0000000180165820 f   GuIncrementalAABBTree.obj
 0001:00164a00       ?clone@IncrementalAABBTree@Gu@physx@@AEAAXAEAV?$PxArray@PEAVIncrementalAABBTreeNode@Gu@physx@@V?$PxReflectionAllocator@PEAVIncrementalAABBTreeNode@Gu@physx@@@3@@3@PEBIPEAPEAVIncrementalAABBTreeNode@23@@Z 0000000180165a00 f   GuIncrementalAABBTree.obj
 0001:00164ef0       ?copy@IncrementalAABBTree@Gu@physx@@QEAAXAEBVBVH@23@AEAV?$PxArray@PEAVIncrementalAABBTreeNode@Gu@physx@@V?$PxReflectionAllocator@PEAVIncrementalAABBTreeNode@Gu@physx@@@3@@3@@Z 0000000180165ef0 f   GuIncrementalAABBTree.obj
 0001:00164fa0       ?copyNode@IncrementalAABBTree@Gu@physx@@AEAAXAEAVIncrementalAABBTreeNode@23@AEBUBVHNode@23@PEBU523@PEAV423@PEBIAEAV?$PxArray@PEAVIncrementalAABBTreeNode@Gu@physx@@V?$PxReflectionAllocator@PEAVIncrementalAABBTreeNode@Gu@physx@@@3@@3@@Z 0000000180165fa0 f   GuIncrementalAABBTree.obj
 0001:00165160       ?fixupTreeIndices@IncrementalAABBTree@Gu@physx@@QEAAXPEAVIncrementalAABBTreeNode@23@II@Z 0000000180166160 f   GuIncrementalAABBTree.obj
 0001:00165190       ?getTreeLeafDepth@IncrementalAABBTree@Gu@physx@@QEAAIPEAVIncrementalAABBTreeNode@23@@Z 0000000180166190 f   GuIncrementalAABBTree.obj
 0001:001651b0       ?growAndPushBack@?$PxArray@PEAVIncrementalAABBTreeNode@Gu@physx@@V?$PxReflectionAllocator@PEAVIncrementalAABBTreeNode@Gu@physx@@@3@@physx@@IEAAAEAPEAVIncrementalAABBTreeNode@Gu@2@AEBQEAV342@@Z 00000001801661b0 f i GuIncrementalAABBTree.obj
 0001:001652d0       ?growAndPushBack@?$PxArray@PEAXV?$PxReflectionAllocator@UAABBTreeIndices@Gu@physx@@@physx@@@physx@@IEAAAEAPEAXAEBQEAX@Z 00000001801662d0 f i GuIncrementalAABBTree.obj
 0001:00165390       ?growAndPushBack@?$PxArray@PEAXV?$PxReflectionAllocator@UIncrementalAABBTreeNodePair@Gu@physx@@@physx@@@physx@@IEAAAEAPEAXAEBQEAX@Z 0000000180166390 f i GuIncrementalAABBTree.obj
 0001:00165450       ?hierarchyCheck@IncrementalAABBTree@Gu@physx@@QEAAXIPEBVPxBounds3@3@@Z 0000000180166450 f   GuIncrementalAABBTree.obj
 0001:001655a0       ?hierarchyCheck@IncrementalAABBTree@Gu@physx@@QEAAXPEBVPxBounds3@3@@Z 00000001801665a0 f   GuIncrementalAABBTree.obj
 0001:00165710       ?insert@IncrementalAABBTree@Gu@physx@@QEAAPEAVIncrementalAABBTreeNode@23@IPEBVPxBounds3@3@AEAV?$PxArray@PEAVIncrementalAABBTreeNode@Gu@physx@@V?$PxReflectionAllocator@PEAVIncrementalAABBTreeNode@Gu@physx@@@3@@3@@Z 0000000180166710 f   GuIncrementalAABBTree.obj
 0001:00165df0       ?recreate@?$PxArray@PEAXV?$PxReflectionAllocator@UAABBTreeIndices@Gu@physx@@@physx@@@physx@@IEAAXI@Z 0000000180166df0 f i GuIncrementalAABBTree.obj
 0001:00165e90       ?recreate@?$PxArray@PEAXV?$PxReflectionAllocator@UIncrementalAABBTreeNodePair@Gu@physx@@@physx@@@physx@@IEAAXI@Z 0000000180166e90 f i GuIncrementalAABBTree.obj
 0001:00165f30       ?release@IncrementalAABBTree@Gu@physx@@QEAAXXZ 0000000180166f30 f   GuIncrementalAABBTree.obj
 0001:00165f60       ?releaseNode@IncrementalAABBTree@Gu@physx@@AEAAXPEAVIncrementalAABBTreeNode@23@@Z 0000000180166f60 f   GuIncrementalAABBTree.obj
 0001:00165ff0       ?remove@IncrementalAABBTree@Gu@physx@@QEAAPEAVIncrementalAABBTreeNode@23@PEAV423@IPEBVPxBounds3@3@@Z 0000000180166ff0 f   GuIncrementalAABBTree.obj
 0001:00166310       ?rotateTree@IncrementalAABBTree@Gu@physx@@AEAAXPEAVIncrementalAABBTreeNode@23@AEAV?$PxArray@PEAVIncrementalAABBTreeNode@Gu@physx@@V?$PxReflectionAllocator@PEAVIncrementalAABBTreeNode@Gu@physx@@@3@@3@IPEBVPxBounds3@3@_N@Z 0000000180167310 f   GuIncrementalAABBTree.obj
 0001:00166c70       ?shiftOrigin@IncrementalAABBTree@Gu@physx@@QEAAXAEBV?$PxVec3T@M@3@@Z 0000000180167c70 f   GuIncrementalAABBTree.obj
 0001:00166cd0       ?splitLeafNode@IncrementalAABBTree@Gu@physx@@AEAAPEAVIncrementalAABBTreeNode@23@PEAV423@IAEBT__m128@@1PEBVPxBounds3@3@@Z 0000000180167cd0 f   GuIncrementalAABBTree.obj
 0001:00166fc0       ?update@IncrementalAABBTree@Gu@physx@@QEAAPEAVIncrementalAABBTreeNode@23@PEAV423@IPEBVPxBounds3@3@AEAV?$PxArray@PEAVIncrementalAABBTreeNode@Gu@physx@@V?$PxReflectionAllocator@PEAVIncrementalAABBTreeNode@Gu@physx@@@3@@3@@Z 0000000180167fc0 f   GuIncrementalAABBTree.obj
 0001:00167080       ?updateFast@IncrementalAABBTree@Gu@physx@@QEAAPEAVIncrementalAABBTreeNode@23@PEAV423@IPEBVPxBounds3@3@AEAV?$PxArray@PEAVIncrementalAABBTreeNode@Gu@physx@@V?$PxReflectionAllocator@PEAVIncrementalAABBTreeNode@Gu@physx@@@3@@3@@Z 0000000180168080 f   GuIncrementalAABBTree.obj
 0001:001672a0       ??0SAH_Buffers@Gu@physx@@QEAA@I@Z 00000001801682a0 f   GuSAH.obj
 0001:001673a0       ??1SAH_Buffers@Gu@physx@@QEAA@XZ 00000001801683a0 f   GuSAH.obj
 0001:00167460       ?split@SAH_Buffers@Gu@physx@@QEAA_NAEAIIPEIBIPEIBVPxBounds3@3@PEIBV?$PxVec3T@M@3@@Z 0000000180168460 f   GuSAH.obj
 0001:00167b50       ??0BVH@Gu@physx@@QEAA@AEBUPxBVHInternalData@2@@Z 0000000180168b50 f   GuBVH.obj
 0001:00167c10       ??0BVH@Gu@physx@@QEAA@PEAVMeshFactory@12@@Z 0000000180168c10 f   GuBVH.obj
 0001:00167c80       ??0BVH@Gu@physx@@QEAA@PEAVMeshFactory@12@AEAVBVHData@12@@Z 0000000180168c80 f   GuBVH.obj
 0001:00167d30       ??1BVHData@Gu@physx@@QEAA@XZ 0000000180168d30 f i GuBVH.obj
 0001:0016b4f4       ??_EBVH@Gu@physx@@WBA@EAAPEAXI@Z 000000018016c4f4 f i GuBVH.obj
 0001:0016b500       ??_EBVH@Gu@physx@@UEAAPEAXI@Z 000000018016c500 f i GuBVH.obj
 0001:0016b500       ??_GBVH@Gu@physx@@UEAAPEAXI@Z 000000018016c500 f i GuBVH.obj
 0001:0016b590       ??_ERefCountable@Cm@physx@@UEAAPEAXI@Z 000000018016c590 f i GuBVH.obj
 0001:0016b590       ??_GRefCountable@Cm@physx@@UEAAPEAXI@Z 000000018016c590 f i GuBVH.obj
 0001:0016b7c0       ?allocate@?$PxArray@PEBUBVHNode@Gu@physx@@V?$PxInlineAllocator@$0IAA@V?$PxReflectionAllocator@PEBUBVHNode@Gu@physx@@@physx@@@3@@physx@@IEAAPEAPEBUBVHNode@Gu@2@I@Z 000000018016c7c0 f i GuBVH.obj
 0001:0016b880       ?build@BVHData@Gu@physx@@QEAA_NIPEBXIMIW4BVHBuildStrategy@23@@Z 000000018016c880 f   GuBVH.obj
 0001:0016bc80       ?cull@BVH@Gu@physx@@UEBA_NIPEBVPxPlane@3@AEAUOverlapCallback@PxBVH@3@V?$PxFlags@W4Enum@PxGeometryQueryFlag@physx@@I@3@@Z 000000018016cc80 f   GuBVH.obj
 0001:0016c5c0       ?getConcreteTypeName@PxBVH@physx@@UEBAPEBDXZ 000000018016d5c0 f i GuBVH.obj
 0001:0016c5d0       ?init@BVH@Gu@physx@@QEAA_NIPEAVAABBTreeBounds@23@PEBXIW4BVHBuildStrategy@23@IM@Z 000000018016d5d0 f   GuBVH.obj
 0001:0016c9e0       ?isKindOf@PxBVH@physx@@MEBA_NPEBD@Z 000000018016d9e0 f i GuBVH.obj
 0001:0016ca50       ?load@BVH@Gu@physx@@QEAA_NAEAVPxInputStream@3@@Z 000000018016da50 f   GuBVH.obj
 0001:0016cbe0       ?onRefCountZero@BVH@Gu@physx@@UEAAXXZ 000000018016dbe0 f   GuBVH.obj
 0001:0016ccc0       ?onRefCountZero@RefCountable@Cm@physx@@UEAAXXZ 000000018016dcc0 f i GuBVH.obj
 0001:0016cce0       ?overlap@BVH@Gu@physx@@QEBA_NAEBVShapeData@23@AEAUOverlapCallback@PxBVH@3@V?$PxFlags@W4Enum@PxGeometryQueryFlag@physx@@I@3@@Z 000000018016dce0 f   GuBVH.obj
 0001:0016d510       ?overlap@BVH@Gu@physx@@UEBA_NAEBVPxGeometry@3@AEBV?$PxTransformT@M@3@AEAUOverlapCallback@PxBVH@3@V?$PxFlags@W4Enum@PxGeometryQueryFlag@physx@@I@3@@Z 000000018016e510 f   GuBVH.obj
 0001:0016d570       ?partialRefit@BVH@Gu@physx@@UEAAXXZ 000000018016e570 f   GuBVH.obj
 0001:0016d580       ?raycast@BVH@Gu@physx@@UEBA_NAEBV?$PxVec3T@M@3@0MAEAURaycastCallback@PxBVH@3@V?$PxFlags@W4Enum@PxGeometryQueryFlag@physx@@I@3@@Z 000000018016e580 f   GuBVH.obj
 0001:0016d6b0       ?recreate@?$PxArray@PEBUBVHNode@Gu@physx@@V?$PxInlineAllocator@$0IAA@V?$PxReflectionAllocator@PEBUBVHNode@Gu@physx@@@physx@@@3@@physx@@IEAAXI@Z 000000018016e6b0 f i GuBVH.obj
 0001:0016d770       ?refit@BVH@Gu@physx@@UEAAXXZ 000000018016e770 f   GuBVH.obj
 0001:0016d780       ?release@BVH@Gu@physx@@UEAAXXZ 000000018016e780 f   GuBVH.obj
 0001:0016d7b0       ?resizeUninitialized@?$PxArray@PEBUBVHNode@Gu@physx@@V?$PxInlineAllocator@$0IAA@V?$PxReflectionAllocator@PEBUBVHNode@Gu@physx@@@physx@@@3@@physx@@QEAAXI@Z 000000018016e7b0 f i GuBVH.obj
 0001:0016d800       ?save@BVHData@Gu@physx@@QEBA_NAEAVPxOutputStream@3@_N@Z 000000018016e800 f   GuBVH.obj
 0001:0016d970       ?sweep@BVH@Gu@physx@@QEBA_NAEBVShapeData@23@AEBV?$PxVec3T@M@3@MAEAURaycastCallback@PxBVH@3@V?$PxFlags@W4Enum@PxGeometryQueryFlag@physx@@I@3@@Z 000000018016e970 f   GuBVH.obj
 0001:0016db60       ?sweep@BVH@Gu@physx@@UEBA_NAEBVPxGeometry@3@AEBV?$PxTransformT@M@3@AEBV?$PxVec3T@M@3@MAEAURaycastCallback@PxBVH@3@V?$PxFlags@W4Enum@PxGeometryQueryFlag@physx@@I@3@@Z 000000018016eb60 f   GuBVH.obj
 0001:0016dbe0       ?traverse@BVH@Gu@physx@@UEBA_NAEAUTraversalCallback@PxBVH@3@@Z 000000018016ebe0 f   GuBVH.obj
 0001:0016dd50       ?updateBounds@BVH@Gu@physx@@UEAA_NIAEBVPxBounds3@3@@Z 000000018016ed50 f   GuBVH.obj
 0001:0016de00       ?updateBoundsInternal@BVH@Gu@physx@@QEAA_NIAEBVPxBounds3@3@@Z 000000018016ee00 f   GuBVH.obj
 0001:0016deb0       PxFindOverlap              000000018016eeb0 f   GuBVH.obj
 0001:0016dfa0       PxGetBVHInternalData       000000018016efa0 f   GuBVH.obj
 0001:0016dfe0       ??0IncrementalAABBPrunerCore@Gu@physx@@QEAA@PEBVPruningPool@12@@Z 000000018016efe0 f   GuIncrementalAABBPrunerCore.obj
 0001:0016e0f0       ??1IncrementalAABBPrunerCore@Gu@physx@@QEAA@XZ 000000018016f0f0 f   GuIncrementalAABBPrunerCore.obj
 0001:0016e260       ??R?$AABBTreeOverlap@$00U?$OBBAABBTests@$00@Gu@physx@@VIncrementalAABBTree@23@VIncrementalAABBTreeNode@23@UOverlapCallbackAdapter@23@@Gu@physx@@QEAA_NAEBVAABBTreeBounds@12@AEBVIncrementalAABBTree@12@AEBU?$OBBAABBTests@$00@12@AEAUOverlapCallbackAdapter@12@@Z 000000018016f260 f i GuIncrementalAABBPrunerCore.obj
 0001:0016e800       ??R?$AABBTreeOverlap@$00UAABBAABBTest@Gu@physx@@VIncrementalAABBTree@23@VIncrementalAABBTreeNode@23@UOverlapCallbackAdapter@23@@Gu@physx@@QEAA_NAEBVAABBTreeBounds@12@AEBVIncrementalAABBTree@12@AEBUAABBAABBTest@12@AEAUOverlapCallbackAdapter@12@@Z 000000018016f800 f i GuIncrementalAABBPrunerCore.obj
 0001:0016ea60       ??R?$AABBTreeOverlap@$00UCapsuleAABBTest@Gu@physx@@VIncrementalAABBTree@23@VIncrementalAABBTreeNode@23@UOverlapCallbackAdapter@23@@Gu@physx@@QEAA_NAEBVAABBTreeBounds@12@AEBVIncrementalAABBTree@12@AEBUCapsuleAABBTest@12@AEAUOverlapCallbackAdapter@12@@Z 000000018016fa60 f i GuIncrementalAABBPrunerCore.obj
 0001:0016eda0       ??R?$AABBTreeRaycast@$00$00VIncrementalAABBTree@Gu@physx@@VIncrementalAABBTreeNode@23@URaycastCallbackAdapter@23@@Gu@physx@@QEAA_NAEBVAABBTreeBounds@12@AEBVIncrementalAABBTree@12@AEBV?$PxVec3T@M@2@2AEAM2AEAURaycastCallbackAdapter@12@@Z 000000018016fda0 f i GuIncrementalAABBPrunerCore.obj
 0001:0016f460       ??R?$AABBTreeRaycast@$0A@$00VIncrementalAABBTree@Gu@physx@@VIncrementalAABBTreeNode@23@URaycastCallbackAdapter@23@@Gu@physx@@QEAA_NAEBVAABBTreeBounds@12@AEBVIncrementalAABBTree@12@AEBV?$PxVec3T@M@2@2AEAM2AEAURaycastCallbackAdapter@12@@Z 0000000180170460 f i GuIncrementalAABBPrunerCore.obj
 0001:0016fa90       ?addObject@IncrementalAABBPrunerCore@Gu@physx@@QEAA_NII@Z 0000000180170a90 f   GuIncrementalAABBPrunerCore.obj
 0001:0016fb80       ?allocate@?$PxArray@PEBVIncrementalAABBTreeNode@Gu@physx@@V?$PxInlineAllocator@$0IAA@V?$PxReflectionAllocator@PEBVIncrementalAABBTreeNode@Gu@physx@@@physx@@@3@@physx@@IEAAPEAPEBVIncrementalAABBTreeNode@Gu@2@I@Z 0000000180170b80 f i GuIncrementalAABBPrunerCore.obj
 0001:0016fc40       ?clear@?$PxHashMapBase@IPEAVIncrementalAABBTreeNode@Gu@physx@@U?$PxHash@I@3@VPxAllocator@3@@physx@@QEAAXXZ 0000000180170c40 f i GuIncrementalAABBPrunerCore.obj
 0001:0016fc40       ?clear@?$PxHashMapBase@UPrunerPayload@Gu@physx@@UExtendedBucketPrunerData@23@UExtendedBucketPrunerHash@23@VPxAllocator@3@@physx@@QEAAXXZ 0000000180170c40 f i GuExtendedBucketPruner.obj
 0001:0016fcd0       ?create@?$PxHashBase@V?$PxPair@$$CBIPEAVIncrementalAABBTreeNode@Gu@physx@@@physx@@IU?$PxHash@I@2@UGetKey@?$PxHashMapBase@IPEAVIncrementalAABBTreeNode@Gu@physx@@U?$PxHash@I@3@VPxAllocator@3@@2@VPxAllocator@2@$00@physx@@QEAAPEAV?$PxPair@$$CBIPEAVIncrementalAABBTreeNode@Gu@physx@@@2@AEBIAEA_N@Z 0000000180170cd0 f i GuIncrementalAABBPrunerCore.obj
 0001:0016fe20       ?erase@?$PxHashBase@V?$PxPair@$$CBIPEAVIncrementalAABBTreeNode@Gu@physx@@@physx@@IU?$PxHash@I@2@UGetKey@?$PxHashMapBase@IPEAVIncrementalAABBTreeNode@Gu@physx@@U?$PxHash@I@3@VPxAllocator@3@@2@VPxAllocator@2@$00@physx@@QEAA_NAEBIAEAV?$PxPair@$$CBIPEAVIncrementalAABBTreeNode@Gu@physx@@@2@@Z 0000000180170e20 f i GuIncrementalAABBPrunerCore.obj
 0001:0016ff90       ?getCurrentWorldBoxes@PruningPool@Gu@physx@@QEAAPEAVPxBounds3@3@XZ 0000000180170f90 f i GuIncrementalAABBPrunerCore.obj
 0001:0016ff90       ?getCurrentWorldBoxes@PruningPool@Gu@physx@@QEBAPEBVPxBounds3@3@XZ 0000000180170f90 f i GuIncrementalAABBPrunerCore.obj
 0001:0016ff90       ?getMesh@CollisionTetrahedronMeshData@Gu@physx@@UEAAPEAVPxTetrahedronMeshData@3@XZ 0000000180170f90 f i GuCookingTetrahedronMesh.obj
 0001:0016ff90       ?getMesh@CollisionTetrahedronMeshData@Gu@physx@@UEBAPEBVPxTetrahedronMeshData@3@XZ 0000000180170f90 f i GuCookingTetrahedronMesh.obj
 0001:0016ff90       ?getMesh@SimulationTetrahedronMeshData@Gu@physx@@UEAAPEAVPxTetrahedronMeshData@3@XZ 0000000180170f90 f i GuCookingTetrahedronMesh.obj
 0001:0016ffa0       ?getGlobalBounds@IncrementalAABBPrunerCore@Gu@physx@@QEBAXAEAVPxBounds3@3@@Z 0000000180170fa0 f   GuIncrementalAABBPrunerCore.obj
 0001:001700d0       ?getIndex@PruningPool@Gu@physx@@QEBAII@Z 00000001801710d0 f i GuIncrementalAABBPrunerCore.obj
 0001:001700e0       ?getPayloadData@PruningPool@Gu@physx@@QEBAAEBUPrunerPayload@23@IPEAUPrunerPayloadData@23@@Z 00000001801710e0 f i GuIncrementalAABBPrunerCore.obj
 0001:00170130       ?overlap@IncrementalAABBPrunerCore@Gu@physx@@QEBA_NAEBVShapeData@23@AEAUPrunerOverlapCallback@23@@Z 0000000180171130 f   GuIncrementalAABBPrunerCore.obj
 0001:00170ca0       ?raycast@IncrementalAABBPrunerCore@Gu@physx@@QEBA_NAEBV?$PxVec3T@M@3@0AEAMAEAUPrunerRaycastCallback@23@@Z 0000000180171ca0 f   GuIncrementalAABBPrunerCore.obj
 0001:00170db0       ?recreate@?$PxArray@PEAVIncrementalAABBTreeNode@Gu@physx@@V?$PxReflectionAllocator@PEAVIncrementalAABBTreeNode@Gu@physx@@@3@@physx@@IEAAXI@Z 0000000180171db0 f i GuIncrementalAABBPrunerCore.obj
 0001:00170ea0       ?recreate@?$PxArray@PEBVIncrementalAABBTreeNode@Gu@physx@@V?$PxInlineAllocator@$0IAA@V?$PxReflectionAllocator@PEBVIncrementalAABBTreeNode@Gu@physx@@@physx@@@3@@physx@@IEAAXI@Z 0000000180171ea0 f i GuIncrementalAABBPrunerCore.obj
 0001:00170f60       ?release@IncrementalAABBPrunerCore@Gu@physx@@QEAAXXZ 0000000180171f60 f   GuIncrementalAABBPrunerCore.obj
 0001:00171060       ?removeMarkedObjects@IncrementalAABBPrunerCore@Gu@physx@@QEAAII@Z 0000000180172060 f   GuIncrementalAABBPrunerCore.obj
 0001:001710c0       ?removeObject@IncrementalAABBPrunerCore@Gu@physx@@QEAA_NIIAEAI@Z 00000001801720c0 f   GuIncrementalAABBPrunerCore.obj
 0001:001712d0       ?reserveInternal@?$PxHashBase@V?$PxPair@$$CBIPEAVIncrementalAABBTreeNode@Gu@physx@@@physx@@IU?$PxHash@I@2@UGetKey@?$PxHashMapBase@IPEAVIncrementalAABBTreeNode@Gu@physx@@U?$PxHash@I@3@VPxAllocator@3@@2@VPxAllocator@2@$00@physx@@AEAAXI@Z 00000001801722d0 f i GuIncrementalAABBPrunerCore.obj
 0001:00171490       ?resizeUninitialized@?$PxArray@PEBVIncrementalAABBTreeNode@Gu@physx@@V?$PxInlineAllocator@$0IAA@V?$PxReflectionAllocator@PEBVIncrementalAABBTreeNode@Gu@physx@@@physx@@@3@@physx@@QEAAXI@Z 0000000180172490 f i GuIncrementalAABBPrunerCore.obj
 0001:001714e0       ?setTransform@PruningPool@Gu@physx@@QEAA_NIAEBV?$PxTransformT@M@3@@Z 00000001801724e0 f i GuIncrementalAABBPrunerCore.obj
 0001:00171540       ?shiftOrigin@IncrementalAABBPrunerCore@Gu@physx@@QEAAXAEBV?$PxVec3T@M@3@@Z 0000000180172540 f   GuIncrementalAABBPrunerCore.obj
 0001:00171580       ?swapIndex@IncrementalAABBPrunerCore@Gu@physx@@QEAAXII@Z 0000000180172580 f   GuIncrementalAABBPrunerCore.obj
 0001:00171660       ?sweep@IncrementalAABBPrunerCore@Gu@physx@@QEBA_NAEBVShapeData@23@AEBV?$PxVec3T@M@3@AEAMAEAUPrunerRaycastCallback@23@@Z 0000000180172660 f   GuIncrementalAABBPrunerCore.obj
 0001:00171880       ?updateMapping@IncrementalAABBPrunerCore@Gu@physx@@AEAAXAEAV?$PxHashMap@IPEAVIncrementalAABBTreeNode@Gu@physx@@U?$PxHash@I@3@VPxAllocator@3@@3@IPEAVIncrementalAABBTreeNode@23@@Z 0000000180172880 f   GuIncrementalAABBPrunerCore.obj
 0001:001719d0       ?updateObject@IncrementalAABBPrunerCore@Gu@physx@@QEAA_NI@Z 00000001801729d0 f   GuIncrementalAABBPrunerCore.obj
 0001:00171b70       ?visualize@IncrementalAABBPrunerCore@Gu@physx@@QEBAXAEAVPxRenderOutput@3@I@Z 0000000180172b70 f   GuIncrementalAABBPrunerCore.obj
 0001:00171bd0       ??0IncrementalAABBPruner@Gu@physx@@QEAA@I_K@Z 0000000180172bd0 f   GuIncrementalAABBPruner.obj
 0001:00171c80       ??R?$AABBTreeOverlap@$00USphereAABBTest@Gu@physx@@VIncrementalAABBTree@23@VIncrementalAABBTreeNode@23@UOverlapCallbackAdapter@23@@Gu@physx@@QEAA_NAEBVAABBTreeBounds@12@AEBVIncrementalAABBTree@12@AEBUSphereAABBTest@12@AEAUOverlapCallbackAdapter@12@@Z 0000000180172c80 f i GuIncrementalAABBPruner.obj
 0001:00171f50       ??_EBasePruner@Gu@physx@@UEAAPEAXI@Z 0000000180172f50 f i GuIncrementalAABBPruner.obj
 0001:00171f50       ??_GBasePruner@Gu@physx@@UEAAPEAXI@Z 0000000180172f50 f i GuIncrementalAABBPruner.obj
 0001:00171fa0       ??_EIncrementalAABBPruner@Gu@physx@@UEAAPEAXI@Z 0000000180172fa0 f i GuIncrementalAABBPruner.obj
 0001:00171fa0       ??_GIncrementalAABBPruner@Gu@physx@@UEAAPEAXI@Z 0000000180172fa0 f i GuIncrementalAABBPruner.obj
 0001:001720b0       ?addObjects@IncrementalAABBPruner@Gu@physx@@UEAA_NPEAIPEBVPxBounds3@3@PEBUPrunerPayload@23@PEBV?$PxTransformT@M@3@I_N@Z 00000001801730b0 f   GuIncrementalAABBPruner.obj
 0001:00172250       ?commit@IncrementalAABBPruner@Gu@physx@@UEAAXXZ 0000000180173250 f   GuIncrementalAABBPruner.obj
 0001:001723a0       ?getGlobalBounds@IncrementalAABBPruner@Gu@physx@@UEBAXAEAVPxBounds3@3@@Z 00000001801733a0 f   GuIncrementalAABBPruner.obj
 0001:00172410       ?getPayloadData@IncrementalAABBPruner@Gu@physx@@UEBAAEBUPrunerPayload@23@IPEAUPrunerPayloadData@23@@Z 0000000180173410 f i GuIncrementalAABBPruner.obj
 0001:00172460       ?overlap@IncrementalAABBPruner@Gu@physx@@UEBA_NAEBVShapeData@23@AEAUPrunerOverlapCallback@23@@Z 0000000180173460 f   GuIncrementalAABBPruner.obj
 0001:00172b70       ?preallocate@IncrementalAABBPruner@Gu@physx@@UEAAXI@Z 0000000180173b70 f i GuIncrementalAABBPruner.obj
 0001:00172b80       ?purge@IncrementalAABBPruner@Gu@physx@@UEAAXXZ 0000000180173b80 f   GuIncrementalAABBPruner.obj
 0001:00172bd0       ?raycast@IncrementalAABBPruner@Gu@physx@@UEBA_NAEBV?$PxVec3T@M@3@0AEAMAEAUPrunerRaycastCallback@23@@Z 0000000180173bd0 f   GuIncrementalAABBPruner.obj
 0001:00172c50       ?removeObjects@IncrementalAABBPruner@Gu@physx@@UEAAXPEBIIPEAUPrunerPayloadRemovalCallback@23@@Z 0000000180173c50 f   GuIncrementalAABBPruner.obj
 0001:00172da0       ?resize@?$PxArray@PEAVIncrementalAABBTreeNode@Gu@physx@@V?$PxReflectionAllocator@PEAVIncrementalAABBTreeNode@Gu@physx@@@3@@physx@@QEAAXIAEBQEAVIncrementalAABBTreeNode@Gu@2@@Z 0000000180173da0 f i GuIncrementalAABBPruner.obj
 0001:00172e60       ?resizeUninitialized@?$PxArray@PEAVIncrementalAABBTreeNode@Gu@physx@@V?$PxReflectionAllocator@PEAVIncrementalAABBTreeNode@Gu@physx@@@3@@physx@@QEAAXI@Z 0000000180173e60 f i GuIncrementalAABBPruner.obj
 0001:00172ea0       ?setTransform@IncrementalAABBPruner@Gu@physx@@UEAA_NIAEBV?$PxTransformT@M@3@@Z 0000000180173ea0 f i GuIncrementalAABBPruner.obj
 0001:00172f00       ?shiftOrigin@IncrementalAABBPruner@Gu@physx@@UEAAXAEBV?$PxVec3T@M@3@@Z 0000000180173f00 f   GuIncrementalAABBPruner.obj
 0001:00172f40       ?sweep@IncrementalAABBPruner@Gu@physx@@UEBA_NAEBVShapeData@23@AEBV?$PxVec3T@M@3@AEAMAEAUPrunerRaycastCallback@23@@Z 0000000180173f40 f   GuIncrementalAABBPruner.obj
 0001:00173060       ?updateObjects@IncrementalAABBPruner@Gu@physx@@UEAAXPEBIIM0PEBVPxBounds3@3@PEBUPxTransformPadded@3@@Z 0000000180174060 f   GuIncrementalAABBPruner.obj
 0001:00173230       ?visualize@IncrementalAABBPruner@Gu@physx@@UEBAXAEAVPxRenderOutput@3@II@Z 0000000180174230 f   GuIncrementalAABBPruner.obj
 0001:00173420       ??0PruningPool@Gu@physx@@QEAA@_KW4TransformCacheMode@12@@Z 0000000180174420 f   GuPruningPool.obj
 0001:00173450       ??1PruningPool@Gu@physx@@QEAA@XZ 0000000180174450 f   GuPruningPool.obj
 0001:00173520       ?addObjects@PruningPool@Gu@physx@@QEAAIPEAIPEBVPxBounds3@3@PEBUPrunerPayload@23@PEBV?$PxTransformT@M@3@I@Z 0000000180174520 f   GuPruningPool.obj
 0001:001736c0       ?preallocate@PruningPool@Gu@physx@@QEAAXI@Z 00000001801746c0 f   GuPruningPool.obj
 0001:001736d0       ?removeObject@PruningPool@Gu@physx@@QEAAIIPEAUPrunerPayloadRemovalCallback@23@@Z 00000001801746d0 f   GuPruningPool.obj
 0001:00173810       ?resize@PruningPool@Gu@physx@@QEAA_NI@Z 0000000180174810 f   GuPruningPool.obj
 0001:00173af0       ?shiftOrigin@PruningPool@Gu@physx@@QEAAXAEBV?$PxVec3T@M@3@@Z 0000000180174af0 f   GuPruningPool.obj
 0001:00173ec0       ?updateAndInflateBounds@PruningPool@Gu@physx@@QEAAXPEBI0PEBVPxBounds3@3@PEBUPxTransformPadded@3@IM@Z 0000000180174ec0 f   GuPruningPool.obj
 0001:001758f0       ??0BucketPruner@Gu@physx@@QEAA@_K@Z 00000001801768f0 f   GuBucketPruner.obj
 0001:00175940       ??0BucketPrunerCore@Gu@physx@@QEAA@_N@Z 0000000180176940 f   GuBucketPruner.obj
 0001:00175cc0       ??1BucketPrunerCore@Gu@physx@@QEAA@XZ 0000000180176cc0 f   GuBucketPruner.obj
 0001:00175ce0       ??R?$BucketPrunerOverlapTraversal@UBucketPrunerAABBAABBTest@@$00@@QEBA_NAEBVBucketPrunerCore@Gu@physx@@AEBUBucketPrunerAABBAABBTest@@AEAUPrunerOverlapCallback@23@AEBVPxBounds3@3@@Z 0000000180176ce0 f i GuBucketPruner.obj
 0001:001762a0       ??R?$BucketPrunerOverlapTraversal@UOBBAABBTest_SIMD@@$0A@@@QEBA_NAEBVBucketPrunerCore@Gu@physx@@AEBUOBBAABBTest_SIMD@@AEAUPrunerOverlapCallback@23@AEBVPxBounds3@3@@Z 00000001801772a0 f i GuBucketPruner.obj
 0001:00176b20       ??R?$BucketPrunerOverlapTraversal@USphereAABBTest_SIMD@@$00@@QEBA_NAEBVBucketPrunerCore@Gu@physx@@AEBUSphereAABBTest_SIMD@@AEAUPrunerOverlapCallback@23@AEBVPxBounds3@3@@Z 0000000180177b20 f i GuBucketPruner.obj
 0001:00177100       ??_FBucketPrunerCore@Gu@physx@@QEAAXXZ 0000000180178100 f i GuBucketPruner.obj
 0001:00177110       ??_EBucketPruner@Gu@physx@@UEAAPEAXI@Z 0000000180178110 f i GuBucketPruner.obj
 0001:00177110       ??_GBucketPruner@Gu@physx@@UEAAPEAXI@Z 0000000180178110 f i GuBucketPruner.obj
 0001:001771b0       ?addObject@BucketPrunerCore@Gu@physx@@QEAA_NAEBUPrunerPayload@23@AEBVPxBounds3@3@AEBV?$PxTransformT@M@3@I@Z 00000001801781b0 f   GuBucketPruner.obj
 0001:001774c0       ?addObjects@BucketPruner@Gu@physx@@UEAA_NPEAIPEBVPxBounds3@3@PEBUPrunerPayload@23@PEBV?$PxTransformT@M@3@I_N@Z 00000001801784c0 f   GuBucketPruner.obj
 0001:00177550       ?addPair@BucketPrunerMap@Gu@physx@@QEAAPEAUBucketPrunerPair@23@AEBUPrunerPayload@23@II@Z 0000000180178550 f   GuBucketPruner.obj
 0001:00177750       ?allocateSortedMemory@BucketPrunerCore@Gu@physx@@AEAAXI@Z 0000000180178750 f   GuBucketPruner.obj
 0001:00177910       ?classifyBoxes@BucketPrunerCore@Gu@physx@@AEAAXXZ 0000000180178910 f   GuBucketPruner.obj
 0001:00178100       ?classifyBoxes@BucketPrunerNode@Gu@physx@@QEAAXMMIPEIAUBucketBox@23@PEIBUPrunerPayload@23@PEIBV?$PxTransformT@M@3@0PEIAU523@PEIAV63@_NI@Z 0000000180179100 f   GuBucketPruner.obj
 0001:00178980       ?build@CompanionPrunerBucket@@UEAAXXZ 0000000180179980 f   GuSecondaryPruner.obj
 0001:00178980       ?commit@BucketPruner@Gu@physx@@UEAAXXZ 0000000180179980 f   GuBucketPruner.obj
 0001:00178990       ?findPair@BucketPrunerMap@Gu@physx@@QEBAPEBUBucketPrunerPair@23@AEBUPrunerPayload@23@@Z 0000000180179990 f   GuBucketPruner.obj
 0001:00178d70       ?getGlobalBounds@BucketPruner@Gu@physx@@UEBAXAEAVPxBounds3@3@@Z 0000000180179d70 f   GuBucketPruner.obj
 0001:00178de0       ?getGlobalBounds@BucketPrunerCore@Gu@physx@@QEBAXAEAVPxBounds3@3@@Z 0000000180179de0 f   GuBucketPruner.obj
 0001:00178e50       ?getPayloadData@BucketPruner@Gu@physx@@UEBAAEBUPrunerPayload@23@IPEAUPrunerPayloadData@23@@Z 0000000180179e50 f i GuBucketPruner.obj
 0001:00178eb0       ?overlap@BucketPruner@Gu@physx@@UEBA_NAEBVShapeData@23@AEAUPrunerOverlapCallback@23@@Z 0000000180179eb0 f   GuBucketPruner.obj
 0001:00178ed0       ?overlap@BucketPrunerCore@Gu@physx@@QEBA_NAEBVShapeData@23@AEAUPrunerOverlapCallback@23@@Z 0000000180179ed0 f   GuBucketPruner.obj
 0001:001791b0       ?preallocate@BucketPruner@Gu@physx@@UEAAXI@Z 000000018017a1b0 f i GuBucketPruner.obj
 0001:00179390       ?purge@BucketPrunerMap@Gu@physx@@QEAAXXZ 000000018017a390 f   GuBucketPruner.obj
 0001:00179420       ?raycast@BucketPruner@Gu@physx@@UEBA_NAEBV?$PxVec3T@M@3@0AEAMAEAUPrunerRaycastCallback@23@@Z 000000018017a420 f   GuBucketPruner.obj
 0001:00179470       ?raycast@BucketPrunerCore@Gu@physx@@QEBA_NAEBV?$PxVec3T@M@3@0AEAMAEAUPrunerRaycastCallback@23@@Z 000000018017a470 f   GuBucketPruner.obj
 0001:001794b0       ?reallocPairs@BucketPrunerMap@Gu@physx@@QEAAXXZ 000000018017a4b0 f   GuBucketPruner.obj
 0001:001796f0       ?release@BucketPrunerCore@Gu@physx@@QEAAXXZ 000000018017a6f0 f   GuBucketPruner.obj
 0001:00179830       ?removeMarkedObjects@BucketPrunerCore@Gu@physx@@QEAAII@Z 000000018017a830 f   GuBucketPruner.obj
 0001:00179c00       ?removeObject@BucketPrunerCore@Gu@physx@@QEAA_NAEBUPrunerPayload@23@AEAI@Z 000000018017ac00 f   GuBucketPruner.obj
 0001:00179ec0       ?removeObjects@BucketPruner@Gu@physx@@UEAAXPEBIIPEAUPrunerPayloadRemovalCallback@23@@Z 000000018017aec0 f   GuBucketPruner.obj
 0001:00179f70       ?removePair@BucketPrunerMap@Gu@physx@@QEAA_NAEBUPrunerPayload@23@AEAI1@Z 000000018017af70 f   GuBucketPruner.obj
 0001:0017a0f0       ?removePairInternal@BucketPrunerMap@Gu@physx@@QEAAXAEBUPrunerPayload@23@II@Z 000000018017b0f0 f   GuBucketPruner.obj
 0001:0017a280       ?resizeCore@BucketPrunerCore@Gu@physx@@AEAAXXZ 000000018017b280 f   GuBucketPruner.obj
 0001:0017a4d0       ?setTransform@BucketPruner@Gu@physx@@UEAA_NIAEBV?$PxTransformT@M@3@@Z 000000018017b4d0 f i GuBucketPruner.obj
 0001:0017a530       ?shiftOrigin@BucketPruner@Gu@physx@@UEAAXAEBV?$PxVec3T@M@3@@Z 000000018017b530 f   GuBucketPruner.obj
 0001:0017a530       ?shiftOrigin@CompanionPrunerBucket@@UEAAXAEBV?$PxVec3T@M@physx@@@Z 000000018017b530 f   GuSecondaryPruner.obj
 0001:0017a540       ?shiftOrigin@BucketPrunerCore@Gu@physx@@QEAAXAEBV?$PxVec3T@M@3@@Z 000000018017b540 f   GuBucketPruner.obj
 0001:0017b370       ?sweep@BucketPruner@Gu@physx@@UEBA_NAEBVShapeData@23@AEBV?$PxVec3T@M@3@AEAMAEAUPrunerRaycastCallback@23@@Z 000000018017c370 f   GuBucketPruner.obj
 0001:0017b390       ?sweep@BucketPrunerCore@Gu@physx@@QEBA_NAEBVShapeData@23@AEBV?$PxVec3T@M@3@AEAMAEAUPrunerRaycastCallback@23@@Z 000000018017c390 f   GuBucketPruner.obj
 0001:0017b460       ?updateObject@BucketPrunerCore@Gu@physx@@QEAA_NAEBVPxBounds3@3@AEBUPrunerPayload@23@AEBV?$PxTransformT@M@3@@Z 000000018017c460 f   GuBucketPruner.obj
 0001:0017b4c0       ?updateObjects@BucketPruner@Gu@physx@@UEAAXPEBIIM0PEBVPxBounds3@3@PEBUPxTransformPadded@3@@Z 000000018017c4c0 f   GuBucketPruner.obj
 0001:0017b5d0       ?visualize@BucketPruner@Gu@physx@@UEBAXAEAVPxRenderOutput@3@II@Z 000000018017c5d0 f   GuBucketPruner.obj
 0001:0017b5d0       ?visualize@CompanionPrunerBucket@@UEBAXAEAVPxRenderOutput@physx@@I@Z 000000018017c5d0 f   GuSecondaryPruner.obj
 0001:0017b5e0       ?visualize@BucketPrunerCore@Gu@physx@@QEBAXAEAVPxRenderOutput@3@I@Z 000000018017c5e0 f   GuBucketPruner.obj
 0001:0017ba60       ?addObject@MaverickNode@Gu@physx@@QEAA_NAEBUPrunerPayload@23@IAEBVPxBounds3@3@AEBV?$PxTransformT@M@3@I@Z 000000018017ca60 f   GuMaverickNode.obj
 0001:0017bb40       ?removeMarkedObjects@MaverickNode@Gu@physx@@QEAAII@Z 000000018017cb40 f   GuMaverickNode.obj
 0001:0017bcd0       ?removeObject@MaverickNode@Gu@physx@@QEAA_NIAEAI@Z 000000018017ccd0 f   GuMaverickNode.obj
 0001:0017be60       ?shiftOrigin@MaverickNode@Gu@physx@@QEAAXAEBV?$PxVec3T@M@3@@Z 000000018017ce60 f   GuMaverickNode.obj
 0001:0017bf50       ?updateObject@MaverickNode@Gu@physx@@QEAA_NIAEBVPxBounds3@3@AEBV?$PxTransformT@M@3@@Z 000000018017cf50 f   GuMaverickNode.obj
 0001:0017c030       ??0ExtendedBucketPruner@Gu@physx@@QEAA@_KW4CompanionPrunerType@12@PEBVPruningPool@12@@Z 000000018017d030 f   GuExtendedBucketPruner.obj
 0001:0017c260       ??1ExtendedBucketPruner@Gu@physx@@QEAA@XZ 000000018017d260 f   GuExtendedBucketPruner.obj
 0001:0017c3d0       ??R?$AABBTreeOverlap@$00U?$OBBAABBTests@$00@Gu@physx@@VAABBTree@23@UBVHNode@23@U?$MainTreeOverlapPrunerCallback@U?$OBBAABBTests@$00@Gu@physx@@@@@Gu@physx@@QEAA_NAEBVAABBTreeBounds@12@AEBVAABBTree@12@AEBU?$OBBAABBTests@$00@12@AEAU?$MainTreeOverlapPrunerCallback@U?$OBBAABBTests@$00@Gu@physx@@@@@Z 000000018017d3d0 f i GuExtendedBucketPruner.obj
 0001:0017c9b0       ??R?$AABBTreeOverlap@$00U?$OBBAABBTests@$00@Gu@physx@@VAABBTree@23@UBVHNode@23@UOverlapCallbackAdapter@23@@Gu@physx@@QEAA_NAEBVAABBTreeBounds@12@AEBVAABBTree@12@AEBU?$OBBAABBTests@$00@12@AEAUOverlapCallbackAdapter@12@@Z 000000018017d9b0 f i GuExtendedBucketPruner.obj
 0001:0017cf60       ??R?$AABBTreeOverlap@$00UAABBAABBTest@Gu@physx@@VAABBTree@23@UBVHNode@23@U?$MainTreeOverlapPrunerCallback@UAABBAABBTest@Gu@physx@@@@@Gu@physx@@QEAA_NAEBVAABBTreeBounds@12@AEBVAABBTree@12@AEBUAABBAABBTest@12@AEAU?$MainTreeOverlapPrunerCallback@UAABBAABBTest@Gu@physx@@@@@Z 000000018017df60 f i GuExtendedBucketPruner.obj
 0001:0017d200       ??R?$AABBTreeOverlap@$00UAABBAABBTest@Gu@physx@@VAABBTree@23@UBVHNode@23@UOverlapCallbackAdapter@23@@Gu@physx@@QEAA_NAEBVAABBTreeBounds@12@AEBVAABBTree@12@AEBUAABBAABBTest@12@AEAUOverlapCallbackAdapter@12@@Z 000000018017e200 f i GuExtendedBucketPruner.obj
 0001:0017d490       ??R?$AABBTreeOverlap@$00UCapsuleAABBTest@Gu@physx@@VAABBTree@23@UBVHNode@23@U?$MainTreeOverlapPrunerCallback@UCapsuleAABBTest@Gu@physx@@@@@Gu@physx@@QEAA_NAEBVAABBTreeBounds@12@AEBVAABBTree@12@AEBUCapsuleAABBTest@12@AEAU?$MainTreeOverlapPrunerCallback@UCapsuleAABBTest@Gu@physx@@@@@Z 000000018017e490 f i GuExtendedBucketPruner.obj
 0001:0017d830       ??R?$AABBTreeOverlap@$00UCapsuleAABBTest@Gu@physx@@VAABBTree@23@UBVHNode@23@UOverlapCallbackAdapter@23@@Gu@physx@@QEAA_NAEBVAABBTreeBounds@12@AEBVAABBTree@12@AEBUCapsuleAABBTest@12@AEAUOverlapCallbackAdapter@12@@Z 000000018017e830 f i GuExtendedBucketPruner.obj
 0001:0017dbc0       ??R?$AABBTreeOverlap@$00USphereAABBTest@Gu@physx@@VAABBTree@23@UBVHNode@23@U?$MainTreeOverlapPrunerCallback@USphereAABBTest@Gu@physx@@@@@Gu@physx@@QEAA_NAEBVAABBTreeBounds@12@AEBVAABBTree@12@AEBUSphereAABBTest@12@AEAU?$MainTreeOverlapPrunerCallback@USphereAABBTest@Gu@physx@@@@@Z 000000018017ebc0 f i GuExtendedBucketPruner.obj
 0001:0017ded0       ??R?$AABBTreeOverlap@$00USphereAABBTest@Gu@physx@@VAABBTree@23@UBVHNode@23@UOverlapCallbackAdapter@23@@Gu@physx@@QEAA_NAEBVAABBTreeBounds@12@AEBVAABBTree@12@AEBUSphereAABBTest@12@AEAUOverlapCallbackAdapter@12@@Z 000000018017eed0 f i GuExtendedBucketPruner.obj
 0001:0017e1c0       ??R?$AABBTreeRaycast@$00$00VAABBTree@Gu@physx@@UBVHNode@23@U?$MainTreeRaycastPrunerCallback@$00@@@Gu@physx@@QEAA_NAEBVAABBTreeBounds@12@AEBVAABBTree@12@AEBV?$PxVec3T@M@2@2AEAM2AEAU?$MainTreeRaycastPrunerCallback@$00@@@Z 000000018017f1c0 f i GuExtendedBucketPruner.obj
 0001:0017e8e0       ??R?$AABBTreeRaycast@$00$00VAABBTree@Gu@physx@@UBVHNode@23@URaycastCallbackAdapter@23@@Gu@physx@@QEAA_NAEBVAABBTreeBounds@12@AEBVAABBTree@12@AEBV?$PxVec3T@M@2@2AEAM2AEAURaycastCallbackAdapter@12@@Z 000000018017f8e0 f i GuExtendedBucketPruner.obj
 0001:0017efc0       ??R?$AABBTreeRaycast@$0A@$00VAABBTree@Gu@physx@@UBVHNode@23@U?$MainTreeRaycastPrunerCallback@$0A@@@@Gu@physx@@QEAA_NAEBVAABBTreeBounds@12@AEBVAABBTree@12@AEBV?$PxVec3T@M@2@2AEAM2AEAU?$MainTreeRaycastPrunerCallback@$0A@@@@Z 000000018017ffc0 f i GuExtendedBucketPruner.obj
 0001:0017f670       ??R?$AABBTreeRaycast@$0A@$00VAABBTree@Gu@physx@@UBVHNode@23@URaycastCallbackAdapter@23@@Gu@physx@@QEAA_NAEBVAABBTreeBounds@12@AEBVAABBTree@12@AEBV?$PxVec3T@M@2@2AEAM2AEAURaycastCallbackAdapter@12@@Z 0000000180180670 f i GuExtendedBucketPruner.obj
 0001:0017fce0       ?addTree@ExtendedBucketPruner@Gu@physx@@QEAAXAEBVAABBTreeMergeData@23@I@Z 0000000180180ce0 f   GuExtendedBucketPruner.obj
 0001:0017ffc0       ?buildMainAABBTree@ExtendedBucketPruner@Gu@physx@@AEAAXXZ 0000000180180fc0 f   GuExtendedBucketPruner.obj
 0001:00180070       ?create@?$PxHashBase@V?$PxPair@$$CBUPrunerPayload@Gu@physx@@UExtendedBucketPrunerData@23@@physx@@UPrunerPayload@Gu@2@UExtendedBucketPrunerHash@42@UGetKey@?$PxHashMapBase@UPrunerPayload@Gu@physx@@UExtendedBucketPrunerData@23@UExtendedBucketPrunerHash@23@VPxAllocator@3@@2@VPxAllocator@2@$00@physx@@QEAAPEAV?$PxPair@$$CBUPrunerPayload@Gu@physx@@UExtendedBucketPrunerData@23@@2@AEBUPrunerPayload@Gu@2@AEA_N@Z 0000000180181070 f i GuExtendedBucketPruner.obj
 0001:00180240       ?eraseInternal@?$PxHashBase@V?$PxPair@$$CBUPrunerPayload@Gu@physx@@UExtendedBucketPrunerData@23@@physx@@UPrunerPayload@Gu@2@UExtendedBucketPrunerHash@42@UGetKey@?$PxHashMapBase@UPrunerPayload@Gu@physx@@UExtendedBucketPrunerData@23@UExtendedBucketPrunerHash@23@VPxAllocator@3@@2@VPxAllocator@2@$00@physx@@AEAA_NPEAI@Z 0000000180181240 f i GuExtendedBucketPruner.obj
 0001:00180360       ?find@?$PxHashMapBase@UPrunerPayload@Gu@physx@@UExtendedBucketPrunerData@23@UExtendedBucketPrunerHash@23@VPxAllocator@3@@physx@@QEBAPEBV?$PxPair@$$CBUPrunerPayload@Gu@physx@@UExtendedBucketPrunerData@23@@2@AEBUPrunerPayload@Gu@2@@Z 0000000180181360 f i GuExtendedBucketPruner.obj
 0001:00180450       ?getGlobalBounds@ExtendedBucketPruner@Gu@physx@@QEBAXAEAVPxBounds3@3@@Z 0000000180181450 f   GuExtendedBucketPruner.obj
 0001:00180520       ?invalidateObject@ExtendedBucketPruner@Gu@physx@@AEAAXAEBUExtendedBucketPrunerData@23@IAEBUPrunerPayload@23@I@Z 0000000180181520 f   GuExtendedBucketPruner.obj
 0001:00180660       ?overlap@ExtendedBucketPruner@Gu@physx@@QEBA_NAEBVShapeData@23@AEAUPrunerOverlapCallback@23@@Z 0000000180181660 f   GuExtendedBucketPruner.obj
 0001:00180e30       ?raycast@ExtendedBucketPruner@Gu@physx@@QEBA_NAEBV?$PxVec3T@M@3@0AEAMAEAUPrunerRaycastCallback@23@@Z 0000000180181e30 f   GuExtendedBucketPruner.obj
 0001:00180f10       ?refitMarkedNodes@ExtendedBucketPruner@Gu@physx@@QEAAXPEBVPxBounds3@3@@Z 0000000180181f10 f   GuExtendedBucketPruner.obj
 0001:00181490       ?release@ExtendedBucketPruner@Gu@physx@@QEAAXXZ 0000000180182490 f   GuExtendedBucketPruner.obj
 0001:00181560       ?removeMarkedObjects@ExtendedBucketPruner@Gu@physx@@QEAAII@Z 0000000180182560 f   GuExtendedBucketPruner.obj
 0001:00181880       ?removeObject@ExtendedBucketPruner@Gu@physx@@QEAA_NAEBUPrunerPayload@23@II0I@Z 0000000180182880 f   GuExtendedBucketPruner.obj
 0001:00181a70       ?reserveInternal@?$PxHashBase@V?$PxPair@$$CBUPrunerPayload@Gu@physx@@UExtendedBucketPrunerData@23@@physx@@UPrunerPayload@Gu@2@UExtendedBucketPrunerHash@42@UGetKey@?$PxHashMapBase@UPrunerPayload@Gu@physx@@UExtendedBucketPrunerData@23@UExtendedBucketPrunerHash@23@VPxAllocator@3@@2@VPxAllocator@2@$00@physx@@AEAAXI@Z 0000000180182a70 f i GuExtendedBucketPruner.obj
 0001:00181c70       ?shiftOrigin@ExtendedBucketPruner@Gu@physx@@QEAAXAEBV?$PxVec3T@M@3@@Z 0000000180182c70 f   GuExtendedBucketPruner.obj
 0001:00181cf0       ?swapIndex@ExtendedBucketPruner@Gu@physx@@QEAAXIAEBUPrunerPayload@23@I_N@Z 0000000180182cf0 f   GuExtendedBucketPruner.obj
 0001:00181dc0       ?sweep@ExtendedBucketPruner@Gu@physx@@QEBA_NAEBVShapeData@23@AEBV?$PxVec3T@M@3@AEAMAEAUPrunerRaycastCallback@23@@Z 0000000180182dc0 f   GuExtendedBucketPruner.obj
 0001:00181f50       ?updateObject@ExtendedBucketPruner@Gu@physx@@QEAA_NAEBVPxBounds3@3@AEBV?$PxTransformT@M@3@AEBUPrunerPayload@23@II@Z 0000000180182f50 f   GuExtendedBucketPruner.obj
 0001:00182020       ?visualize@ExtendedBucketPruner@Gu@physx@@QEBAXAEAVPxRenderOutput@3@I@Z 0000000180183020 f   GuExtendedBucketPruner.obj
 0001:001820b0       ??0?$OBBAABBTests@$00@Gu@physx@@QEAA@AEBV?$PxVec3T@M@2@AEBV?$PxMat33T@M@2@0@Z 00000001801830b0 f i GuSecondaryPruner.obj
 0001:00183fe0       ??_ECompanionPruner@Gu@physx@@UEAAPEAXI@Z 0000000180184fe0 f i GuSecondaryPruner.obj
 0001:00183fe0       ??_GCompanionPruner@Gu@physx@@UEAAPEAXI@Z 0000000180184fe0 f i GuSecondaryPruner.obj
 0001:00184030       ??_ECompanionPrunerAABBTree@@UEAAPEAXI@Z 0000000180185030 f i GuSecondaryPruner.obj
 0001:00184030       ??_GCompanionPrunerAABBTree@@UEAAPEAXI@Z 0000000180185030 f i GuSecondaryPruner.obj
 0001:001840e0       ??_ECompanionPrunerBucket@@UEAAPEAXI@Z 00000001801850e0 f i GuSecondaryPruner.obj
 0001:001840e0       ??_GCompanionPrunerBucket@@UEAAPEAXI@Z 00000001801850e0 f i GuSecondaryPruner.obj
 0001:00184160       ??_ECompanionPrunerIncremental@@UEAAPEAXI@Z 0000000180185160 f i GuSecondaryPruner.obj
 0001:00184160       ??_GCompanionPrunerIncremental@@UEAAPEAXI@Z 0000000180185160 f i GuSecondaryPruner.obj
 0001:001841e0       ?addObject@CompanionPrunerAABBTree@@UEAA_NAEBUPrunerPayload@Gu@physx@@IAEBVPxBounds3@4@AEBV?$PxTransformT@M@4@II@Z 00000001801851e0 f   GuSecondaryPruner.obj
 0001:00184420       ?addObject@CompanionPrunerBucket@@UEAA_NAEBUPrunerPayload@Gu@physx@@IAEBVPxBounds3@4@AEBV?$PxTransformT@M@4@II@Z 0000000180185420 f i GuSecondaryPruner.obj
 0001:00184440       ?addObject@CompanionPrunerIncremental@@UEAA_NAEBUPrunerPayload@Gu@physx@@IAEBVPxBounds3@4@AEBV?$PxTransformT@M@4@II@Z 0000000180185440 f i GuSecondaryPruner.obj
 0001:00184460       ?addObjectInternal@CompanionPrunerAABBTree@@QEAA_NII@Z 0000000180185460 f   GuSecondaryPruner.obj
 0001:00184600       ?build@CompanionPrunerAABBTree@@UEAAXXZ 0000000180185600 f   GuSecondaryPruner.obj
 0001:00184ad0       ?createCompanionPruner@Gu@physx@@YAPEAVCompanionPruner@12@_KW4CompanionPrunerType@12@PEBVPruningPool@12@@Z 0000000180185ad0 f   GuSecondaryPruner.obj
 0001:00184cd0       ?getGlobalBounds@CompanionPrunerAABBTree@@UEBAXAEAVPxBounds3@physx@@@Z 0000000180185cd0 f   GuSecondaryPruner.obj
 0001:00184dc0       ?getGlobalBounds@CompanionPrunerBucket@@UEBAXAEAVPxBounds3@physx@@@Z 0000000180185dc0 f i GuSecondaryPruner.obj
 0001:00184dd0       ?getGlobalBounds@CompanionPrunerIncremental@@UEBAXAEAVPxBounds3@physx@@@Z 0000000180185dd0 f i GuSecondaryPruner.obj
 0001:00184de0       ?getNbObjects@CompanionPrunerAABBTree@@UEBAIXZ 0000000180185de0 f   GuSecondaryPruner.obj
 0001:00184df0       ?getNbObjects@CompanionPrunerBucket@@UEBAIXZ 0000000180185df0 f i GuSecondaryPruner.obj
 0001:00184e00       ?getNbObjects@CompanionPrunerIncremental@@UEBAIXZ 0000000180185e00 f i GuSecondaryPruner.obj
 0001:00184e10       ?growAndPushBack@?$PxArray@ULocalData@CompanionPrunerAABBTree@@V?$PxReflectionAllocator@ULocalData@CompanionPrunerAABBTree@@@physx@@@physx@@IEAAAEAULocalData@CompanionPrunerAABBTree@@AEBU34@@Z 0000000180185e10 f i GuSecondaryPruner.obj
 0001:00184f30       ?overlap@CompanionPrunerAABBTree@@UEBA_NAEBVShapeData@Gu@physx@@AEAUPrunerOverlapCallback@34@@Z 0000000180185f30 f   GuSecondaryPruner.obj
 0001:00185eb0       ?overlap@CompanionPrunerBucket@@UEBA_NAEBVShapeData@Gu@physx@@AEAUPrunerOverlapCallback@34@@Z 0000000180186eb0 f i GuSecondaryPruner.obj
 0001:00185ed0       ?overlap@CompanionPrunerIncremental@@UEBA_NAEBVShapeData@Gu@physx@@AEAUPrunerOverlapCallback@34@@Z 0000000180186ed0 f i GuSecondaryPruner.obj
 0001:00185ef0       ?raycast@CompanionPrunerAABBTree@@UEBA_NAEBV?$PxVec3T@M@physx@@0AEAMAEAUPrunerRaycastCallback@Gu@3@@Z 0000000180186ef0 f   GuSecondaryPruner.obj
 0001:001862d0       ?raycast@CompanionPrunerBucket@@UEBA_NAEBV?$PxVec3T@M@physx@@0AEAMAEAUPrunerRaycastCallback@Gu@3@@Z 00000001801872d0 f i GuSecondaryPruner.obj
 0001:001862f0       ?raycast@CompanionPrunerIncremental@@UEBA_NAEBV?$PxVec3T@M@physx@@0AEAMAEAUPrunerRaycastCallback@Gu@3@@Z 00000001801872f0 f i GuSecondaryPruner.obj
 0001:00186310       ?release@CompanionPrunerAABBTree@@UEAAXXZ 0000000180187310 f   GuSecondaryPruner.obj
 0001:00186320       ?release@CompanionPrunerBucket@@UEAAXXZ 0000000180187320 f i GuSecondaryPruner.obj
 0001:00186330       ?release@CompanionPrunerIncremental@@UEAAXXZ 0000000180187330 f i GuSecondaryPruner.obj
 0001:00186340       ?releaseInternal@CompanionPrunerAABBTree@@QEAAXXZ 0000000180187340 f   GuSecondaryPruner.obj
 0001:001863c0       ?removeMarkedObjects@CompanionPrunerAABBTree@@UEAAII@Z 00000001801873c0 f   GuSecondaryPruner.obj
 0001:001863e0       ?removeMarkedObjects@CompanionPrunerBucket@@UEAAII@Z 00000001801873e0 f i GuSecondaryPruner.obj
 0001:001863f0       ?removeMarkedObjects@CompanionPrunerIncremental@@UEAAII@Z 00000001801873f0 f i GuSecondaryPruner.obj
 0001:00186400       ?removeObject@CompanionPrunerAABBTree@@UEAA_NAEBUPrunerPayload@Gu@physx@@III@Z 0000000180187400 f   GuSecondaryPruner.obj
 0001:001864a0       ?removeObject@CompanionPrunerBucket@@UEAA_NAEBUPrunerPayload@Gu@physx@@III@Z 00000001801874a0 f i GuSecondaryPruner.obj
 0001:001864c0       ?removeObject@CompanionPrunerIncremental@@UEAA_NAEBUPrunerPayload@Gu@physx@@III@Z 00000001801874c0 f i GuSecondaryPruner.obj
 0001:001864e0       ?shiftOrigin@CompanionPrunerAABBTree@@UEAAXAEBV?$PxVec3T@M@physx@@@Z 00000001801874e0 f   GuSecondaryPruner.obj
 0001:00186610       ?shiftOrigin@CompanionPrunerIncremental@@UEAAXAEBV?$PxVec3T@M@physx@@@Z 0000000180187610 f i GuSecondaryPruner.obj
 0001:00186620       ?swapIndex@CompanionPrunerIncremental@@UEAAXII@Z 0000000180187620 f i GuSecondaryPruner.obj
 0001:00186630       ?sweep@CompanionPrunerAABBTree@@UEBA_NAEBVShapeData@Gu@physx@@AEBV?$PxVec3T@M@4@AEAMAEAUPrunerRaycastCallback@34@@Z 0000000180187630 f   GuSecondaryPruner.obj
 0001:00186b60       ?sweep@CompanionPrunerBucket@@UEBA_NAEBVShapeData@Gu@physx@@AEBV?$PxVec3T@M@4@AEAMAEAUPrunerRaycastCallback@34@@Z 0000000180187b60 f i GuSecondaryPruner.obj
 0001:00186b80       ?sweep@CompanionPrunerIncremental@@UEBA_NAEBVShapeData@Gu@physx@@AEBV?$PxVec3T@M@4@AEAMAEAUPrunerRaycastCallback@34@@Z 0000000180187b80 f i GuSecondaryPruner.obj
 0001:00186ba0       ?timeStampChange@CompanionPrunerIncremental@@UEAAXXZ 0000000180187ba0 f i GuSecondaryPruner.obj
 0001:00186bc0       ?updateObject@CompanionPrunerAABBTree@@UEAA_NAEBUPrunerPayload@Gu@physx@@IAEBVPxBounds3@4@AEBV?$PxTransformT@M@4@I@Z 0000000180187bc0 f   GuSecondaryPruner.obj
 0001:00186c40       ?updateObject@CompanionPrunerBucket@@UEAA_NAEBUPrunerPayload@Gu@physx@@IAEBVPxBounds3@4@AEBV?$PxTransformT@M@4@I@Z 0000000180187c40 f i GuSecondaryPruner.obj
 0001:00186c60       ?updateObject@CompanionPrunerIncremental@@UEAA_NAEBUPrunerPayload@Gu@physx@@IAEBVPxBounds3@4@AEBV?$PxTransformT@M@4@I@Z 0000000180187c60 f i GuSecondaryPruner.obj
 0001:00186c70       ?visualize@CompanionPrunerAABBTree@@UEBAXAEAVPxRenderOutput@physx@@I@Z 0000000180187c70 f   GuSecondaryPruner.obj
 0001:00186c90       ?visualize@CompanionPrunerIncremental@@UEBAXAEAVPxRenderOutput@physx@@I@Z 0000000180187c90 f i GuSecondaryPruner.obj
 0001:00186ca0       ??0AABBPruner@Gu@physx@@QEAA@_N_KW4CompanionPrunerType@12@W4BVHBuildStrategy@12@I@Z 0000000180187ca0 f   GuAABBPruner.obj
 0001:00186dd0       ??1AABBPruner@Gu@physx@@UEAA@XZ 0000000180187dd0 f   GuAABBPruner.obj
 0001:00186f30       ??_EAABBPruner@Gu@physx@@UEAAPEAXI@Z 0000000180187f30 f i GuAABBPruner.obj
 0001:00186f30       ??_GAABBPruner@Gu@physx@@UEAAPEAXI@Z 0000000180187f30 f i GuAABBPruner.obj
 0001:00186fa0       ?addObjects@AABBPruner@Gu@physx@@UEAA_NPEAIPEBVPxBounds3@3@PEBUPrunerPayload@23@PEBV?$PxTransformT@M@3@I_N@Z 0000000180187fa0 f   GuAABBPruner.obj
 0001:00187100       ?buildStep@AABBPruner@Gu@physx@@UEAA_N_N@Z 0000000180188100 f   GuAABBPruner.obj
 0001:00187330       ?commit@AABBPruner@Gu@physx@@UEAAXXZ 0000000180188330 f   GuAABBPruner.obj
 0001:001876f0       ?getGlobalBounds@AABBPruner@Gu@physx@@UEBAXAEAVPxBounds3@3@@Z 00000001801886f0 f   GuAABBPruner.obj
 0001:00187830       ?getPayloadData@AABBPruner@Gu@physx@@UEBAAEBUPrunerPayload@23@IPEAUPrunerPayloadData@23@@Z 0000000180188830 f i GuAABBPruner.obj
 0001:00187890       ?growAndPushBack@?$PxArray@UNewTreeFixup@AABBPruner@Gu@physx@@V?$PxReflectionAllocator@UNewTreeFixup@AABBPruner@Gu@physx@@@4@@physx@@IEAAAEAUNewTreeFixup@AABBPruner@Gu@2@AEBU3452@@Z 0000000180188890 f i GuAABBPruner.obj
 0001:001879b0       ?isDynamic@AABBPruner@Gu@physx@@UEBA_NXZ 00000001801889b0 f i GuAABBPruner.obj
 0001:001879c0       ?merge@AABBPruner@Gu@physx@@UEAAXPEBX@Z 00000001801889c0 f   GuAABBPruner.obj
 0001:00187a40       ?overlap@AABBPruner@Gu@physx@@UEBA_NAEBVShapeData@23@AEAUPrunerOverlapCallback@23@@Z 0000000180188a40 f   GuAABBPruner.obj
 0001:00188010       ?preallocate@AABBPruner@Gu@physx@@UEAAXI@Z 0000000180189010 f i GuAABBPruner.obj
 0001:00188020       ?prepareBuild@AABBPruner@Gu@physx@@UEAA_NXZ 0000000180189020 f   GuAABBPruner.obj
 0001:001881b0       ?purge@AABBPruner@Gu@physx@@UEAAXXZ 00000001801891b0 f   GuAABBPruner.obj
 0001:001881d0       ?raycast@AABBPruner@Gu@physx@@UEBA_NAEBV?$PxVec3T@M@3@0AEAMAEAUPrunerRaycastCallback@23@@Z 00000001801891d0 f   GuAABBPruner.obj
 0001:001882c0       ?release@AABBPruner@Gu@physx@@QEAAXXZ 00000001801892c0 f   GuAABBPruner.obj
 0001:001883f0       ?removeObjects@AABBPruner@Gu@physx@@UEAAXPEBIIPEAUPrunerPayloadRemovalCallback@23@@Z 00000001801893f0 f   GuAABBPruner.obj
 0001:001885e0       ?setRebuildRateHint@AABBPruner@Gu@physx@@UEAAXI@Z 00000001801895e0 f   GuAABBPruner.obj
 0001:00188600       ?setTransform@AABBPruner@Gu@physx@@UEAA_NIAEBV?$PxTransformT@M@3@@Z 0000000180189600 f i GuAABBPruner.obj
 0001:00188660       ?shiftOrigin@AABBPruner@Gu@physx@@UEAAXAEBV?$PxVec3T@M@3@@Z 0000000180189660 f   GuAABBPruner.obj
 0001:001886d0       ?sweep@AABBPruner@Gu@physx@@UEBA_NAEBVShapeData@23@AEBV?$PxVec3T@M@3@AEAMAEAUPrunerRaycastCallback@23@@Z 00000001801896d0 f   GuAABBPruner.obj
 0001:00188860       ?updateObjects@AABBPruner@Gu@physx@@UEAAXPEBIIM0PEBVPxBounds3@3@PEBUPxTransformPadded@3@@Z 0000000180189860 f   GuAABBPruner.obj
 0001:00188a00       ?visualize@AABBPruner@Gu@physx@@UEBAXAEAVPxRenderOutput@3@II@Z 0000000180189a00 f   GuAABBPruner.obj
 0001:00188ab0       ??0ActorShapeMap@Gu@physx@@QEAA@XZ 0000000180189ab0 f   GuActorShapeMap.obj
 0001:00188b10       ??1ActorShapeMap@Gu@physx@@QEAA@XZ 0000000180189b10 f   GuActorShapeMap.obj
 0001:00188b70       ?add@ActorShapeMap@Gu@physx@@QEAA_NIPEBX0_K@Z 0000000180189b70 f   GuActorShapeMap.obj
 0001:00188d10       ?create@?$PxHashBase@V?$PxPair@$$CBUActorShape@ActorShapeMap@Gu@physx@@_K@physx@@UActorShape@ActorShapeMap@Gu@2@U?$PxHash@UActorShape@ActorShapeMap@Gu@physx@@@2@UGetKey@?$PxHashMapBase@UActorShape@ActorShapeMap@Gu@physx@@_KU?$PxHash@UActorShape@ActorShapeMap@Gu@physx@@@4@VPxAllocator@4@@2@VPxAllocator@2@$00@physx@@QEAAPEAV?$PxPair@$$CBUActorShape@ActorShapeMap@Gu@physx@@_K@2@AEBUActorShape@ActorShapeMap@Gu@2@AEA_N@Z 0000000180189d10 f i GuActorShapeMap.obj
 0001:00188f00       ?eraseInternal@?$PxHashBase@V?$PxPair@$$CBUActorShape@ActorShapeMap@Gu@physx@@_K@physx@@UActorShape@ActorShapeMap@Gu@2@U?$PxHash@UActorShape@ActorShapeMap@Gu@physx@@@2@UGetKey@?$PxHashMapBase@UActorShape@ActorShapeMap@Gu@physx@@_KU?$PxHash@UActorShape@ActorShapeMap@Gu@physx@@@4@VPxAllocator@4@@2@VPxAllocator@2@$00@physx@@AEAA_NPEAI@Z 0000000180189f00 f i GuActorShapeMap.obj
 0001:00189010       ?find@ActorShapeMap@Gu@physx@@QEBA_KIPEBX0@Z 000000018018a010 f   GuActorShapeMap.obj
 0001:00189100       ?remove@ActorShapeMap@Gu@physx@@QEAA_NIPEBX0PEA_K@Z 000000018018a100 f   GuActorShapeMap.obj
 0001:00189250       ?reserveInternal@?$PxHashBase@V?$PxPair@$$CBUActorShape@ActorShapeMap@Gu@physx@@_K@physx@@UActorShape@ActorShapeMap@Gu@2@U?$PxHash@UActorShape@ActorShapeMap@Gu@physx@@@2@UGetKey@?$PxHashMapBase@UActorShape@ActorShapeMap@Gu@physx@@_KU?$PxHash@UActorShape@ActorShapeMap@Gu@physx@@@4@VPxAllocator@4@@2@VPxAllocator@2@$00@physx@@AEAAXI@Z 000000018018a250 f i GuActorShapeMap.obj
 0001:00189460       ??0QuerySystem@Gu@physx@@QEAA@_KMAEBVAdapter@12@_N@Z 000000018018a460 f   GuQuerySystem.obj
 0001:00189530       ??1QuerySystem@Gu@physx@@QEAA@XZ 000000018018a530 f   GuQuerySystem.obj
 0001:00189780       ??_GPrunerExt@QuerySystem@Gu@physx@@QEAAPEAXI@Z 000000018018a780 f i GuQuerySystem.obj
 0001:00189890       ?addPruner@QuerySystem@Gu@physx@@QEAAIPEAVPruner@23@I@Z 000000018018a890 f   GuQuerySystem.obj
 0001:001899b0       ?addPrunerShape@QuerySystem@Gu@physx@@QEAA_KAEBUPrunerPayload@23@I_NAEBV?$PxTransformT@M@3@PEBVPxBounds3@3@@Z 000000018018a9b0 f   GuQuerySystem.obj
 0001:00189af0       ?addToDirtyList@PrunerExt@QuerySystem@Gu@physx@@QEAAXIIAEBV?$PxTransformT@M@4@PEBVPxBounds3@4@@Z 000000018018aaf0 f   GuQuerySystem.obj
 0001:00189d40       ?commitUpdates@QuerySystem@Gu@physx@@QEAAXXZ 000000018018ad40 f   GuQuerySystem.obj
 0001:00189df0       ?createTreeOfPruners@QuerySystem@Gu@physx@@QEAAXXZ 000000018018adf0 f   GuQuerySystem.obj
 0001:00189f50       ?flushMemory@QuerySystem@Gu@physx@@QEAAXXZ 000000018018af50 f   GuQuerySystem.obj
 0001:00189fe0       ?getPayloadData@QuerySystem@Gu@physx@@QEBAAEBUPrunerPayload@23@_KPEAUPrunerPayloadData@23@@Z 000000018018afe0 f   GuQuerySystem.obj
 0001:0018a000       ?growAndPushBack@?$PxArray@PEAUPrunerExt@QuerySystem@Gu@physx@@V?$PxReflectionAllocator@PEAUPrunerExt@QuerySystem@Gu@physx@@@4@@physx@@IEAAAEAPEAUPrunerExt@QuerySystem@Gu@2@AEBQEAU3452@@Z 000000018018b000 f i GuQuerySystem.obj
 0001:0018a120       ?overlap@QuerySystem@Gu@physx@@QEBAXAEBVShapeData@23@AEAUPrunerOverlapCallback@23@PEBVPrunerFilter@23@@Z 000000018018b120 f   GuQuerySystem.obj
 0001:0018a220       ?processDirtyLists@QuerySystem@Gu@physx@@AEAAXXZ 000000018018b220 f   GuQuerySystem.obj
 0001:0018a500       ?raycast@QuerySystem@Gu@physx@@QEBAXAEBV?$PxVec3T@M@3@0AEAMAEAUPrunerRaycastCallback@23@PEBVPrunerFilter@23@@Z 000000018018b500 f   GuQuerySystem.obj
 0001:0018a640       ?recreate@?$PxArray@UData@PrunerExt@QuerySystem@Gu@physx@@V?$PxReflectionAllocator@UData@PrunerExt@QuerySystem@Gu@physx@@@5@@physx@@IEAAXI@Z 000000018018b640 f i GuQuerySystem.obj
 0001:0018a930       ?removePruner@QuerySystem@Gu@physx@@QEAAXI@Z 000000018018b930 f   GuQuerySystem.obj
 0001:0018aa10       ?removePrunerShape@QuerySystem@Gu@physx@@QEAAX_KPEAUPrunerPayloadRemovalCallback@23@@Z 000000018018ba10 f   GuQuerySystem.obj
 0001:0018ac40       ?sweep@QuerySystem@Gu@physx@@QEBAXAEBVShapeData@23@AEBV?$PxVec3T@M@3@AEAMAEAUPrunerRaycastCallback@23@PEBVPrunerFilter@23@@Z 000000018018bc40 f   GuQuerySystem.obj
 0001:0018ad70       ?sync@QuerySystem@Gu@physx@@QEAAXIPEBI0PEBVPxBounds3@3@PEBUPxTransformPadded@3@I@Z 000000018018bd70 f   GuQuerySystem.obj
 0001:0018ae20       ?update@QuerySystem@Gu@physx@@QEAAX_N0@Z 000000018018be20 f   GuQuerySystem.obj
 0001:0018aef0       ?updatePrunerShape@QuerySystem@Gu@physx@@QEAAX_K_NAEBV?$PxTransformT@M@3@PEBVPxBounds3@3@@Z 000000018018bef0 f   GuQuerySystem.obj
 0001:0018b0e0       createAABBPruner           000000018018c0e0 f   GuFactory.obj
 0001:0018b1a0       createBucketPruner         000000018018c1a0 f   GuFactory.obj
 0001:0018b230       createIncrementalPruner    000000018018c230 f   GuFactory.obj
 0001:0018b2c0       ??$PxSmallSort@I$$CBUSortBoundsPredicate@physx@@@physx@@YAXPEAIHHAEBUSortBoundsPredicate@0@@Z 000000018018c2c0 f i GuRTreeCooking.obj
 0001:0018b560       ??$PxSort@IU?$PxLess@I@physx@@V?$PxReflectionAllocator@I@2@@physx@@YAXPEAIIAEBU?$PxLess@I@0@AEBV?$PxReflectionAllocator@I@0@I@Z 000000018018c560 f i GuRTreeCooking.obj
 0001:0018b9b0       ??$PxSort@IUSortBoundsPredicate@physx@@V?$PxReflectionAllocator@I@2@@physx@@YAXPEAIIAEBUSortBoundsPredicate@0@AEBV?$PxReflectionAllocator@I@0@I@Z 000000018018c9b0 f i GuRTreeCooking.obj
 0001:0018be60       ??$quickSelectFirstK@UBoundsLTE@physx@@@quickSelect@physx@@YAXPEIAIIIIAEBUBoundsLTE@1@@Z 000000018018ce60 f i GuRTreeCooking.obj
 0001:0018c040       ?allocate@?$PxArray@UInterval@physx@@V?$PxInlineAllocator@$0CAAA@V?$PxReflectionAllocator@UInterval@physx@@@physx@@@2@@physx@@IEAAPEAUInterval@2@I@Z 000000018018d040 f i GuRTreeCooking.obj
 0001:0018c100       ?allocate@?$PxArray@UPxBounds3V@physx@@V?$PxReflectionAllocator@UPxBounds3V@physx@@@2@@physx@@IEAAPEAUPxBounds3V@2@I@Z 000000018018d100 f i GuRTreeCooking.obj
 0001:0018c190       ?allocate@?$PxArray@URTreeNodeNQ@physx@@V?$PxReflectionAllocator@URTreeNodeNQ@physx@@@2@@physx@@IEAAPEAURTreeNodeNQ@2@I@Z 000000018018d190 f i GuRTreeCooking.obj
 0001:0018c220       ?allocate@?$PxArray@URTreeNodeQ@Gu@physx@@V?$PxReflectionAllocator@URTreeNodeQ@Gu@physx@@@3@@physx@@IEAAPEAURTreeNodeQ@Gu@2@I@Z 000000018018d220 f i GuRTreeCooking.obj
 0001:0018cf40       ?buildFromTriangles@RTreeCooker@physx@@SAXAEAURTree@Gu@2@PEBV?$PxVec3T@M@2@IPEBGPEBIIAEAV?$PxArray@IV?$PxReflectionAllocator@I@physx@@@2@PEAURemapCallback@12@MW4Enum@PxMeshCookingHint@2@@Z 000000018018df40 f   GuRTreeCooking.obj
 0001:0018d200       ?copy@?$PxArray@URTreeNodeNQ@physx@@V?$PxReflectionAllocator@URTreeNodeNQ@physx@@@2@@physx@@KAXPEAURTreeNodeNQ@2@0PEBU32@@Z 000000018018e200 f i GuRTreeCooking.obj
 0001:0018d3c0       ?growAndPushBack@?$PxArray@UInterval@physx@@V?$PxInlineAllocator@$0CAAA@V?$PxReflectionAllocator@UInterval@physx@@@physx@@@2@@physx@@IEAAAEAUInterval@2@AEBU32@@Z 000000018018e3c0 f i GuRTreeCooking.obj
 0001:0018d4a0       ?growAndPushBack@?$PxArray@UPxBounds3V@physx@@V?$PxReflectionAllocator@UPxBounds3V@physx@@@2@@physx@@IEAAAEAUPxBounds3V@2@AEBU32@@Z 000000018018e4a0 f i GuRTreeCooking.obj
 0001:0018d580       ?growAndPushBack@?$PxArray@URTreeNodeNQ@physx@@V?$PxReflectionAllocator@URTreeNodeNQ@physx@@@2@@physx@@IEAAAEAURTreeNodeNQ@2@AEBU32@@Z 000000018018e580 f i GuRTreeCooking.obj
 0001:0018d660       ?growAndPushBack@?$PxArray@URTreeNodeQ@Gu@physx@@V?$PxReflectionAllocator@URTreeNodeQ@Gu@physx@@@3@@physx@@IEAAAEAURTreeNodeQ@Gu@2@AEBU342@@Z 000000018018e660 f i GuRTreeCooking.obj
 0001:0018d750       ?recreate@?$PxArray@UPxBounds3V@physx@@V?$PxReflectionAllocator@UPxBounds3V@physx@@@2@@physx@@IEAAXI@Z 000000018018e750 f i GuRTreeCooking.obj
 0001:0018d800       ?recreate@?$PxArray@URTreeNodeNQ@physx@@V?$PxReflectionAllocator@URTreeNodeNQ@physx@@@2@@physx@@IEAAXI@Z 000000018018e800 f i GuRTreeCooking.obj
 0001:0018d890       ?recreate@?$PxArray@URTreeNodeQ@Gu@physx@@V?$PxReflectionAllocator@URTreeNodeQ@Gu@physx@@@3@@physx@@IEAAXI@Z 000000018018e890 f i GuRTreeCooking.obj
 0001:0018d950       ?resizeUninitialized@?$PxArray@URTreeNodeNQ@physx@@V?$PxReflectionAllocator@URTreeNodeNQ@physx@@@2@@physx@@QEAAXI@Z 000000018018e950 f i GuRTreeCooking.obj
 0001:0018d990       ?sort4@SubSortQuick@physx@@QEAAXPEIAIIAEAV?$PxArray@URTreeNodeNQ@physx@@V?$PxReflectionAllocator@URTreeNodeNQ@physx@@@2@@2@AEAIAEAUPxBounds3V@2@I@Z 000000018018e990 f i GuRTreeCooking.obj
 0001:0018dd20       ?sort4@SubSortSAH@physx@@QEAAXPEAIIAEAV?$PxArray@URTreeNodeNQ@physx@@V?$PxReflectionAllocator@URTreeNodeNQ@physx@@@2@@2@AEAIIPEAURTreeNodeNQ@2@@Z 000000018018ed20 f i GuRTreeCooking.obj
 0001:0018e5f0       ?split@SubSortSAH@physx@@QEAAIPEAII@Z 000000018018f5f0 f i GuRTreeCooking.obj
 0001:0018f040       cookBVH                    0000000180190040 f   GuCookingBVH.obj
 0001:0018f1d0       createBVH                  00000001801901d0 f   GuCookingBVH.obj
 0001:0018f360       cookHeightField            0000000180190360 f   GuCookingHF.obj
 0001:0018f470       createHeightField          0000000180190470 f   GuCookingHF.obj
 0001:0018fb00       ?isFinite@?$PxVec3T@M@physx@@QEBA_NXZ 0000000180190b00 f i GuCookingConvexMesh.obj
 0001:0018fb60       computeHullPolygons        0000000180190b60 f   GuCookingConvexMesh.obj
 0001:0018fd40       cookConvexMesh             0000000180190d40 f   GuCookingConvexMesh.obj
 0001:0018feb0       createConvexMesh           0000000180190eb0 f   GuCookingConvexMesh.obj
 0001:00190050       validateConvexMesh         0000000180191050 f   GuCookingConvexMesh.obj
 0001:00190170       ??1BV4TriangleMeshBuilder@physx@@UEAA@XZ 0000000180191170 f   GuCookingTriangleMesh.obj
 0001:00190200       ??1RTreeTriangleMeshBuilder@physx@@UEAA@XZ 0000000180191200 f   GuCookingTriangleMesh.obj
 0001:00190270       ??_EBV4TriangleMeshBuilder@physx@@UEAAPEAXI@Z 0000000180191270 f i GuCookingTriangleMesh.obj
 0001:00190270       ??_GBV4TriangleMeshBuilder@physx@@UEAAPEAXI@Z 0000000180191270 f i GuCookingTriangleMesh.obj
 0001:001902b0       ??_ERTreeTriangleMeshBuilder@physx@@UEAAPEAXI@Z 00000001801912b0 f i GuCookingTriangleMesh.obj
 0001:001902b0       ??_GRTreeTriangleMeshBuilder@physx@@UEAAPEAXI@Z 00000001801912b0 f i GuCookingTriangleMesh.obj
 0001:001902f0       ??_ETriangleMeshBuilder@physx@@UEAAPEAXI@Z 00000001801912f0 f i GuCookingTriangleMesh.obj
 0001:001902f0       ??_GTriangleMeshBuilder@physx@@UEAAPEAXI@Z 00000001801912f0 f i GuCookingTriangleMesh.obj
 0001:00190ca0       ?buildInertiaTensor@TriangleMeshBuilder@physx@@IEAAX_N@Z 0000000180191ca0 f   GuCookingTriangleMesh.obj
 0001:00190e00       ?buildInertiaTensorFromSDF@TriangleMeshBuilder@physx@@IEAAXXZ 0000000180191e00 f   GuCookingTriangleMesh.obj
 0001:00191040       ?cleanMesh@TriangleMeshBuilder@physx@@QEAA_N_NPEAW4Enum@PxTriangleMeshCookingResult@2@@Z 0000000180192040 f   GuCookingTriangleMesh.obj
 0001:00191530       ?createGRBMidPhaseAndData@TriangleMeshBuilder@physx@@QEAA_NI@Z 0000000180192530 f   GuCookingTriangleMesh.obj
 0001:001916e0       ?createMidPhaseStructure@BV32TriangleMeshBuilder@physx@@SA_NAEBUPxCookingParams@2@AEAVTriangleMeshData@Gu@2@AEAVBV32Tree@52@@Z 00000001801926e0 f   GuCookingTriangleMesh.obj
 0001:00191930       ?createMidPhaseStructure@BV4TriangleMeshBuilder@physx@@UEAA_NXZ 0000000180192930 f   GuCookingTriangleMesh.obj
 0001:00191bf0       ?createMidPhaseStructure@RTreeTriangleMeshBuilder@physx@@UEAA_NXZ 0000000180192bf0 f   GuCookingTriangleMesh.obj
 0001:00191ce0       ?createSharedEdgeData@TriangleMeshBuilder@physx@@QEAAX_N0@Z 0000000180192ce0 f   GuCookingTriangleMesh.obj
 0001:00192390       ?createVertMapping@TriangleMeshBuilder@physx@@QEAAXXZ 0000000180193390 f   GuCookingTriangleMesh.obj
 0001:001926f0       ?importMesh@TriangleMeshBuilder@physx@@IEAA_NAEBVPxTriangleMeshDesc@2@PEAW4Enum@PxTriangleMeshCookingResult@2@_N@Z 00000001801936f0 f   GuCookingTriangleMesh.obj
 0001:00192bb0       ?isValid@PxTriangleMeshDesc@physx@@QEBA_NXZ 0000000180193bb0 f i GuCookingTriangleMesh.obj
 0001:00192c80       ?loadFromDescInternal@TriangleMeshBuilder@physx@@IEAA_NAEAVPxTriangleMeshDesc@2@PEAW4Enum@PxTriangleMeshCookingResult@2@_N@Z 0000000180193c80 f   GuCookingTriangleMesh.obj
 0001:00192ea0       ?onMeshIndexFormatChange@BV4TriangleMeshBuilder@physx@@UEAAXXZ 0000000180193ea0 f   GuCookingTriangleMesh.obj
 0001:00192ee0       ?remap@RTreeCookerRemap@@UEAAXPEAIII@Z 0000000180193ee0 f i GuCookingTriangleMesh.obj
 0001:00192f00       ?remapTopology@TriangleMeshBuilder@physx@@QEAAXPEBI@Z 0000000180193f00 f   GuCookingTriangleMesh.obj
 0001:001931a0       ?save@TriangleMeshBuilder@physx@@QEBA_NAEAVPxOutputStream@2@_NAEBUPxCookingParams@2@@Z 00000001801941a0 f   GuCookingTriangleMesh.obj
 0001:00193950       ?saveMidPhaseStructure@BV32TriangleMeshBuilder@physx@@SAXPEAVBV32Tree@Gu@2@AEAVPxOutputStream@2@_N@Z 0000000180194950 f   GuCookingTriangleMesh.obj
 0001:00193b50       ?saveMidPhaseStructure@BV4TriangleMeshBuilder@physx@@UEBAXAEAVPxOutputStream@2@_N@Z 0000000180194b50 f   GuCookingTriangleMesh.obj
 0001:00193d00       ?saveMidPhaseStructure@RTreeTriangleMeshBuilder@physx@@UEBAXAEAVPxOutputStream@2@_N@Z 0000000180194d00 f   GuCookingTriangleMesh.obj
 0001:00193f40       cookTriangleMesh           0000000180194f40 f   GuCookingTriangleMesh.obj
 0001:00194250       createTriangleMesh         0000000180195250 f   GuCookingTriangleMesh.obj
 0001:00194470       validateTriangleMesh       0000000180195470 f   GuCookingTriangleMesh.obj
 0001:00194730       ??0SoftBodyCollisionData@Gu@physx@@QEAA@XZ 0000000180195730 f i GuCookingTetrahedronMesh.obj
 0001:00194790       ??_ECollisionTetrahedronMeshData@Gu@physx@@UEAAPEAXI@Z 0000000180195790 f i GuCookingTetrahedronMesh.obj
 0001:00194790       ??_GCollisionTetrahedronMeshData@Gu@physx@@UEAAPEAXI@Z 0000000180195790 f i GuCookingTetrahedronMesh.obj
 0001:00194860       ??_EPxCollisionTetrahedronMeshData@physx@@UEAAPEAXI@Z 0000000180195860 f i GuCookingTetrahedronMesh.obj
 0001:00194860       ??_GPxCollisionTetrahedronMeshData@physx@@UEAAPEAXI@Z 0000000180195860 f i GuCookingTetrahedronMesh.obj
 0001:001948b0       ??_EPxSimulationTetrahedronMeshData@physx@@UEAAPEAXI@Z 00000001801958b0 f i GuCookingTetrahedronMesh.obj
 0001:001948b0       ??_GPxSimulationTetrahedronMeshData@physx@@UEAAPEAXI@Z 00000001801958b0 f i GuCookingTetrahedronMesh.obj
 0001:00194900       ??_ESimulationTetrahedronMeshData@Gu@physx@@UEAAPEAXI@Z 0000000180195900 f i GuCookingTetrahedronMesh.obj
 0001:00194900       ??_GSimulationTetrahedronMeshData@Gu@physx@@UEAAPEAXI@Z 0000000180195900 f i GuCookingTetrahedronMesh.obj
 0001:001949d0       ?combineGridModelPartitions@@YAXAEBVTetrahedronMeshData@Gu@physx@@AEAVSoftBodySimulationData@23@PEAPEAI@Z 00000001801959d0 f   GuCookingTetrahedronMesh.obj
 0001:00195220       ?combineGridModelPartitionsHexMesh@@YAXAEBVTetrahedronMeshData@Gu@physx@@AEAVSoftBodySimulationData@23@PEAPEAII@Z 0000000180196220 f   GuCookingTetrahedronMesh.obj
 0001:00195c60       ?computeCollisionData@TetrahedronMeshBuilder@physx@@SA_NAEBVPxTetrahedronMeshDesc@2@AEAVTetrahedronMeshData@Gu@2@AEAVSoftBodyCollisionData@52@AEBUPxCookingParams@2@_N@Z 0000000180196c60 f   GuCookingTetrahedronMesh.obj
 0001:00195ea0       ?computeGridModelTetrahedronPartitions@@YAPEAIAEBVTetrahedronMeshData@Gu@physx@@AEAVSoftBodySimulationData@23@@Z 0000000180196ea0 f   GuCookingTetrahedronMesh.obj
 0001:00196340       ?computeModelsMapping@TetrahedronMeshBuilder@physx@@SAXAEAVTetrahedronMeshData@Gu@2@AEBV342@AEBVSoftBodyCollisionData@42@AEAVCollisionMeshMappingData@42@_NPEBUPxBoundedData@2@@Z 0000000180197340 f   GuCookingTetrahedronMesh.obj
 0001:00196f50       ?computeRestPoseAndPointMass@@YAXPEAU?$TetrahedronT@I@Gu@physx@@IPEBV?$PxVec3T@M@3@PEAMPEAV?$PxMat33T@M@3@@Z 0000000180197f50 f   GuCookingTetrahedronMesh.obj
 0001:00197480       ?computeSimData@TetrahedronMeshBuilder@physx@@SAXAEBVPxTetrahedronMeshDesc@2@AEAVTetrahedronMeshData@Gu@2@AEAVSoftBodySimulationData@52@AEBUPxCookingParams@2@@Z 0000000180198480 f   GuCookingTetrahedronMesh.obj
 0001:00197b50       ?computeTetData@TetrahedronMeshBuilder@physx@@SAXAEBVPxTetrahedronMeshDesc@2@AEAVTetrahedronMeshData@Gu@2@@Z 0000000180198b50 f   GuCookingTetrahedronMesh.obj
 0001:00197c40       ?computeTetrahedronPartition@@YAIPEBU?$TetrahedronT@I@Gu@physx@@IPEAII@Z 0000000180198c40 f   GuCookingTetrahedronMesh.obj
 0001:00197d30       ?createCollisionModelMapping@TetrahedronMeshBuilder@physx@@SAXAEBVTetrahedronMeshData@Gu@2@AEBVSoftBodyCollisionData@42@AEAVCollisionMeshMappingData@42@@Z 0000000180198d30 f   GuCookingTetrahedronMesh.obj
 0001:00198310       ?createGRBMidPhaseAndData@TetrahedronMeshBuilder@physx@@SA_NIAEAVTetrahedronMeshData@Gu@2@AEAVSoftBodyCollisionData@42@AEBUPxCookingParams@2@@Z 0000000180199310 f   GuCookingTetrahedronMesh.obj
 0001:00199070       ?createMidPhaseStructure@BV32TetrahedronMeshBuilder@physx@@SA_NAEBUPxCookingParams@2@AEAVTetrahedronMeshData@Gu@2@AEAVBV32Tree@52@AEAVSoftBodyCollisionData@52@@Z 000000018019a070 f   GuCookingTetrahedronMesh.obj
 0001:00199340       ?createMidPhaseStructure@TetrahedronMeshBuilder@physx@@SA_NAEAVTetrahedronMeshData@Gu@2@AEAVSoftBodyCollisionData@42@AEBUPxCookingParams@2@@Z 000000018019a340 f   GuCookingTetrahedronMesh.obj
 0001:0019a010       ?getData@CollisionTetrahedronMeshData@Gu@physx@@UEAAPEAVPxSoftBodyCollisionData@3@XZ 000000018019b010 f i GuCookingTetrahedronMesh.obj
 0001:0019a010       ?getData@CollisionTetrahedronMeshData@Gu@physx@@UEBAPEBVPxSoftBodyCollisionData@3@XZ 000000018019b010 f i GuCookingTetrahedronMesh.obj
 0001:0019a010       ?getData@SimulationTetrahedronMeshData@Gu@physx@@UEAAPEAVPxSoftBodySimulationData@3@XZ 000000018019b010 f i GuCookingTetrahedronMesh.obj
 0001:0019a030       ?importMesh@TetrahedronMeshBuilder@physx@@SA_NAEBVPxTetrahedronMeshDesc@2@AEBUPxCookingParams@2@AEAVTetrahedronMeshData@Gu@2@AEAVSoftBodyCollisionData@62@_N@Z 000000018019b030 f   GuCookingTetrahedronMesh.obj
 0001:0019a330       ?isValid@PxTetrahedronMeshDesc@physx@@QEBA_NXZ 000000018019b330 f i GuCookingTetrahedronMesh.obj
 0001:0019a3b0       ?loadFromDesc@TetrahedronMeshBuilder@physx@@SA_NAEBVPxTetrahedronMeshDesc@2@0VPxSoftBodySimulationDataDesc@2@AEAVTetrahedronMeshData@Gu@2@AEAVSoftBodySimulationData@62@2AEAVSoftBodyCollisionData@62@AEAVCollisionMeshMappingData@62@AEBUPxCookingParams@2@_N@Z 000000018019b3b0 f   GuCookingTetrahedronMesh.obj
 0001:0019a520       ?release@CollisionTetrahedronMeshData@Gu@physx@@UEAAXXZ 000000018019b520 f i GuCookingTetrahedronMesh.obj
 0001:0019a540       ?reserveInternal@?$PxHashBase@V?$PxPair@$$CBVSortedTriangleInds@@I@physx@@VSortedTriangleInds@@USortedTriangleIndsHash@@UGetKey@?$PxHashMapBase@VSortedTriangleInds@@IUSortedTriangleIndsHash@@VPxAllocator@physx@@@2@VPxAllocator@2@$00@physx@@AEAAXI@Z 000000018019b540 f i GuCookingTetrahedronMesh.obj
 0001:0019a780       ?saveSoftBodyMeshData@TetrahedronMeshBuilder@physx@@SA_NAEAVPxOutputStream@2@_NAEBUPxCookingParams@2@AEBVTetrahedronMeshData@Gu@2@AEBVSoftBodySimulationData@62@3AEBVSoftBodyCollisionData@62@AEBVCollisionMeshMappingData@62@@Z 000000018019b780 f   GuCookingTetrahedronMesh.obj
 0001:0019ae90       ?saveTetrahedronMeshData@TetrahedronMeshBuilder@physx@@SA_NAEAVPxOutputStream@2@_NAEBUPxCookingParams@2@AEBVTetrahedronMeshData@Gu@2@@Z 000000018019be90 f   GuCookingTetrahedronMesh.obj
 0001:0019b040       ?smoothMassRatiosWhilePreservingTotalMass@@YAXPEAMIPEBIHMM@Z 000000018019c040 f   GuCookingTetrahedronMesh.obj
 0001:0019b4e0       ?support@?$LocalConvex@VTetrahedronV@Gu@physx@@@Gu@physx@@UEBA?AT__m128@@AEBT4@@Z 000000018019c4e0 f i GuCookingTetrahedronMesh.obj
 0001:0019b5a0       ?support@?$LocalConvex@VTetrahedronV@Gu@physx@@@Gu@physx@@UEBA?AT__m128@@AEBT4@AEAH@Z 000000018019c5a0 f i GuCookingTetrahedronMesh.obj
 0001:0019b750       assembleSoftBodyMesh       000000018019c750 f   GuCookingTetrahedronMesh.obj
 0001:0019b7b0       assembleSoftBodyMesh_Sim   000000018019c7b0 f   GuCookingTetrahedronMesh.obj
 0001:0019b860       computeCollisionData       000000018019c860 f   GuCookingTetrahedronMesh.obj
 0001:0019ba60       computeModelsMapping       000000018019ca60 f   GuCookingTetrahedronMesh.obj
 0001:0019bb60       computeSimulationData      000000018019cb60 f   GuCookingTetrahedronMesh.obj
 0001:0019bd30       cookSoftBodyMesh           000000018019cd30 f   GuCookingTetrahedronMesh.obj
 0001:0019c350       cookTetrahedronMesh        000000018019d350 f   GuCookingTetrahedronMesh.obj
 0001:0019c440       createSoftBodyMesh         000000018019d440 f   GuCookingTetrahedronMesh.obj
 0001:0019cae0       createTetrahedronMesh      000000018019dae0 f   GuCookingTetrahedronMesh.obj
 0001:0019e7c0       ?computeVolumeIntegrals@physx@@YA_NAEBVPxSimpleTriangleMesh@1@MAEAUPxIntegrals@1@@Z 000000018019f7c0 f   GuCookingVolumeIntegration.obj
 0001:0019e800       ?computeVolumeIntegralsEberly@physx@@YA_NAEBVPxConvexMeshDesc@1@MAEAUPxIntegrals@1@AEBV?$PxVec3T@M@1@_N@Z 000000018019f800 f   GuCookingVolumeIntegration.obj
 0001:0019ee60       ??0QuickHull@local@@QEAA@AEBUPxCookingParams@physx@@AEBVPxConvexMeshDesc@3@@Z 000000018019fe60 f   GuCookingQuickHullConvexHullLib.obj
 0001:0019ef10       ??0QuickHullConvexHullLib@physx@@QEAA@AEBVPxConvexMeshDesc@1@AEBUPxCookingParams@1@@Z 000000018019ff10 f   GuCookingQuickHullConvexHullLib.obj
 0001:0019eff0       ??1?$MemBlock@UQuickHullFace@local@@$00@local@@QEAA@XZ 000000018019fff0 f i GuCookingQuickHullConvexHullLib.obj
 0001:0019eff0       ??1?$MemBlock@UQuickHullHalfEdge@local@@$0A@@local@@QEAA@XZ 000000018019fff0 f i GuCookingQuickHullConvexHullLib.obj
 0001:0019f0b0       ??1QuickHull@local@@QEAA@XZ 00000001801a00b0 f   GuCookingQuickHullConvexHullLib.obj
 0001:0019f210       ??_GConvexHull@physx@@QEAAPEAXI@Z 00000001801a0210 f i GuCookingQuickHullConvexHullLib.obj
 0001:0019f300       ??_EConvexHullLib@physx@@UEAAPEAXI@Z 00000001801a0300 f i GuCookingQuickHullConvexHullLib.obj
 0001:0019f300       ??_GConvexHullLib@physx@@UEAAPEAXI@Z 00000001801a0300 f i GuCookingQuickHullConvexHullLib.obj
 0001:0019f340       ??_EQuickHullConvexHullLib@physx@@UEAAPEAXI@Z 00000001801a0340 f i GuCookingQuickHullConvexHullLib.obj
 0001:0019f340       ??_GQuickHullConvexHullLib@physx@@UEAAPEAXI@Z 00000001801a0340 f i GuCookingQuickHullConvexHullLib.obj
 0001:0019f460       ?addPointToHull@QuickHull@local@@IEAA_NPEBUQuickHullVertex@2@AEAUQuickHullFace@2@AEA_N@Z 00000001801a0460 f   GuCookingQuickHullConvexHullLib.obj
 0001:0019f730       ?addSimplex@QuickHull@local@@IEAA_NPEAUQuickHullVertex@2@_N@Z 00000001801a0730 f   GuCookingQuickHullConvexHullLib.obj
 0001:0019fcb0       ?allocate@?$PxArray@PEAUQuickHullFace@local@@V?$PxReflectionAllocator@PEAUQuickHullFace@local@@@physx@@@physx@@IEAAPEAPEAUQuickHullFace@local@@I@Z 00000001801a0cb0 f i GuCookingQuickHullConvexHullLib.obj
 0001:0019fd40       ?allocate@?$PxArray@PEAUQuickHullHalfEdge@local@@V?$PxReflectionAllocator@PEAUQuickHullHalfEdge@local@@@physx@@@physx@@IEAAPEAPEAUQuickHullHalfEdge@local@@I@Z 00000001801a0d40 f i GuCookingQuickHullConvexHullLib.obj
 0001:0019fdd0       ?allocate@?$PxArray@PEAUQuickHullVertex@local@@V?$PxReflectionAllocator@PEAUQuickHullVertex@local@@@physx@@@physx@@IEAAPEAPEAUQuickHullVertex@local@@I@Z 00000001801a0dd0 f i GuCookingQuickHullConvexHullLib.obj
 0001:0019fe60       ?allocate@?$PxArray@UExpandPoint@local@@V?$PxReflectionAllocator@UExpandPoint@local@@@physx@@@physx@@IEAAPEAUExpandPoint@local@@I@Z 00000001801a0e60 f i GuCookingQuickHullConvexHullLib.obj
 0001:0019fef0       ?allocate@?$PxArray@VPxPlane@physx@@V?$PxReflectionAllocator@VPxPlane@physx@@@2@@physx@@IEAAPEAVPxPlane@2@I@Z 00000001801a0ef0 f i GuCookingQuickHullConvexHullLib.obj
 0001:0019ff80       ?buildHull@QuickHull@local@@QEAA?AW4Enum@QuickHullResult@2@XZ 00000001801a0f80 f   GuCookingQuickHullConvexHullLib.obj
 0001:001a01d0       ?calculateHorizon@QuickHull@local@@IEAAXAEBV?$PxVec3T@M@physx@@PEAUQuickHullHalfEdge@2@AEAUQuickHullFace@2@AEAV?$PxArray@PEAUQuickHullHalfEdge@local@@V?$PxReflectionAllocator@PEAUQuickHullHalfEdge@local@@@physx@@@4@AEAV?$PxArray@PEAUQuickHullFace@local@@V?$PxReflectionAllocator@PEAUQuickHullFace@local@@@physx@@@4@@Z 00000001801a11d0 f   GuCookingQuickHullConvexHullLib.obj
 0001:001a0380       ?canMergeFaces@QuickHull@local@@IEAA_NAEBUQuickHullHalfEdge@2@@Z 00000001801a1380 f   GuCookingQuickHullConvexHullLib.obj
 0001:001a0bb0       ?cleanupForSimplex@QuickHullConvexHullLib@physx@@IEAA_NPEAV?$PxVec3T@M@2@IPEAUQuickHullVertex@local@@1AEAM2@Z 00000001801a1bb0 f   GuCookingQuickHullConvexHullLib.obj
 0001:001a1800       ?computeMinMaxVerts@QuickHull@local@@IEAAXXZ 00000001801a2800 f   GuCookingQuickHullConvexHullLib.obj
 0001:001a1bd0       ?connectHalfEdges@QuickHullFace@local@@AEAAPEAU12@PEAUQuickHullHalfEdge@2@0@Z 00000001801a2bd0 f   GuCookingQuickHullConvexHullLib.obj
 0001:001a1f40       ?copy@?$PxArray@UExpandPoint@local@@V?$PxReflectionAllocator@UExpandPoint@local@@@physx@@@physx@@KAXPEAUExpandPoint@local@@0PEBU34@@Z 00000001801a2f40 f i GuCookingQuickHullConvexHullLib.obj
 0001:001a1ff0       ?copy@?$PxArray@VPxPlane@physx@@V?$PxReflectionAllocator@VPxPlane@physx@@@2@@physx@@KAXPEAVPxPlane@2@0PEBV32@@Z 00000001801a2ff0 f i GuCookingQuickHullConvexHullLib.obj
 0001:001a20f0       ?createConvexHull@QuickHullConvexHullLib@physx@@UEAA?AW4Enum@PxConvexMeshCookingResult@2@XZ 00000001801a30f0 f   GuCookingQuickHullConvexHullLib.obj
 0001:001a2500       ?createEdgeList@QuickHullConvexHullLib@physx@@UEAA_NIPEBEPEAPEAEPEAPEAG2@Z 00000001801a3500 f   GuCookingQuickHullConvexHullLib.obj
 0001:001a2720       ?createTriangle@QuickHull@local@@IEAAPEAUQuickHullFace@2@AEBUQuickHullVertex@2@00@Z 00000001801a3720 f   GuCookingQuickHullConvexHullLib.obj
 0001:001a2af0       ?doAdjacentMerge@QuickHull@local@@IEAA_NAEAUQuickHullFace@2@_NAEA_N@Z 00000001801a3af0 f   GuCookingQuickHullConvexHullLib.obj
 0001:001a2e40       ?expandHull@QuickHullConvexHullLib@physx@@IEAA?AW4Enum@PxConvexMeshCookingResult@2@XZ 00000001801a3e40 f   GuCookingQuickHullConvexHullLib.obj
 0001:001a3780       ?expandHullOBB@QuickHullConvexHullLib@physx@@IEAA?AW4Enum@PxConvexMeshCookingResult@2@XZ 00000001801a4780 f   GuCookingQuickHullConvexHullLib.obj
 0001:001a3bc0       ?fillConvexMeshDesc@QuickHullConvexHullLib@physx@@UEAAXAEAVPxConvexMeshDesc@2@@Z 00000001801a4bc0 f   GuCookingQuickHullConvexHullLib.obj
 0001:001a3c10       ?fillConvexMeshDescFromCroppedHull@QuickHullConvexHullLib@physx@@IEAAXAEAVPxConvexMeshDesc@2@@Z 00000001801a4c10 f   GuCookingQuickHullConvexHullLib.obj
 0001:001a3e00       ?fillConvexMeshDescFromQuickHull@QuickHullConvexHullLib@physx@@IEAAXAEAVPxConvexMeshDesc@2@@Z 00000001801a4e00 f   GuCookingQuickHullConvexHullLib.obj
 0001:001a4180       ?findSimplex@QuickHull@local@@IEAA_NXZ 00000001801a5180 f   GuCookingQuickHullConvexHullLib.obj
 0001:001a4e20       ?getFreeItem@?$MemBlock@UQuickHullFace@local@@$00@local@@QEAAPEAUQuickHullFace@2@XZ 00000001801a5e20 f i GuCookingQuickHullConvexHullLib.obj
 0001:001a4f50       ?getFreeItem@?$MemBlock@UQuickHullHalfEdge@local@@$0A@@local@@QEAAPEAUQuickHullHalfEdge@2@XZ 00000001801a5f50 f i GuCookingQuickHullConvexHullLib.obj
 0001:001a5020       ?growAndPushBack@?$PxArray@PEAUQuickHullFace@local@@V?$PxReflectionAllocator@PEAUQuickHullFace@local@@@physx@@@physx@@IEAAAEAPEAUQuickHullFace@local@@AEBQEAU34@@Z 00000001801a6020 f i GuCookingQuickHullConvexHullLib.obj
 0001:001a50e0       ?growAndPushBack@?$PxArray@PEAUQuickHullHalfEdge@local@@V?$PxReflectionAllocator@PEAUQuickHullHalfEdge@local@@@physx@@@physx@@IEAAAEAPEAUQuickHullHalfEdge@local@@AEBQEAU34@@Z 00000001801a60e0 f i GuCookingQuickHullConvexHullLib.obj
 0001:001a51a0       ?growAndPushBack@?$PxArray@PEAUQuickHullVertex@local@@V?$PxReflectionAllocator@PEAUQuickHullVertex@local@@@physx@@@physx@@IEAAAEAPEAUQuickHullVertex@local@@AEBQEAU34@@Z 00000001801a61a0 f i GuCookingQuickHullConvexHullLib.obj
 0001:001a5260       ?growAndPushBack@?$PxArray@UExpandPoint@local@@V?$PxReflectionAllocator@UExpandPoint@local@@@physx@@@physx@@IEAAAEAUExpandPoint@local@@AEBU34@@Z 00000001801a6260 f i GuCookingQuickHullConvexHullLib.obj
 0001:001a5360       ?growAndPushBack@?$PxArray@VPxPlane@physx@@V?$PxReflectionAllocator@VPxPlane@physx@@@2@@physx@@IEAAAEAVPxPlane@2@AEBV32@@Z 00000001801a6360 f i GuCookingQuickHullConvexHullLib.obj
 0001:001a5420       ?init@?$MemBlock@UQuickHullFace@local@@$00@local@@QEAAXI@Z 00000001801a6420 f i GuCookingQuickHullConvexHullLib.obj
 0001:001a5520       ?init@?$MemBlock@UQuickHullHalfEdge@local@@$0A@@local@@QEAAXI@Z 00000001801a6520 f i GuCookingQuickHullConvexHullLib.obj
 0001:001a55c0       ?mergeAdjacentFace@QuickHullFace@local@@QEAA_NPEAUQuickHullHalfEdge@2@AEAV?$PxArray@PEAUQuickHullFace@local@@V?$PxReflectionAllocator@PEAUQuickHullFace@local@@@physx@@@physx@@@Z 00000001801a65c0 f   GuCookingQuickHullConvexHullLib.obj
 0001:001a5a20       ?nextPointToAdd@QuickHull@local@@IEAAPEAUQuickHullVertex@2@AEAPEAUQuickHullFace@2@@Z 00000001801a6a20 f   GuCookingQuickHullConvexHullLib.obj
 0001:001a5ba0       ?parseInputVertices@QuickHull@local@@QEAAXPEBV?$PxVec3T@M@physx@@I@Z 00000001801a6ba0 f   GuCookingQuickHullConvexHullLib.obj
 0001:001a5d20       ?postMergeHull@QuickHull@local@@IEAAXXZ 00000001801a6d20 f   GuCookingQuickHullConvexHullLib.obj
 0001:001a5f80       ?preallocate@QuickHull@local@@QEAAXI@Z 00000001801a6f80 f   GuCookingQuickHullConvexHullLib.obj
 0001:001a60c0       ?recreate@?$PxArray@PEAUQuickHullFace@local@@V?$PxReflectionAllocator@PEAUQuickHullFace@local@@@physx@@@physx@@IEAAXI@Z 00000001801a70c0 f i GuCookingQuickHullConvexHullLib.obj
 0001:001a6160       ?recreate@?$PxArray@PEAUQuickHullHalfEdge@local@@V?$PxReflectionAllocator@PEAUQuickHullHalfEdge@local@@@physx@@@physx@@IEAAXI@Z 00000001801a7160 f i GuCookingQuickHullConvexHullLib.obj
 0001:001a6200       ?recreate@?$PxArray@PEAUQuickHullVertex@local@@V?$PxReflectionAllocator@PEAUQuickHullVertex@local@@@physx@@@physx@@IEAAXI@Z 00000001801a7200 f i GuCookingQuickHullConvexHullLib.obj
 0001:001a62a0       ?recreate@?$PxArray@UExpandPoint@local@@V?$PxReflectionAllocator@UExpandPoint@local@@@physx@@@physx@@IEAAXI@Z 00000001801a72a0 f i GuCookingQuickHullConvexHullLib.obj
 0001:001a6330       ?recreate@?$PxArray@VPxPlane@physx@@V?$PxReflectionAllocator@VPxPlane@physx@@@2@@physx@@IEAAXI@Z 00000001801a7330 f i GuCookingQuickHullConvexHullLib.obj
 0001:001a63c0       ?resolveUnclaimedPoints@QuickHull@local@@IEAAXAEBV?$PxArray@PEAUQuickHullFace@local@@V?$PxReflectionAllocator@PEAUQuickHullFace@local@@@physx@@@physx@@@Z 00000001801a73c0 f   GuCookingQuickHullConvexHullLib.obj
 0001:001a6640       ??$copy@V?$PxReflectionAllocator@VPair@@@physx@@@?$PxArray@VPair@@V?$PxReflectionAllocator@VPair@@@physx@@@physx@@IEAAXAEBV01@@Z 00000001801a7640 f i GuCookingConvexPolygonsBuilder.obj
 0001:001a66c0       ??0ConvexPolygonsBuilder@physx@@QEAA@PEAUConvexHullData@Gu@1@_N@Z 00000001801a76c0 f   GuCookingConvexPolygonsBuilder.obj
 0001:001a66e0       ??1ConvexPolygonsBuilder@physx@@QEAA@XZ 00000001801a76e0 f   GuCookingConvexPolygonsBuilder.obj
 0001:001a6f30       ?allocate@?$PxArray@VPair@@V?$PxReflectionAllocator@VPair@@@physx@@@physx@@IEAAPEAVPair@@I@Z 00000001801a7f30 f i GuCookingConvexPolygonsBuilder.obj
 0001:001a7a10       ?computeHullPolygons@ConvexPolygonsBuilder@physx@@QEAA_NAEBIPEBV?$PxVec3T@M@2@0PEBI@Z 00000001801a8a10 f   GuCookingConvexPolygonsBuilder.obj
 0001:001a8cd0       ?createPolygonData@ConvexPolygonsBuilder@physx@@AEAA_NXZ 00000001801a9cd0 f   GuCookingConvexPolygonsBuilder.obj
 0001:001a9730       ?createTrianglesFromPolygons@ConvexPolygonsBuilder@physx@@AEAA_NXZ 00000001801aa730 f   GuCookingConvexPolygonsBuilder.obj
 0001:001aadb0       ?growAndPushBack@?$PxArray@VPair@@V?$PxReflectionAllocator@VPair@@@physx@@@physx@@IEAAAEAVPair@@AEBV3@@Z 00000001801abdb0 f i GuCookingConvexPolygonsBuilder.obj
 0001:001aaf40       ??0ConvexMeshBuilder@physx@@QEAA@_N@Z 00000001801abf40 f   GuCookingConvexMeshBuilder.obj
 0001:001aafb0       ??1ConvexMeshBuilder@physx@@QEAA@XZ 00000001801abfb0 f   GuCookingConvexMeshBuilder.obj
 0001:001ab440       ?build@ConvexMeshBuilder@physx@@QEAA_NAEBVPxConvexMeshDesc@2@I_NPEAVConvexHullLib@2@@Z 00000001801ac440 f   GuCookingConvexMeshBuilder.obj
 0001:001ab7d0       ?checkExtentRadiusRatio@ConvexMeshBuilder@physx@@QEAA_NXZ 00000001801ac7d0 f   GuCookingConvexMeshBuilder.obj
 0001:001ab800       ?computeHullPolygons@ConvexMeshBuilder@physx@@QEAA_NAEBIPEBV?$PxVec3T@M@2@0PEBIAEAVPxAllocatorCallback@2@AEAIAEAPEAV32@4AEAPEAI4AEAPEAUPxHullPolygon@2@@Z 00000001801ac800 f   GuCookingConvexMeshBuilder.obj
 0001:001aba10       ?computeMassInfo@ConvexMeshBuilder@physx@@QEAAX_N@Z 00000001801aca10 f   GuCookingConvexMeshBuilder.obj
 0001:001abda0       ?computeSDF@ConvexMeshBuilder@physx@@QEAAXAEBVPxConvexMeshDesc@2@@Z 00000001801acda0 f   GuCookingConvexMeshBuilder.obj
 0001:001ac260       ?copy@ConvexMeshBuilder@physx@@QEAA_NAEAUConvexHullInitData@Gu@2@@Z 00000001801ad260 f   GuCookingConvexMeshBuilder.obj
 0001:001ac3c0       ?loadConvexHull@ConvexMeshBuilder@physx@@QEAA_NAEBVPxConvexMeshDesc@2@PEAVConvexHullLib@2@@Z 00000001801ad3c0 f   GuCookingConvexMeshBuilder.obj
 0001:001ac610       ?save@ConvexMeshBuilder@physx@@QEBA_NAEAVPxOutputStream@2@_N@Z 00000001801ad610 f   GuCookingConvexMeshBuilder.obj
 0001:001aca30       ??0ConvexHull@physx@@QEAA@AEBV?$PxVec3T@M@1@AEBV?$PxTransformT@M@1@AEBV?$PxArray@VPxPlane@physx@@V?$PxReflectionAllocator@VPxPlane@physx@@@2@@1@@Z 00000001801ada30 f   GuCookingConvexHullUtils.obj
 0001:001adb50       ?allocate@?$PxArray@VHalfEdge@ConvexHull@physx@@V?$PxReflectionAllocator@VHalfEdge@ConvexHull@physx@@@3@@physx@@IEAAPEAVHalfEdge@ConvexHull@2@I@Z 00000001801aeb50 f i GuCookingConvexHullUtils.obj
 0001:001adbe0       ?assertIntact@ConvexHull@physx@@QEBA_NM@Z 00000001801aebe0 f   GuCookingConvexHullUtils.obj
 0001:001adf00       ?computeOBBFromConvex@physx@@YA_NAEBVPxConvexMeshDesc@1@AEAV?$PxVec3T@M@1@AEAV?$PxTransformT@M@1@@Z 00000001801aef00 f   GuCookingConvexHullUtils.obj
 0001:001ae560       ?computeOBBSIMD@local@@YAXIPEBT__m128@@AEAT2@AEBT2@1@Z 00000001801af560 f   GuCookingConvexHullUtils.obj
 0001:001ae910       ?convexHullCrop@physx@@YAPEAVConvexHull@1@AEBV21@AEBVPxPlane@1@M@Z 00000001801af910 f   GuCookingConvexHullUtils.obj
 0001:001af710       ?findCandidatePlane@ConvexHull@physx@@QEBAHMM@Z 00000001801b0710 f   GuCookingConvexHullUtils.obj
 0001:001afb60       ?growAndPushBack@?$PxArray@VHalfEdge@ConvexHull@physx@@V?$PxReflectionAllocator@VHalfEdge@ConvexHull@physx@@@3@@physx@@IEAAAEAVHalfEdge@ConvexHull@2@AEBV342@@Z 00000001801b0b60 f i GuCookingConvexHullUtils.obj
 0001:001afc20       ?maxNumVertsPerFace@ConvexHull@physx@@QEBAIXZ 00000001801b0c20 f   GuCookingConvexHullUtils.obj
 0001:001afc90       ?recreate@?$PxArray@VHalfEdge@ConvexHull@physx@@V?$PxReflectionAllocator@VHalfEdge@ConvexHull@physx@@@3@@physx@@IEAAXI@Z 00000001801b0c90 f i GuCookingConvexHullUtils.obj
 0001:001afd30       ?resize@?$PxArray@VHalfEdge@ConvexHull@physx@@V?$PxReflectionAllocator@VHalfEdge@ConvexHull@physx@@@3@@physx@@QEAAXIAEBVHalfEdge@ConvexHull@2@@Z 00000001801b0d30 f i GuCookingConvexHullUtils.obj
 0001:001afdf0       ?resize@?$PxArray@VPxPlane@physx@@V?$PxReflectionAllocator@VPxPlane@physx@@@2@@physx@@QEAAXIAEBVPxPlane@2@@Z 00000001801b0df0 f i GuCookingConvexHullUtils.obj
 0001:001aff10       ??1ConvexHullLib@physx@@UEAA@XZ 00000001801b0f10 f   GuCookingConvexHullLib.obj
 0001:001b0500       ?cleanupVertices@ConvexHullLib@physx@@IEAA_NIPEBV?$PxVec3T@M@2@IAEAIPEAV32@@Z 00000001801b1500 f   GuCookingConvexHullLib.obj
 0001:001b0640       ?shiftAndcleanupVertices@ConvexHullLib@physx@@IEAA_NIPEBV?$PxVec3T@M@2@IAEAIPEAV32@@Z 00000001801b1640 f   GuCookingConvexHullLib.obj
 0001:001b0c20       ?shiftConvexMeshDesc@ConvexHullLib@physx@@IEAAXAEAVPxConvexMeshDesc@2@@Z 00000001801b1c20 f   GuCookingConvexHullLib.obj
 0001:001b0ce0       ?swapLargestFace@ConvexHullLib@physx@@IEAAXAEAVPxConvexMeshDesc@2@@Z 00000001801b1ce0 f   GuCookingConvexHullLib.obj
 0001:001b0f10       ??0ConvexHullBuilder@physx@@QEAA@PEAUConvexHullData@Gu@1@_N@Z 00000001801b1f10 f   GuCookingConvexHullBuilder.obj
 0001:001b0f40       ??1ConvexHullBuilder@physx@@QEAA@XZ 00000001801b1f40 f   GuCookingConvexHullBuilder.obj
 0001:001b1050       ?calculateVertexMapTable@ConvexHullBuilder@physx@@QEAA_NI_N@Z 00000001801b2050 f   GuCookingConvexHullBuilder.obj
 0001:001b1210       ?checkHullPolygons@ConvexHullBuilder@physx@@QEBA_NXZ 00000001801b2210 f   GuCookingConvexHullBuilder.obj
 0001:001b19b0       ?copy@ConvexHullBuilder@physx@@QEAA_NAEAUConvexHullData@Gu@2@AEAI@Z 00000001801b29b0 f   GuCookingConvexHullBuilder.obj
 0001:001b1c20       ?createEdgeList@ConvexHullBuilder@physx@@QEAA_N_NI@Z 00000001801b2c20 f   GuCookingConvexHullBuilder.obj
 0001:001b2360       ?init@ConvexHullBuilder@physx@@QEAA_NIPEBV?$PxVec3T@M@2@PEBIIIPEBUPxHullPolygon@2@_NPEAVConvexHullLib@2@@Z 00000001801b3360 f   GuCookingConvexHullBuilder.obj
 0001:001b2cb0       ?save@ConvexHullBuilder@physx@@QEBA_NAEAVPxOutputStream@2@_N@Z 00000001801b3cb0 f   GuCookingConvexHullBuilder.obj
 0001:001b2fd0       ??0BigConvexDataBuilder@physx@@QEAA@PEBUConvexHullData@Gu@1@PEAVBigConvexData@1@PEBV?$PxVec3T@M@1@@Z 00000001801b3fd0 f   GuCookingBigConvexDataBuilder.obj
 0001:001b2fe0       ?computeValencies@BigConvexDataBuilder@physx@@QEAA_NAEBVConvexHullBuilder@2@@Z 00000001801b3fe0 f   GuCookingBigConvexDataBuilder.obj
 0001:001b33d0       ?precompute@BigConvexDataBuilder@physx@@QEAA_NI@Z 00000001801b43d0 f   GuCookingBigConvexDataBuilder.obj
 0001:001b3fd0       ?save@BigConvexDataBuilder@physx@@QEBA_NAEAVPxOutputStream@2@_N@Z 00000001801b4fd0 f   GuCookingBigConvexDataBuilder.obj
 0001:001b41be       __imp_load_PxGetFoundation 00000001801b51be f   PhysXFoundation_64:PhysXFoundation_64.dll
 0001:001b41ca       __tailMerge_physxfoundation_64_dll 00000001801b51ca     PhysXFoundation_64:PhysXFoundation_64.dll
 0001:001b4243       __imp_load_PxGetBroadcastAllocator 00000001801b5243 f   PhysXFoundation_64:PhysXFoundation_64.dll
 0001:001b424f       __imp_load_?PxAtomicIncrement@physx@@YAHPECH@Z 00000001801b524f f   PhysXFoundation_64:PhysXFoundation_64.dll
 0001:001b425b       __imp_load_??0PxMutexImpl@physx@@QEAA@XZ 00000001801b525b f   PhysXFoundation_64:PhysXFoundation_64.dll
 0001:001b4267       __imp_load_??1PxMutexImpl@physx@@QEAA@XZ 00000001801b5267 f   PhysXFoundation_64:PhysXFoundation_64.dll
 0001:001b4273       __imp_load_?lock@PxMutexImpl@physx@@QEAAXXZ 00000001801b5273 f   PhysXFoundation_64:PhysXFoundation_64.dll
 0001:001b427f       __imp_load_?unlock@PxMutexImpl@physx@@QEAAXXZ 00000001801b527f f   PhysXFoundation_64:PhysXFoundation_64.dll
 0001:001b428b       __imp_load_?getSize@PxMutexImpl@physx@@SAIXZ 00000001801b528b f   PhysXFoundation_64:PhysXFoundation_64.dll
 0001:001b4297       __imp_load_?PxTransformFromSegment@physx@@YA?AV?$PxTransformT@M@1@AEBV?$PxVec3T@M@1@0PEAM@Z 00000001801b5297 f   PhysXFoundation_64:PhysXFoundation_64.dll
 0001:001b42a3       __imp_load_?PxAtomicAdd@physx@@YAHPECHH@Z 00000001801b52a3 f   PhysXFoundation_64:PhysXFoundation_64.dll
 0001:001b42af       __imp_load_?getDefaultStackSize@PxThreadImpl@physx@@SAIXZ 00000001801b52af f   PhysXFoundation_64:PhysXFoundation_64.dll
 0001:001b42bb       __imp_load_??0PxThreadImpl@physx@@QEAA@P6APEAXPEAX@Z0PEBD@Z 00000001801b52bb f   PhysXFoundation_64:PhysXFoundation_64.dll
 0001:001b42c7       __imp_load_??1PxThreadImpl@physx@@QEAA@XZ 00000001801b52c7 f   PhysXFoundation_64:PhysXFoundation_64.dll
 0001:001b42d3       __imp_load_?start@PxThreadImpl@physx@@QEAAXIPEAVPxRunnable@2@@Z 00000001801b52d3 f   PhysXFoundation_64:PhysXFoundation_64.dll
 0001:001b42df       __imp_load_?waitForQuit@PxThreadImpl@physx@@QEAA_NXZ 00000001801b52df f   PhysXFoundation_64:PhysXFoundation_64.dll
 0001:001b42eb       __imp_load_?getSize@PxThreadImpl@physx@@SAIXZ 00000001801b52eb f   PhysXFoundation_64:PhysXFoundation_64.dll
 0001:001b42f7       __imp_load_?allocate@PxTempAllocator@physx@@QEAAPEAX_KPEBDH@Z 00000001801b52f7 f   PhysXFoundation_64:PhysXFoundation_64.dll
 0001:001b4303       __imp_load_?deallocate@PxTempAllocator@physx@@QEAAXPEAX@Z 00000001801b5303 f   PhysXFoundation_64:PhysXFoundation_64.dll
 0001:001b430f       __imp_load_?PxOptimizeBoundingBox@physx@@YA?AV?$PxVec3T@M@1@AEAV?$PxMat33T@M@1@@Z 00000001801b530f f   PhysXFoundation_64:PhysXFoundation_64.dll
 0001:001b431b       __imp_load_?Pxstrcmp@physx@@YAHPEBD0@Z 00000001801b531b f   PhysXFoundation_64:PhysXFoundation_64.dll
 0001:001b4327       __imp_load_?PxAtomicDecrement@physx@@YAHPECH@Z 00000001801b5327 f   PhysXFoundation_64:PhysXFoundation_64.dll
 0001:001b4333       __imp_load_??0PxFPUGuard@physx@@QEAA@XZ 00000001801b5333 f   PhysXFoundation_64:PhysXFoundation_64.dll
 0001:001b433f       __imp_load_??1PxFPUGuard@physx@@QEAA@XZ 00000001801b533f f   PhysXFoundation_64:PhysXFoundation_64.dll
 0001:001b434b       __imp_load_?PxDiagonalize@physx@@YA?AV?$PxVec3T@M@1@AEBV?$PxMat33T@M@1@AEAV?$PxQuatT@M@1@@Z 00000001801b534b f   PhysXFoundation_64:PhysXFoundation_64.dll
 0001:001b4358       ?DloadAcquireSectionWriteAccess@@YAXXZ 00000001801b5358 f i Delayimp:delayhlp.obj
 0001:001b4404       ?DloadGetSRWLockFunctionPointers@@YAEXZ 00000001801b5404 f i Delayimp:delayhlp.obj
 0001:001b44a4       ?DloadMakePermanentImageCommit@@YAXPEAX_K@Z 00000001801b54a4 f i Delayimp:delayhlp.obj
 0001:001b453c       ?DloadObtainSection@@YAPEAXPEAK0@Z 00000001801b553c f i Delayimp:delayhlp.obj
 0001:001b45d8       ?DloadProtectSection@@YAXKPEAK@Z 00000001801b55d8 f i Delayimp:delayhlp.obj
 0001:001b4668       ?DloadReleaseSectionWriteAccess@@YAXXZ 00000001801b5668 f i Delayimp:delayhlp.obj
 0001:001b46fc       __delayLoadHelper2         00000001801b56fc f   Delayimp:delayhlp.obj
 0001:001b49d4       ??3@YAXPEAX_K@Z            00000001801b59d4 f   LIBCMT:delete_scalar_size.obj
 0001:001b49d4       ??_V@YAXPEAX@Z             00000001801b59d4 f   LIBCMT:delete_array.obj
 0001:001b49dc       ??_Etype_info@@UEAAPEAXI@Z 00000001801b59dc f i LIBCMT:std_type_info_static.obj
 0001:001b49dc       ??_Gtype_info@@UEAAPEAXI@Z 00000001801b59dc f i LIBCMT:std_type_info_static.obj
 0001:001b4a08       ?__scrt_initialize_type_info@@YAXXZ 00000001801b5a08 f   LIBCMT:tncleanup.obj
 0001:001b4a18       ?__scrt_uninitialize_type_info@@YAXXZ 00000001801b5a18 f   LIBCMT:tncleanup.obj
 0001:001b4a40       __chkstk                   00000001801b5a40 f   LIBCMT:chkstk.obj
 0001:001b4a40       _alloca_probe              00000001801b5a40 f   LIBCMT:chkstk.obj
 0001:001b4a90       __vdecl_sinf4              00000001801b5a90 f   LIBCMT:svml_ssinf4_dispatch.obj
 0001:001b4ab0       __libm_sse2_sincosf_       00000001801b5ab0 f   LIBCMT:svml_ssinf4_dispatch.obj
 0001:001b4af3       __libm_sse2_sincosf4_      00000001801b5af3 f   LIBCMT:svml_ssinf4_dispatch.obj
 0001:001b4b00       ??3@YAXPEAX@Z              00000001801b5b00 f   LIBCMT:delete_scalar.obj
 0001:001b4b08       __scrt_acquire_startup_lock 00000001801b5b08 f   LIBCMT:utility.obj
 0001:001b4b44       __scrt_dllmain_after_initialize_c 00000001801b5b44 f   LIBCMT:utility.obj
 0001:001b4b78       __scrt_dllmain_before_initialize_c 00000001801b5b78 f   LIBCMT:utility.obj
 0001:001b4b90       __scrt_dllmain_crt_thread_attach 00000001801b5b90 f   LIBCMT:utility.obj
 0001:001b4bb8       __scrt_dllmain_crt_thread_detach 00000001801b5bb8 f   LIBCMT:utility.obj
 0001:001b4bd0       __scrt_dllmain_exception_filter 00000001801b5bd0 f   LIBCMT:utility.obj
 0001:001b4c30       __scrt_dllmain_uninitialize_c 00000001801b5c30 f   LIBCMT:utility.obj
 0001:001b4c60       __scrt_dllmain_uninitialize_critical 00000001801b5c60 f   LIBCMT:utility.obj
 0001:001b4c74       __scrt_initialize_crt      00000001801b5c74 f   LIBCMT:utility.obj
 0001:001b4cc0       __scrt_initialize_onexit_tables 00000001801b5cc0 f   LIBCMT:utility.obj
 0001:001b4d4c       __scrt_is_nonwritable_in_current_image 00000001801b5d4c f   LIBCMT:utility.obj
 0001:001b4de4       __scrt_release_startup_lock 00000001801b5de4 f   LIBCMT:utility.obj
 0001:001b4e08       __scrt_uninitialize_crt    00000001801b5e08 f   LIBCMT:utility.obj
 0001:001b4e34       _onexit                    00000001801b5e34 f   LIBCMT:utility.obj
 0001:001b4e70       atexit                     00000001801b5e70 f   LIBCMT:utility.obj
 0001:001b4e88       __isa_available_init       00000001801b5e88 f   LIBCMT:cpu_disp.obj
 0001:001b5354       _DllMainCRTStartup         00000001801b6354 f   LIBCMT:dll_dllmain.obj
 0001:001b53a0       __sse2_sinf4@@16           00000001801b63a0 f   LIBCMT:svml_ssinf4_sse2.obj
 0001:001b5ce0       __sse4_sinf4@@16           00000001801b6ce0 f   LIBCMT:svml_ssinf4_sse4.obj
 0001:001b6454       __scrt_is_ucrt_dll_in_use  00000001801b7454 f   LIBCMT:ucrt_detection.obj
 0001:001b6460       __crt_debugger_hook        00000001801b7460 f   LIBCMT:utility_desktop.obj
 0001:001b6468       __scrt_fastfail            00000001801b7468 f   LIBCMT:utility_desktop.obj
 0001:001b65b4       __security_init_cookie     00000001801b75b4 f   LIBCMT:gs_support.obj
 0001:001b6660       __local_stdio_scanf_options 00000001801b7660 f i LIBCMT:default_local_stdio_options.obj
 0001:001b6668       __scrt_initialize_default_local_stdio_options 00000001801b7668 f   LIBCMT:default_local_stdio_options.obj
 0001:001b6684       __scrt_get_dyn_tls_init_callback 00000001801b7684 f   LIBCMT:dyn_tls_init.obj
 0001:001b668c       _RTC_Initialize            00000001801b768c f   LIBCMT:initsect.obj
 0001:001b66c8       _RTC_Terminate             00000001801b76c8 f   LIBCMT:initsect.obj
 0001:001b6710       __common_ssin_cout_rare    00000001801b7710 f   LIBCMT:svml_s_sin_cout.obj
 0001:001b6790       memcpy_repmovs             00000001801b7790 f   libvcruntime:memcpy.obj
 0001:001b67b0       memcpy                     00000001801b77b0 f   libvcruntime:memcpy.obj
 0001:001b67b0       memmove                    00000001801b77b0 f   libvcruntime:memcpy.obj
 0001:001b6e20       _get_purecall_handler      00000001801b7e20 f   libvcruntime:purevirt.obj
 0001:001b6e2c       _purecall                  00000001801b7e2c f   libvcruntime:purevirt.obj
 0001:001b6e50       __std_type_info_compare    00000001801b7e50 f   libvcruntime:std_type_info.obj
 0001:001b6e78       __std_type_info_destroy_list 00000001801b7e78 f   libvcruntime:std_type_info.obj
 0001:001b6ea4       __std_type_info_name       00000001801b7ea4 f   libvcruntime:std_type_info.obj
 0001:001b6fd0       memset_repstos             00000001801b7fd0 f   libvcruntime:memset.obj
 0001:001b6ff0       memset                     00000001801b7ff0 f   libvcruntime:memset.obj
 0001:001b7378       strstr                     00000001801b8378 f   libvcruntime:strstr.obj
 0001:001b7570       __vcrt_initialize          00000001801b8570 f   libvcruntime:initialization.obj
 0001:001b7598       __vcrt_thread_attach       00000001801b8598 f   libvcruntime:initialization.obj
 0001:001b75ac       __vcrt_thread_detach       00000001801b85ac f   libvcruntime:initialization.obj
 0001:001b75bc       __vcrt_uninitialize        00000001801b85bc f   libvcruntime:initialization.obj
 0001:001b75d8       __vcrt_uninitialize_critical 00000001801b85d8 f   libvcruntime:initialization.obj
 0001:001b75e8       __C_specific_handler       00000001801b85e8 f   libvcruntime:riscchandler.obj
 0001:001b77e0       __DestructExceptionObject  00000001801b87e0 f   libvcruntime:ehhelpers.obj
 0001:001b7850       ?_CallMemberFunction0@@YAXQEAX0@Z 00000001801b8850 f i libvcruntime:ehhelpers.obj
 0001:001b7854       _IsExceptionObjectToBeDestroyed 00000001801b8854 f   libvcruntime:ehhelpers.obj
 0001:001b7884       __AdjustPointer            00000001801b8884 f   libvcruntime:ehhelpers.obj
 0001:001b78a8       __FrameUnwindFilter        00000001801b88a8 f   libvcruntime:ehhelpers.obj
 0001:001b7910       __std_terminate            00000001801b8910 f   libvcruntime:ehhelpers.obj
 0001:001b791c       ??$?0$00@DName@@QEAA@PEBDU?$StringLifeSelector@$00@@@Z 00000001801b891c f i libvcruntime:undname.obj
 0001:001b795c       ??$?0$01@DName@@QEAA@PEBDU?$StringLifeSelector@$01@@@Z 00000001801b895c f i libvcruntime:undname.obj
 0001:001b795c       ??$?0$0A@@DName@@QEAA@PEBDU?$StringLifeSelector@$0A@@@@Z 00000001801b895c f i libvcruntime:undname.obj
 0001:001b799c       ??$?0$01@pcharNode@@QEAA@PEBDHU?$StringLifeSelector@$01@@@Z 00000001801b899c f i libvcruntime:undname.obj
 0001:001b799c       ??$?0$0A@@pcharNode@@QEAA@PEBDHU?$StringLifeSelector@$0A@@@@Z 00000001801b899c f i libvcruntime:undname.obj
 0001:001b7a10       ??$append@VDNameNode@@@DName@@AEAAXPEBVDNameNode@@@Z 00000001801b8a10 f i libvcruntime:undname.obj
 0001:001b7a10       ??$append@VDNameStatusNode@@@DName@@AEAAXPEBVDNameStatusNode@@@Z 00000001801b8a10 f i libvcruntime:undname.obj
 0001:001b7a10       ??$append@VcharNode@@@DName@@AEAAXPEBVcharNode@@@Z 00000001801b8a10 f i libvcruntime:undname.obj
 0001:001b7a10       ??$append@VpcharNode@@@DName@@AEAAXPEBVpcharNode@@@Z 00000001801b8a10 f i libvcruntime:undname.obj
 0001:001b7a74       ??$doPchar@$00@DName@@AEAAXPEBDH@Z 00000001801b8a74 f i libvcruntime:undname.obj
 0001:001b7b18       ??$doPchar@$01@DName@@AEAAXPEBDH@Z 00000001801b8b18 f i libvcruntime:undname.obj
 0001:001b7b18       ??$doPchar@$0A@@DName@@AEAAXPEBDH@Z 00000001801b8b18 f i libvcruntime:undname.obj
 0001:001b7bb0       ??0DName@@QEAA@AEAPEBDD@Z  00000001801b8bb0 f   libvcruntime:undname.obj
 0001:001b7c60       ??0DName@@QEAA@AEBUStringLiteral@@@Z 00000001801b8c60 f   libvcruntime:undname.obj
 0001:001b7c8c       ??0DName@@QEAA@PEAV0@@Z    00000001801b8c8c f   libvcruntime:undname.obj
 0001:001b7d10       ??0DName@@QEAA@_J@Z        00000001801b8d10 f   libvcruntime:undname.obj
 0001:001b7db8       ??0DName@@QEAA@_K@Z        00000001801b8db8 f   libvcruntime:undname.obj
 0001:001b7e40       ??0UnDecorator@@QEAA@PEBDP6APEADJ@ZK@Z 00000001801b8e40 f i libvcruntime:undname.obj
 0001:001b7ef4       ??2@YAPEAX_KAEAV_HeapManager@@H@Z 00000001801b8ef4 f   libvcruntime:undname.obj
 0001:001b7f20       ??4DName@@QEAAAEAV0@W4DNameStatus@@@Z 00000001801b8f20 f   libvcruntime:undname.obj
 0001:001b7f50       ??AReplicator@@QEBA?AVDName@@H@Z 00000001801b8f50 f   libvcruntime:undname.obj
 0001:001b7f90       ??HDName@@QEBA?AV0@AEBUStringLiteral@@@Z 00000001801b8f90 f   libvcruntime:undname.obj
 0001:001b7fbc       ??HDName@@QEBA?AV0@AEBV0@@Z 00000001801b8fbc f   libvcruntime:undname.obj
 0001:001b7fe8       ??HDName@@QEBA?AV0@D@Z     00000001801b8fe8 f   libvcruntime:undname.obj
 0001:001b8014       ??HDName@@QEBA?AV0@W4DNameStatus@@@Z 00000001801b9014 f   libvcruntime:undname.obj
 0001:001b8040       ??YDName@@QEAAAEAV0@AEBUStringLiteral@@@Z 00000001801b9040 f   libvcruntime:undname.obj
 0001:001b80c0       ??YDName@@QEAAAEAV0@AEBV0@@Z 00000001801b90c0 f   libvcruntime:undname.obj
 0001:001b8118       ??YDName@@QEAAAEAV0@D@Z    00000001801b9118 f   libvcruntime:undname.obj
 0001:001b8184       ??YDName@@QEAAAEAV0@W4DNameStatus@@@Z 00000001801b9184 f   libvcruntime:undname.obj
 0001:001b81dc       ??YReplicator@@QEAAAEAV0@AEBVDName@@@Z 00000001801b91dc f   libvcruntime:undname.obj
 0001:001b8234       ?UScore@UnDecorator@@SA?AUStringLiteral@@W4Tokens@@@Z 00000001801b9234 f   libvcruntime:undname.obj
 0001:001b8280       ?composeDeclaration@UnDecorator@@CA?AVDName@@AEBV2@@Z 00000001801b9280 f i libvcruntime:undname.obj
 0001:001b9174       ?doPchar@DName@@AEAAXD@Z   00000001801ba174 f   libvcruntime:undname.obj
 0001:001b91c4       ?getAddressOf@UnDecorator@@CA?AVDName@@XZ 00000001801ba1c4 f   libvcruntime:undname.obj
 0001:001b9254       ?getArgumentList@UnDecorator@@CA?AVDName@@XZ 00000001801ba254 f   libvcruntime:undname.obj
 0001:001b9408       ?getArgumentTypes@UnDecorator@@CA?AVDName@@XZ 00000001801ba408 f   libvcruntime:undname.obj
 0001:001b9554       ?getArrayAccess@UnDecorator@@CA?AVDName@@XZ 00000001801ba554 f   libvcruntime:undname.obj
 0001:001b95f0       ?getArrayObject@UnDecorator@@CA?AVDName@@XZ 00000001801ba5f0 f   libvcruntime:undname.obj
 0001:001b96ac       ?getArrayType@UnDecorator@@CA?AVDName@@AEBV2@@Z 00000001801ba6ac f i libvcruntime:undname.obj
 0001:001b9918       ?getBasedType@UnDecorator@@CA?AVDName@@XZ 00000001801ba918 f   libvcruntime:undname.obj
 0001:001b9a10       ?getBasicDataType@UnDecorator@@CA?AVDName@@AEBV2@@Z 00000001801baa10 f   libvcruntime:undname.obj
 0001:001ba014       ?getCallingConvention@UnDecorator@@CA?AVDName@@XZ 00000001801bb014 f   libvcruntime:undname.obj
 0001:001ba14c       ?getDataIndirectType@UnDecorator@@CA?AVDName@@AEBV2@W4IndirectionKind@@0H@Z 00000001801bb14c f   libvcruntime:undname.obj
 0001:001baa70       ?getDataType@UnDecorator@@CA?AVDName@@PEAV2@@Z 00000001801bba70 f   libvcruntime:undname.obj
 0001:001bab84       ?getDecoratedName@UnDecorator@@CA?AVDName@@XZ 00000001801bbb84 f   libvcruntime:undname.obj
 0001:001bae6c       ?getDimension@UnDecorator@@CA?AVDName@@_N@Z 00000001801bbe6c f   libvcruntime:undname.obj
 0001:001bafb4       ?getDispatchTarget@UnDecorator@@CA?AVDName@@XZ 00000001801bbfb4 f   libvcruntime:undname.obj
 0001:001bb014       ?getECSUDataType@UnDecorator@@CA?AVDName@@XZ 00000001801bc014 f   libvcruntime:undname.obj
 0001:001bb210       ?getEnumType@UnDecorator@@CA?AVDName@@XZ 00000001801bc210 f i libvcruntime:undname.obj
 0001:001bb340       ?getExtendedDataIndirectType@UnDecorator@@CA?AVDName@@AEAW4IndirectionKind@@AEA_NH@Z 00000001801bc340 f   libvcruntime:undname.obj
 0001:001bb544       ?getExternalDataType@UnDecorator@@CA?AVDName@@AEBV2@@Z 00000001801bc544 f i libvcruntime:undname.obj
 0001:001bb604       ?getFloatingPoint@UnDecorator@@CA?AVDName@@H@Z 00000001801bc604 f   libvcruntime:undname.obj
 0001:001bb76c       ?getFunctionIndirectType@UnDecorator@@CA?AVDName@@AEBV2@@Z 00000001801bc76c f   libvcruntime:undname.obj
 0001:001bbca0       ?getLastChar@DNameStatusNode@@UEBADXZ 00000001801bcca0 f i libvcruntime:undname.obj
 0001:001bbcac       ?getLastChar@charNode@@UEBADXZ 00000001801bccac f i libvcruntime:undname.obj
 0001:001bbcb0       ?getLastChar@pDNameNode@@UEBADXZ 00000001801bccb0 f i libvcruntime:undname.obj
 0001:001bbcdc       ?getLastChar@pairNode@@UEBADXZ 00000001801bccdc f i libvcruntime:undname.obj
 0001:001bbd14       ?getLastChar@pcharNode@@UEBADXZ 00000001801bcd14 f i libvcruntime:undname.obj
 0001:001bbd28       ?getLexicalFrame@UnDecorator@@CA?AVDName@@XZ 00000001801bcd28 f i libvcruntime:undname.obj
 0001:001bbd8c       ?getMemberAccess@UnDecorator@@CA?AVDName@@XZ 00000001801bcd8c f   libvcruntime:undname.obj
 0001:001bbe20       ?getMemoryWithBuffer@_HeapManager@@QEAAPEAX_K@Z 00000001801bce20 f   libvcruntime:undname.obj
 0001:001bbeb0       ?getNoexcept@UnDecorator@@CA?AVDName@@XZ 00000001801bceb0 f   libvcruntime:undname.obj
 0001:001bbf14       ?getNumberOfDimensions@UnDecorator@@CAHXZ 00000001801bcf14 f   libvcruntime:undname.obj
 0001:001bbf7c       ?getOperatorName@UnDecorator@@CA?AVDName@@_NPEA_N@Z 00000001801bcf7c f i libvcruntime:undname.obj
 0001:001bc92c       ?getPointerToMember@UnDecorator@@CA?AVDName@@XZ 00000001801bd92c f   libvcruntime:undname.obj
 0001:001bca24       ?getPrimaryDataType@UnDecorator@@CA?AVDName@@AEBV2@@Z 00000001801bda24 f   libvcruntime:undname.obj
 0001:001bccdc       ?getPtrRefDataType@UnDecorator@@CA?AVDName@@AEBV2@H@Z 00000001801bdcdc f   libvcruntime:undname.obj
 0001:001bcea8       ?getPtrRefType@UnDecorator@@CA?AVDName@@AEBV2@0W4IndirectionKind@@@Z 00000001801bdea8 f   libvcruntime:undname.obj
 0001:001bd080       ?getRestrictionSpec@UnDecorator@@CA?AVDName@@XZ 00000001801be080 f   libvcruntime:undname.obj
 0001:001bd25c       ?getReturnType@UnDecorator@@CA?AVDName@@PEAV2@@Z 00000001801be25c f   libvcruntime:undname.obj
 0001:001bd290       ?getScope@UnDecorator@@CA?AVDName@@XZ 00000001801be290 f   libvcruntime:undname.obj
 0001:001bd748       ?getScopedName@UnDecorator@@CA?AVDName@@XZ 00000001801be748 f   libvcruntime:undname.obj
 0001:001bd88c       ?getSignedDimension@UnDecorator@@CA?AVDName@@XZ 00000001801be88c f   libvcruntime:undname.obj
 0001:001bd914       ?getString@DNameStatusNode@@UEBAPEADPEAD0@Z 00000001801be914 f i libvcruntime:undname.obj
 0001:001bd95c       ?getString@charNode@@UEBAPEADPEAD0@Z 00000001801be95c f i libvcruntime:undname.obj
 0001:001bd970       ?getString@pDNameNode@@UEBAPEADPEAD0@Z 00000001801be970 f i libvcruntime:undname.obj
 0001:001bd9a0       ?getString@pairNode@@UEBAPEADPEAD0@Z 00000001801be9a0 f i libvcruntime:undname.obj
 0001:001bd9ec       ?getString@pcharNode@@UEBAPEADPEAD0@Z 00000001801be9ec f i libvcruntime:undname.obj
 0001:001bda24       ?getStringEncoding@UnDecorator@@CA?AVDName@@W4PrefixKind@@H@Z 00000001801bea24 f   libvcruntime:undname.obj
 0001:001bdb34       ?getStringObject@UnDecorator@@CA?AVDName@@XZ 00000001801beb34 f   libvcruntime:undname.obj
 0001:001bdb9c       ?getSymbolName@UnDecorator@@CA?AVDName@@XZ 00000001801beb9c f i libvcruntime:undname.obj
 0001:001bdbe8       ?getTemplateArgumentList@UnDecorator@@CA?AVDName@@XZ 00000001801bebe8 f   libvcruntime:undname.obj
 0001:001bde04       ?getTemplateName@UnDecorator@@CA?AVDName@@_N@Z 00000001801bee04 f   libvcruntime:undname.obj
 0001:001be0cc       ?getTemplateNonTypeArgument@UnDecorator@@CA?AVDName@@XZ 00000001801bf0cc f   libvcruntime:undname.obj
 0001:001be61c       ?getTemplateTypeArgument@UnDecorator@@CA?AVDName@@XZ 00000001801bf61c f   libvcruntime:undname.obj
 0001:001be784       ?getThrowTypes@UnDecorator@@CA?AVDName@@XZ 00000001801bf784 f   libvcruntime:undname.obj
 0001:001be7a8       ?getTypeEncoding@UnDecorator@@CAHXZ 00000001801bf7a8 f i libvcruntime:undname.obj
 0001:001beb64       ?getUndecoratedName@UnDecorator@@QEAAPEADPEADH@Z 00000001801bfb64 f i libvcruntime:undname.obj
 0001:001becb8       ?getUnionObject@UnDecorator@@CA?AVDName@@XZ 00000001801bfcb8 f   libvcruntime:undname.obj
 0001:001bed90       ?getVCallThunkType@UnDecorator@@CA?AVDName@@XZ 00000001801bfd90 f i libvcruntime:undname.obj
 0001:001bee08       ?getValue@UnDecorator@@CA?AV?$optional@_K@std@@XZ 00000001801bfe08 f   libvcruntime:undname.obj
 0001:001bee4c       ?getValueObject@UnDecorator@@CA?AVDName@@XZ 00000001801bfe4c f   libvcruntime:undname.obj
 0001:001bef8c       ?getVdispMapType@UnDecorator@@CA?AVDName@@AEBV2@@Z 00000001801bff8c f i libvcruntime:undname.obj
 0001:001bf008       ?getVfTableType@UnDecorator@@CA?AVDName@@AEBV2@@Z 00000001801c0008 f i libvcruntime:undname.obj
 0001:001bf214       ?getZName@UnDecorator@@CA?AVDName@@_N0@Z 00000001801c0214 f   libvcruntime:undname.obj
 0001:001bf4e8       ?length@pDNameNode@@UEBAHXZ 00000001801c04e8 f i libvcruntime:undname.obj
 0001:001bf510       ?length@pairNode@@UEBAHXZ  00000001801c0510 f i libvcruntime:undname.obj
 0001:001bf558       ?parseDecoratedName@UnDecorator@@CA?AVDName@@XZ 00000001801c0558 f   libvcruntime:undname.obj
 0001:001bf670       ?raw_length@pDNameNode@@UEBAHXZ 00000001801c0670 f i libvcruntime:undname.obj
 0001:001bf674       ?raw_length@pairNode@@UEBAHXZ 00000001801c0674 f i libvcruntime:undname.obj
 0001:001bf678       __unDName                  00000001801c0678 f   libvcruntime:undname.obj
 0001:001bf6a0       __unDNameEx                00000001801c06a0 f   libvcruntime:undname.obj
 0001:001bf790       snprintf                   00000001801c0790 f i libvcruntime:undname.obj
 0001:001bf7e8       sprintf_s                  00000001801c07e8 f i libvcruntime:undname.obj
 0001:001bf83c       __vcrt_freefls             00000001801c083c f   libvcruntime:per_thread_data.obj
 0001:001bf85c       __vcrt_freeptd_for_this_thread 00000001801c085c f   libvcruntime:per_thread_data.obj
 0001:001bf8a4       __vcrt_getptd              00000001801c08a4 f   libvcruntime:per_thread_data.obj
 0001:001bf8c0       __vcrt_getptd_noexit       00000001801c08c0 f   libvcruntime:per_thread_data.obj
 0001:001bf980       __vcrt_initialize_ptd      00000001801c0980 f   libvcruntime:per_thread_data.obj
 0001:001bf9c8       __vcrt_uninitialize_ptd    00000001801c09c8 f   libvcruntime:per_thread_data.obj
 0001:001bf9ec       __vcrt_initialize_locks    00000001801c09ec f   libvcruntime:locks.obj
 0001:001bfa34       __vcrt_lock                00000001801c0a34 f   libvcruntime:locks.obj
 0001:001bfa50       __vcrt_uninitialize_locks  00000001801c0a50 f   libvcruntime:locks.obj
 0001:001bfa88       __vcrt_unlock              00000001801c0a88 f   libvcruntime:locks.obj
 0001:001bfac0       _NLG_Notify                00000001801c0ac0 f   libvcruntime:notify.obj
 0001:001bfae0       __NLG_Dispatch2            00000001801c0ae0 f   libvcruntime:notify.obj
 0001:001bfaf0       __NLG_Return2              00000001801c0af0 f   libvcruntime:notify.obj
 0001:001bfaf4       __except_validate_context_record 00000001801c0af4 f   libvcruntime:jbcxrval.obj
 0001:001bfb2c       ??$_CallSETranslator@V__FrameHandler3@@@@YAHPEAUEHExceptionRecord@@PEA_KPEAU_CONTEXT@@PEAU_xDISPATCHER_CONTEXT@@PEBU_s_FuncInfo@@K1H@Z 00000001801c0b2c f i libvcruntime:risctrnsctrl.obj
 0001:001bfb80       ??$_CallSETranslator@V__FrameHandler4@@@@YAHPEAUEHExceptionRecord@@PEA_KPEAU_CONTEXT@@PEAU_xDISPATCHER_CONTEXT@@PEAUFuncInfo4@FH4@@K1H@Z 00000001801c0b80 f i libvcruntime:risctrnsctrl.obj
 0001:001bfbd4       ?CatchTryBlock@__FrameHandler3@@SAPEBU_s_TryBlockMapEntry@@PEBU_s_FuncInfo@@H@Z 00000001801c0bd4 f   libvcruntime:risctrnsctrl.obj
 0001:001bfc38       ?DecompFuncInfo@FH4@@YA_JPEAEAEAUFuncInfo4@1@_KH_N@Z 00000001801c0c38 f i libvcruntime:risctrnsctrl.obj
 0001:001bfd6c       ?ExecutionInCatch@__FrameHandler3@@SA_NPEAU_xDISPATCHER_CONTEXT@@PEBU_s_FuncInfo@@@Z 00000001801c0d6c f   libvcruntime:risctrnsctrl.obj
 0001:001bfd98       ?ExecutionInCatch@__FrameHandler4@@SA_NPEAU_xDISPATCHER_CONTEXT@@PEAUFuncInfo4@FH4@@@Z 00000001801c0d98 f   libvcruntime:risctrnsctrl.obj
 0001:001bfda0       ?FrameUnwindToEmptyState@__FrameHandler3@@SAXPEA_KPEAU_xDISPATCHER_CONTEXT@@PEBU_s_FuncInfo@@@Z 00000001801c0da0 f   libvcruntime:risctrnsctrl.obj
 0001:001bfe04       ?FrameUnwindToEmptyState@__FrameHandler4@@SAXPEA_KPEAU_xDISPATCHER_CONTEXT@@PEAUFuncInfo4@FH4@@@Z 00000001801c0e04 f   libvcruntime:risctrnsctrl.obj
 0001:001bfe38       ?GetEstablisherFrame@__FrameHandler3@@SAPEA_KPEA_KPEAU_xDISPATCHER_CONTEXT@@PEBU_s_FuncInfo@@0@Z 00000001801c0e38 f   libvcruntime:risctrnsctrl.obj
 0001:001bff04       ?GetEstablisherFrame@__FrameHandler4@@SAPEA_KPEA_KPEAU_xDISPATCHER_CONTEXT@@PEAUFuncInfo4@FH4@@0@Z 00000001801c0f04 f   libvcruntime:risctrnsctrl.obj
 0001:001bff28       ?GetRangeOfTrysToCheck@__FrameHandler3@@SA?AU?$pair@Viterator@TryBlockMap@__FrameHandler3@@V123@@std@@AEAVTryBlockMap@1@HPEAU_xDISPATCHER_CONTEXT@@PEBU_s_FuncInfo@@H@Z 00000001801c0f28 f   libvcruntime:risctrnsctrl.obj
 0001:001c0068       ?GetRangeOfTrysToCheck@__FrameHandler4@@SA?AU?$pair@Viterator@TryBlockMap4@FH4@@V123@@std@@AEAVTryBlockMap4@FH4@@HPEAU_xDISPATCHER_CONTEXT@@PEAUFuncInfo4@5@H@Z 00000001801c1068 f   libvcruntime:risctrnsctrl.obj
 0001:001c01d4       ?UnwindNestedFrames@__FrameHandler3@@SAXPEA_KPEAUEHExceptionRecord@@PEAU_CONTEXT@@0PEAXPEBU_s_FuncInfo@@HHPEBU_s_HandlerType@@PEAU_xDISPATCHER_CONTEXT@@E@Z 00000001801c11d4 f   libvcruntime:risctrnsctrl.obj
 0001:001c02d8       ?UnwindNestedFrames@__FrameHandler4@@SAXPEA_KPEAUEHExceptionRecord@@PEAU_CONTEXT@@0PEAXPEAUFuncInfo4@FH4@@HHPEAUHandlerType4@5@PEAU_xDISPATCHER_CONTEXT@@E@Z 00000001801c12d8 f   libvcruntime:risctrnsctrl.obj
 0001:001c03f8       ?setBuffer@TryBlockMap4@FH4@@QEAAXViterator@12@@Z 00000001801c13f8 f i libvcruntime:risctrnsctrl.obj
 0001:001c05bc       _CreateFrameInfo           00000001801c15bc f   libvcruntime:risctrnsctrl.obj
 0001:001c05f8       _FindAndUnlinkFrame        00000001801c15f8 f   libvcruntime:risctrnsctrl.obj
 0001:001c064c       _GetImageBase              00000001801c164c f   libvcruntime:risctrnsctrl.obj
 0001:001c0660       _GetThrowImageBase         00000001801c1660 f   libvcruntime:risctrnsctrl.obj
 0001:001c0674       _SetImageBase              00000001801c1674 f   libvcruntime:risctrnsctrl.obj
 0001:001c068c       _SetThrowImageBase         00000001801c168c f   libvcruntime:risctrnsctrl.obj
 0001:001c06a4       __CxxFrameHandler3         00000001801c16a4 f   libvcruntime:risctrnsctrl.obj
 0001:001c072c       __CxxFrameHandler4         00000001801c172c f   libvcruntime:risctrnsctrl.obj
 0001:001c093c       __vcrt_FlsAlloc            00000001801c193c f   libvcruntime:winapi_downlevel.obj
 0001:001c0984       __vcrt_FlsFree             00000001801c1984 f   libvcruntime:winapi_downlevel.obj
 0001:001c09cc       __vcrt_FlsGetValue         00000001801c19cc f   libvcruntime:winapi_downlevel.obj
 0001:001c0a14       __vcrt_FlsSetValue         00000001801c1a14 f   libvcruntime:winapi_downlevel.obj
 0001:001c0a68       __vcrt_InitializeCriticalSectionEx 00000001801c1a68 f   libvcruntime:winapi_downlevel.obj
 0001:001c0acc       ?GetCurrentState@__FrameHandler3@@SAHPEA_KPEAU_xDISPATCHER_CONTEXT@@PEBU_s_FuncInfo@@@Z 00000001801c1acc f   libvcruntime:ehstate.obj
 0001:001c0af4       ?GetUnwindTryBlock@__FrameHandler3@@SAHPEA_KPEAU_xDISPATCHER_CONTEXT@@PEBU_s_FuncInfo@@@Z 00000001801c1af4 f   libvcruntime:ehstate.obj
 0001:001c0b20       ?SetState@__FrameHandler3@@SAXPEA_KPEBU_s_FuncInfo@@H@Z 00000001801c1b20 f   libvcruntime:ehstate.obj
 0001:001c0b2c       ?SetUnwindTryBlock@__FrameHandler3@@SAXPEA_KPEAU_xDISPATCHER_CONTEXT@@PEBU_s_FuncInfo@@H@Z 00000001801c1b2c f   libvcruntime:ehstate.obj
 0001:001c0b68       ?StateFromControlPc@__FrameHandler3@@SAHPEBU_s_FuncInfo@@PEAU_xDISPATCHER_CONTEXT@@@Z 00000001801c1b68 f   libvcruntime:ehstate.obj
 0001:001c0b70       ?StateFromControlPc@__FrameHandler4@@SAHPEAUFuncInfo4@FH4@@PEAU_xDISPATCHER_CONTEXT@@@Z 00000001801c1b70 f   libvcruntime:ehstate.obj
 0001:001c0b78       ?StateFromIp@__FrameHandler3@@SAHPEBU_s_FuncInfo@@PEAU_xDISPATCHER_CONTEXT@@_K@Z 00000001801c1b78 f   libvcruntime:ehstate.obj
 0001:001c0be0       ?StateFromIp@__FrameHandler4@@SAHPEAUFuncInfo4@FH4@@PEAU_xDISPATCHER_CONTEXT@@_K@Z 00000001801c1be0 f   libvcruntime:ehstate.obj
 0001:001c22e0       ??$TypeMatchHelper@V__FrameHandler3@@@@YAHPEBU_s_HandlerType@@PEBU_s_CatchableType@@PEBU_s_ThrowInfo@@@Z 00000001801c32e0 f i libvcruntime:frame.obj
 0001:001c2420       ??$TypeMatchHelper@V__FrameHandler4@@@@YAHPEAUHandlerType4@FH4@@PEBU_s_CatchableType@@PEBU_s_ThrowInfo@@@Z 00000001801c3420 f i libvcruntime:frame.obj
 0001:001c2564       ??$__InternalCxxFrameHandler@V__FrameHandler3@@@@YA?AW4_EXCEPTION_DISPOSITION@@PEAUEHExceptionRecord@@PEA_KPEAU_CONTEXT@@PEAU_xDISPATCHER_CONTEXT@@PEBU_s_FuncInfo@@H1E@Z 00000001801c3564 f i libvcruntime:frame.obj
 0001:001c279c       ??$__InternalCxxFrameHandler@V__FrameHandler4@@@@YA?AW4_EXCEPTION_DISPOSITION@@PEAUEHExceptionRecord@@PEA_KPEAU_CONTEXT@@PEAU_xDISPATCHER_CONTEXT@@PEAUFuncInfo4@FH4@@H1E@Z 00000001801c379c f i libvcruntime:frame.obj
 0001:001c2a30       ??$__InternalCxxFrameHandlerWrapper@V__FrameHandler3@@@@YA?AW4_EXCEPTION_DISPOSITION@@PEAUEHExceptionRecord@@PEA_KPEAU_CONTEXT@@PEAU_xDISPATCHER_CONTEXT@@PEBU_s_FuncInfo@@H1E@Z 00000001801c3a30 f i libvcruntime:frame.obj
 0001:001c2a38       ??$__InternalCxxFrameHandlerWrapper@V__FrameHandler4@@@@YA?AW4_EXCEPTION_DISPOSITION@@PEAUEHExceptionRecord@@PEA_KPEAU_CONTEXT@@PEAU_xDISPATCHER_CONTEXT@@PEAUFuncInfo4@FH4@@H1E@Z 00000001801c3a38 f i libvcruntime:frame.obj
 0001:001c2a84       ??0HandlerMap4@FH4@@QEAA@PEBUTryBlockMapEntry4@1@_KH@Z 00000001801c3a84 f i libvcruntime:frame.obj
 0001:001c2b08       ??0TryBlockMap4@FH4@@QEAA@PEBUFuncInfo4@1@_K@Z 00000001801c3b08 f i libvcruntime:frame.obj
 0001:001c2bec       ??0bad_exception@std@@QEAA@AEBV01@@Z 00000001801c3bec f i libvcruntime:frame.obj
 0001:001c2c28       ??0bad_exception@std@@QEAA@XZ 00000001801c3c28 f i libvcruntime:frame.obj
 0001:001c2c48       ??0exception@std@@QEAA@AEBV01@@Z 00000001801c3c48 f i libvcruntime:frame.obj
 0001:001c2c7c       ??1bad_exception@std@@UEAA@XZ 00000001801c3c7c f i libvcruntime:frame.obj
 0001:001c2c90       ??_Ebad_exception@std@@UEAAPEAXI@Z 00000001801c3c90 f i libvcruntime:frame.obj
 0001:001c2c90       ??_Eexception@std@@UEAAPEAXI@Z 00000001801c3c90 f i libvcruntime:frame.obj
 0001:001c2c90       ??_Gbad_exception@std@@UEAAPEAXI@Z 00000001801c3c90 f i libvcruntime:frame.obj
 0001:001c2c90       ??_Gexception@std@@UEAAPEAXI@Z 00000001801c3c90 f i libvcruntime:frame.obj
 0001:001c2cd4       ?CxxCallCatchBlock@__FrameHandler3@@SAPEAXPEAU_EXCEPTION_RECORD@@@Z 00000001801c3cd4 f   libvcruntime:frame.obj
 0001:001c2ec0       ?CxxCallCatchBlock@__FrameHandler4@@SAPEAXPEAU_EXCEPTION_RECORD@@@Z 00000001801c3ec0 f   libvcruntime:frame.obj
 0001:001c3110       ?DecompHandler@HandlerMap4@FH4@@AEAAXXZ 00000001801c4110 f i libvcruntime:frame.obj
 0001:001c335c       ?FrameUnwindToState@__FrameHandler3@@SAXPEA_KPEAU_xDISPATCHER_CONTEXT@@PEBU_s_FuncInfo@@H@Z 00000001801c435c f   libvcruntime:frame.obj
 0001:001c34e8       ?FrameUnwindToState@__FrameHandler4@@SAXPEA_KPEAU_xDISPATCHER_CONTEXT@@PEAUFuncInfo4@FH4@@H@Z 00000001801c44e8 f   libvcruntime:frame.obj
 0001:001c37ec       ?GetHandlerSearchState@__FrameHandler3@@SAHPEA_KPEAU_xDISPATCHER_CONTEXT@@PEBU_s_FuncInfo@@@Z 00000001801c47ec f i libvcruntime:frame.obj
 0001:001c39fc       ?ReadEntry@UWMap4@FH4@@AEAAXPEAPEAE@Z 00000001801c49fc f i libvcruntime:frame.obj
 0001:001c3a98       ?_CallMemberFunction1@@YAXQEAX00@Z 00000001801c4a98 f i libvcruntime:frame.obj
 0001:001c3aa4       ?_CallMemberFunction2@@YAXQEAX00H@Z 00000001801c4aa4 f i libvcruntime:frame.obj
 0001:001c3ab4       ?getStartStop@UWMap4@FH4@@QEAAXHHAEAViterator@12@0@Z 00000001801c4ab4 f i libvcruntime:frame.obj
 0001:001c3b84       ?getStateFromIterators@UWMap4@FH4@@SAHAEBViterator@12@H0H0@Z 00000001801c4b84 f i libvcruntime:frame.obj
 0001:001c3c34       ?what@exception@std@@UEBAPEBDXZ 00000001801c4c34 f i libvcruntime:frame.obj
 0001:001c3c60       _CallSettingFrame          00000001801c4c60 f   libvcruntime:handlers.obj
 0001:001c3cb0       _CallSettingFrame_LookupContinuationIndex 00000001801c4cb0 f   libvcruntime:handlers.obj
 0001:001c3ce0       _CallSettingFrame_NotifyContinuationAddr 00000001801c4ce0 f   libvcruntime:handlers.obj
 0001:001c3d10       _CallSettingFrameEncoded   00000001801c4d10 f   libvcruntime:handlers.obj
 0001:001c3d58       __std_exception_copy       00000001801c4d58 f   libvcruntime:std_exception.obj
 0001:001c3de8       __std_exception_destroy    00000001801c4de8 f   libvcruntime:std_exception.obj
 0001:001c3e10       _CxxThrowException         00000001801c4e10 f   libvcruntime:throw.obj
 0001:001c3ec0       cosf                       00000001801c4ec0 f   libucrt:cosf.obj
 0001:001c43c0       sinf                       00000001801c53c0 f   libucrt:sinf.obj
 0001:001c4ac0       tanf                       00000001801c5ac0 f   libucrt:tanf.obj
 0001:001c5134       __acrt_initialize_stdio    00000001801c6134 f   libucrt:_file.obj
 0001:001c5254       __acrt_iob_func            00000001801c6254 f   libucrt:_file.obj
 0001:001c5268       __acrt_uninitialize_stdio  00000001801c6268 f   libucrt:_file.obj
 0001:001c52c4       _lock_file                 00000001801c62c4 f   libucrt:_file.obj
 0001:001c52d0       _unlock_file               00000001801c62d0 f   libucrt:_file.obj
 0001:001c54cc       ??$ensure_buffer_is_big_enough@D@formatting_buffer@__crt_stdio_output@@QEAA_N_KAEAV__crt_cached_ptd_host@@@Z 00000001801c64cc f i libucrt:output.obj
 0001:001c5574       ??$parse_integer@KV?$c_string_character_source@D@__crt_strtox@@$0A@@__crt_strtox@@YAKAEAV__crt_cached_ptd_host@@V?$c_string_character_source@D@0@H_N@Z 00000001801c6574 f i libucrt:output.obj
 0001:001c5824       ??$type_case_integer@$07@?$output_processor@DV?$stream_output_adapter@D@__crt_stdio_output@@V?$standard_base@DV?$stream_output_adapter@D@__crt_stdio_output@@@2@@__crt_stdio_output@@AEAA_N_N@Z 00000001801c6824 f i libucrt:output.obj
 0001:001c5824       ??$type_case_integer@$07@?$output_processor@DV?$string_output_adapter@D@__crt_stdio_output@@V?$format_validation_base@DV?$string_output_adapter@D@__crt_stdio_output@@@2@@__crt_stdio_output@@AEAA_N_N@Z 00000001801c6824 f i libucrt:output.obj
 0001:001c5824       ??$type_case_integer@$07@?$output_processor@DV?$string_output_adapter@D@__crt_stdio_output@@V?$standard_base@DV?$string_output_adapter@D@__crt_stdio_output@@@2@@__crt_stdio_output@@AEAA_N_N@Z 00000001801c6824 f i libucrt:output.obj
 0001:001c5a0c       ??$type_case_integer@$09@?$output_processor@DV?$stream_output_adapter@D@__crt_stdio_output@@V?$standard_base@DV?$stream_output_adapter@D@__crt_stdio_output@@@2@@__crt_stdio_output@@AEAA_N_N@Z 00000001801c6a0c f i libucrt:output.obj
 0001:001c5a0c       ??$type_case_integer@$09@?$output_processor@DV?$string_output_adapter@D@__crt_stdio_output@@V?$format_validation_base@DV?$string_output_adapter@D@__crt_stdio_output@@@2@@__crt_stdio_output@@AEAA_N_N@Z 00000001801c6a0c f i libucrt:output.obj
 0001:001c5a0c       ??$type_case_integer@$09@?$output_processor@DV?$string_output_adapter@D@__crt_stdio_output@@V?$standard_base@DV?$string_output_adapter@D@__crt_stdio_output@@@2@@__crt_stdio_output@@AEAA_N_N@Z 00000001801c6a0c f i libucrt:output.obj
 0001:001c5bf4       ??$type_case_integer@$0BA@@?$output_processor@DV?$stream_output_adapter@D@__crt_stdio_output@@V?$standard_base@DV?$stream_output_adapter@D@__crt_stdio_output@@@2@@__crt_stdio_output@@AEAA_N_N@Z 00000001801c6bf4 f i libucrt:output.obj
 0001:001c5bf4       ??$type_case_integer@$0BA@@?$output_processor@DV?$string_output_adapter@D@__crt_stdio_output@@V?$format_validation_base@DV?$string_output_adapter@D@__crt_stdio_output@@@2@@__crt_stdio_output@@AEAA_N_N@Z 00000001801c6bf4 f i libucrt:output.obj
 0001:001c5bf4       ??$type_case_integer@$0BA@@?$output_processor@DV?$string_output_adapter@D@__crt_stdio_output@@V?$standard_base@DV?$string_output_adapter@D@__crt_stdio_output@@@2@@__crt_stdio_output@@AEAA_N_N@Z 00000001801c6bf4 f i libucrt:output.obj
 0001:001c5ddc       ??$type_case_integer_parse_into_buffer@I$07@?$output_processor@DV?$stream_output_adapter@D@__crt_stdio_output@@V?$standard_base@DV?$stream_output_adapter@D@__crt_stdio_output@@@2@@__crt_stdio_output@@AEAAXI_N@Z 00000001801c6ddc f i libucrt:output.obj
 0001:001c5ddc       ??$type_case_integer_parse_into_buffer@I$07@?$output_processor@DV?$string_output_adapter@D@__crt_stdio_output@@V?$format_validation_base@DV?$string_output_adapter@D@__crt_stdio_output@@@2@@__crt_stdio_output@@AEAAXI_N@Z 00000001801c6ddc f i libucrt:output.obj
 0001:001c5ddc       ??$type_case_integer_parse_into_buffer@I$07@?$output_processor@DV?$string_output_adapter@D@__crt_stdio_output@@V?$standard_base@DV?$string_output_adapter@D@__crt_stdio_output@@@2@@__crt_stdio_output@@AEAAXI_N@Z 00000001801c6ddc f i libucrt:output.obj
 0001:001c5e58       ??$type_case_integer_parse_into_buffer@I$09@?$output_processor@DV?$stream_output_adapter@D@__crt_stdio_output@@V?$standard_base@DV?$stream_output_adapter@D@__crt_stdio_output@@@2@@__crt_stdio_output@@AEAAXI_N@Z 00000001801c6e58 f i libucrt:output.obj
 0001:001c5e58       ??$type_case_integer_parse_into_buffer@I$09@?$output_processor@DV?$string_output_adapter@D@__crt_stdio_output@@V?$format_validation_base@DV?$string_output_adapter@D@__crt_stdio_output@@@2@@__crt_stdio_output@@AEAAXI_N@Z 00000001801c6e58 f i libucrt:output.obj
 0001:001c5e58       ??$type_case_integer_parse_into_buffer@I$09@?$output_processor@DV?$string_output_adapter@D@__crt_stdio_output@@V?$standard_base@DV?$string_output_adapter@D@__crt_stdio_output@@@2@@__crt_stdio_output@@AEAAXI_N@Z 00000001801c6e58 f i libucrt:output.obj
 0001:001c5f00       ??$type_case_integer_parse_into_buffer@I$0BA@@?$output_processor@DV?$stream_output_adapter@D@__crt_stdio_output@@V?$standard_base@DV?$stream_output_adapter@D@__crt_stdio_output@@@2@@__crt_stdio_output@@AEAAXI_N@Z 00000001801c6f00 f i libucrt:output.obj
 0001:001c5f00       ??$type_case_integer_parse_into_buffer@I$0BA@@?$output_processor@DV?$string_output_adapter@D@__crt_stdio_output@@V?$format_validation_base@DV?$string_output_adapter@D@__crt_stdio_output@@@2@@__crt_stdio_output@@AEAAXI_N@Z 00000001801c6f00 f i libucrt:output.obj
 0001:001c5f00       ??$type_case_integer_parse_into_buffer@I$0BA@@?$output_processor@DV?$string_output_adapter@D@__crt_stdio_output@@V?$standard_base@DV?$string_output_adapter@D@__crt_stdio_output@@@2@@__crt_stdio_output@@AEAAXI_N@Z 00000001801c6f00 f i libucrt:output.obj
 0001:001c5f8c       ??$type_case_integer_parse_into_buffer@_K$07@?$output_processor@DV?$stream_output_adapter@D@__crt_stdio_output@@V?$standard_base@DV?$stream_output_adapter@D@__crt_stdio_output@@@2@@__crt_stdio_output@@AEAAX_K_N@Z 00000001801c6f8c f i libucrt:output.obj
 0001:001c5f8c       ??$type_case_integer_parse_into_buffer@_K$07@?$output_processor@DV?$string_output_adapter@D@__crt_stdio_output@@V?$format_validation_base@DV?$string_output_adapter@D@__crt_stdio_output@@@2@@__crt_stdio_output@@AEAAX_K_N@Z 00000001801c6f8c f i libucrt:output.obj
 0001:001c5f8c       ??$type_case_integer_parse_into_buffer@_K$07@?$output_processor@DV?$string_output_adapter@D@__crt_stdio_output@@V?$standard_base@DV?$string_output_adapter@D@__crt_stdio_output@@@2@@__crt_stdio_output@@AEAAX_K_N@Z 00000001801c6f8c f i libucrt:output.obj
 0001:001c6008       ??$type_case_integer_parse_into_buffer@_K$09@?$output_processor@DV?$stream_output_adapter@D@__crt_stdio_output@@V?$standard_base@DV?$stream_output_adapter@D@__crt_stdio_output@@@2@@__crt_stdio_output@@AEAAX_K_N@Z 00000001801c7008 f i libucrt:output.obj
 0001:001c6008       ??$type_case_integer_parse_into_buffer@_K$09@?$output_processor@DV?$string_output_adapter@D@__crt_stdio_output@@V?$format_validation_base@DV?$string_output_adapter@D@__crt_stdio_output@@@2@@__crt_stdio_output@@AEAAX_K_N@Z 00000001801c7008 f i libucrt:output.obj
 0001:001c6008       ??$type_case_integer_parse_into_buffer@_K$09@?$output_processor@DV?$string_output_adapter@D@__crt_stdio_output@@V?$standard_base@DV?$string_output_adapter@D@__crt_stdio_output@@@2@@__crt_stdio_output@@AEAAX_K_N@Z 00000001801c7008 f i libucrt:output.obj
 0001:001c60b4       ??$type_case_integer_parse_into_buffer@_K$0BA@@?$output_processor@DV?$stream_output_adapter@D@__crt_stdio_output@@V?$standard_base@DV?$stream_output_adapter@D@__crt_stdio_output@@@2@@__crt_stdio_output@@AEAAX_K_N@Z 00000001801c70b4 f i libucrt:output.obj
 0001:001c60b4       ??$type_case_integer_parse_into_buffer@_K$0BA@@?$output_processor@DV?$string_output_adapter@D@__crt_stdio_output@@V?$format_validation_base@DV?$string_output_adapter@D@__crt_stdio_output@@@2@@__crt_stdio_output@@AEAAX_K_N@Z 00000001801c70b4 f i libucrt:output.obj
 0001:001c60b4       ??$type_case_integer_parse_into_buffer@_K$0BA@@?$output_processor@DV?$string_output_adapter@D@__crt_stdio_output@@V?$standard_base@DV?$string_output_adapter@D@__crt_stdio_output@@@2@@__crt_stdio_output@@AEAAX_K_N@Z 00000001801c70b4 f i libucrt:output.obj
 0001:001c625c       ?crop_zeroes@__crt_stdio_output@@YAXPEADQEAU__crt_locale_pointers@@@Z 00000001801c725c f i libucrt:output.obj
 0001:001c62d0       ?get_raw_ptd@__crt_cached_ptd_host@@QEAAPEAU__acrt_ptd@@XZ 00000001801c72d0 f i libucrt:output.obj
 0001:001c6338       ?parse_int_from_format_string@?$output_processor@DV?$stream_output_adapter@D@__crt_stdio_output@@V?$standard_base@DV?$stream_output_adapter@D@__crt_stdio_output@@@2@@__crt_stdio_output@@AEAA_NQEAH@Z 00000001801c7338 f i libucrt:output.obj
 0001:001c6338       ?parse_int_from_format_string@?$output_processor@DV?$string_output_adapter@D@__crt_stdio_output@@V?$format_validation_base@DV?$string_output_adapter@D@__crt_stdio_output@@@2@@__crt_stdio_output@@AEAA_NQEAH@Z 00000001801c7338 f i libucrt:output.obj
 0001:001c6338       ?parse_int_from_format_string@?$output_processor@DV?$string_output_adapter@D@__crt_stdio_output@@V?$standard_base@DV?$string_output_adapter@D@__crt_stdio_output@@@2@@__crt_stdio_output@@AEAA_NQEAH@Z 00000001801c7338 f i libucrt:output.obj
 0001:001c63c8       ?process@?$output_processor@DV?$stream_output_adapter@D@__crt_stdio_output@@V?$standard_base@DV?$stream_output_adapter@D@__crt_stdio_output@@@2@@__crt_stdio_output@@QEAAHXZ 00000001801c73c8 f i libucrt:output.obj
 0001:001c6754       ?process@?$output_processor@DV?$string_output_adapter@D@__crt_stdio_output@@V?$format_validation_base@DV?$string_output_adapter@D@__crt_stdio_output@@@2@@__crt_stdio_output@@QEAAHXZ 00000001801c7754 f i libucrt:output.obj
 0001:001c6ae4       ?process@?$output_processor@DV?$string_output_adapter@D@__crt_stdio_output@@V?$standard_base@DV?$string_output_adapter@D@__crt_stdio_output@@@2@@__crt_stdio_output@@QEAAHXZ 00000001801c7ae4 f i libucrt:output.obj
 0001:001c6e68       ?state_case_size@?$output_processor@DV?$stream_output_adapter@D@__crt_stdio_output@@V?$standard_base@DV?$stream_output_adapter@D@__crt_stdio_output@@@2@@__crt_stdio_output@@AEAA_NXZ 00000001801c7e68 f i libucrt:output.obj
 0001:001c6fec       ?state_case_size@?$output_processor@DV?$string_output_adapter@D@__crt_stdio_output@@V?$format_validation_base@DV?$string_output_adapter@D@__crt_stdio_output@@@2@@__crt_stdio_output@@AEAA_NXZ 00000001801c7fec f i libucrt:output.obj
 0001:001c6fec       ?state_case_size@?$output_processor@DV?$string_output_adapter@D@__crt_stdio_output@@V?$standard_base@DV?$string_output_adapter@D@__crt_stdio_output@@@2@@__crt_stdio_output@@AEAA_NXZ 00000001801c7fec f i libucrt:output.obj
 0001:001c7170       ?state_case_type@?$output_processor@DV?$stream_output_adapter@D@__crt_stdio_output@@V?$standard_base@DV?$stream_output_adapter@D@__crt_stdio_output@@@2@@__crt_stdio_output@@AEAA_NXZ 00000001801c8170 f i libucrt:output.obj
 0001:001c75a4       ?state_case_type@?$output_processor@DV?$string_output_adapter@D@__crt_stdio_output@@V?$format_validation_base@DV?$string_output_adapter@D@__crt_stdio_output@@@2@@__crt_stdio_output@@AEAA_NXZ 00000001801c85a4 f i libucrt:output.obj
 0001:001c75a4       ?state_case_type@?$output_processor@DV?$string_output_adapter@D@__crt_stdio_output@@V?$standard_base@DV?$string_output_adapter@D@__crt_stdio_output@@@2@@__crt_stdio_output@@AEAA_NXZ 00000001801c85a4 f i libucrt:output.obj
 0001:001c7970       ?type_case_Z@?$output_processor@DV?$stream_output_adapter@D@__crt_stdio_output@@V?$standard_base@DV?$stream_output_adapter@D@__crt_stdio_output@@@2@@__crt_stdio_output@@AEAA_NXZ 00000001801c8970 f i libucrt:output.obj
 0001:001c7970       ?type_case_Z@?$output_processor@DV?$string_output_adapter@D@__crt_stdio_output@@V?$format_validation_base@DV?$string_output_adapter@D@__crt_stdio_output@@@2@@__crt_stdio_output@@AEAA_NXZ 00000001801c8970 f i libucrt:output.obj
 0001:001c7970       ?type_case_Z@?$output_processor@DV?$string_output_adapter@D@__crt_stdio_output@@V?$standard_base@DV?$string_output_adapter@D@__crt_stdio_output@@@2@@__crt_stdio_output@@AEAA_NXZ 00000001801c8970 f i libucrt:output.obj
 0001:001c79e8       ?type_case_a@?$output_processor@DV?$stream_output_adapter@D@__crt_stdio_output@@V?$standard_base@DV?$stream_output_adapter@D@__crt_stdio_output@@@2@@__crt_stdio_output@@AEAA_NXZ 00000001801c89e8 f i libucrt:output.obj
 0001:001c79e8       ?type_case_a@?$output_processor@DV?$string_output_adapter@D@__crt_stdio_output@@V?$format_validation_base@DV?$string_output_adapter@D@__crt_stdio_output@@@2@@__crt_stdio_output@@AEAA_NXZ 00000001801c89e8 f i libucrt:output.obj
 0001:001c79e8       ?type_case_a@?$output_processor@DV?$string_output_adapter@D@__crt_stdio_output@@V?$standard_base@DV?$string_output_adapter@D@__crt_stdio_output@@@2@@__crt_stdio_output@@AEAA_NXZ 00000001801c89e8 f i libucrt:output.obj
 0001:001c7c34       ?type_case_c_tchar@?$output_processor@DV?$stream_output_adapter@D@__crt_stdio_output@@V?$standard_base@DV?$stream_output_adapter@D@__crt_stdio_output@@@2@@__crt_stdio_output@@AEAA_ND@Z 00000001801c8c34 f i libucrt:output.obj
 0001:001c7c34       ?type_case_c_tchar@?$output_processor@DV?$string_output_adapter@D@__crt_stdio_output@@V?$format_validation_base@DV?$string_output_adapter@D@__crt_stdio_output@@@2@@__crt_stdio_output@@AEAA_ND@Z 00000001801c8c34 f i libucrt:output.obj
 0001:001c7c34       ?type_case_c_tchar@?$output_processor@DV?$string_output_adapter@D@__crt_stdio_output@@V?$standard_base@DV?$string_output_adapter@D@__crt_stdio_output@@@2@@__crt_stdio_output@@AEAA_ND@Z 00000001801c8c34 f i libucrt:output.obj
 0001:001c7cf8       ?type_case_n@?$output_processor@DV?$stream_output_adapter@D@__crt_stdio_output@@V?$standard_base@DV?$stream_output_adapter@D@__crt_stdio_output@@@2@@__crt_stdio_output@@AEAA_NXZ 00000001801c8cf8 f i libucrt:output.obj
 0001:001c7cf8       ?type_case_n@?$output_processor@DV?$string_output_adapter@D@__crt_stdio_output@@V?$format_validation_base@DV?$string_output_adapter@D@__crt_stdio_output@@@2@@__crt_stdio_output@@AEAA_NXZ 00000001801c8cf8 f i libucrt:output.obj
 0001:001c7cf8       ?type_case_n@?$output_processor@DV?$string_output_adapter@D@__crt_stdio_output@@V?$standard_base@DV?$string_output_adapter@D@__crt_stdio_output@@@2@@__crt_stdio_output@@AEAA_NXZ 00000001801c8cf8 f i libucrt:output.obj
 0001:001c7dac       ?type_case_s@?$output_processor@DV?$stream_output_adapter@D@__crt_stdio_output@@V?$standard_base@DV?$stream_output_adapter@D@__crt_stdio_output@@@2@@__crt_stdio_output@@AEAA_NXZ 00000001801c8dac f i libucrt:output.obj
 0001:001c7dac       ?type_case_s@?$output_processor@DV?$string_output_adapter@D@__crt_stdio_output@@V?$format_validation_base@DV?$string_output_adapter@D@__crt_stdio_output@@@2@@__crt_stdio_output@@AEAA_NXZ 00000001801c8dac f i libucrt:output.obj
 0001:001c7dac       ?type_case_s@?$output_processor@DV?$string_output_adapter@D@__crt_stdio_output@@V?$standard_base@DV?$string_output_adapter@D@__crt_stdio_output@@@2@@__crt_stdio_output@@AEAA_NXZ 00000001801c8dac f i libucrt:output.obj
 0001:001c7e50       ?update_locale_slow@__crt_cached_ptd_host@@AEAAXXZ 00000001801c8e50 f i libucrt:output.obj
 0001:001c7ec8       ?validate_stream_is_ansi_if_required@?$__acrt_stdio_char_traits@D@@SA_NQEAU_iobuf@@@Z 00000001801c8ec8 f i libucrt:output.obj
 0001:001c7f64       ?write_string@?$string_output_adapter@D@__crt_stdio_output@@QEBAXQEBDHQEAHAEAV__crt_cached_ptd_host@@@Z 00000001801c8f64 f i libucrt:output.obj
 0001:001c8008       ?write_string_impl@?$output_adapter_common@DV?$stream_output_adapter@D@__crt_stdio_output@@@__crt_stdio_output@@IEBAXQEBDHQEAHAEAV__crt_cached_ptd_host@@@Z 00000001801c9008 f i libucrt:output.obj
 0001:001c80d4       __stdio_common_vfprintf    00000001801c90d4 f   libucrt:output.obj
 0001:001c81f8       __stdio_common_vsprintf    00000001801c91f8 f   libucrt:output.obj
 0001:001c844c       __stdio_common_vsprintf_s  00000001801c944c f   libucrt:output.obj
 0001:001c8560       _fpclass                   00000001801c9560 f   libucrt:ieeemisc.obj
 0001:001c85f0       powf                       00000001801c95f0 f   libucrt:powf.obj
 0001:001c94b8       atan2f                     00000001801ca4b8 f   libucrt:atan2f.obj
 0001:001c98b0       acosf                      00000001801ca8b0 f   libucrt:acosf.obj
 0001:001c9adc       free                       00000001801caadc f   libucrt:free.obj
 0001:001c9af0       _seh_filter_dll            00000001801caaf0 f   libucrt:exception_filter.obj
 0001:001c9b04       _seh_filter_exe            00000001801cab04 f   libucrt:exception_filter.obj
 0001:001c9f28       __acrt_initialize_thread_local_exit_callback 00000001801caf28 f   libucrt:exit.obj
 0001:001c9f30       _cexit                     00000001801caf30 f   libucrt:exit.obj
 0001:001c9f40       _exit                      00000001801caf40 f   libucrt:exit.obj
 0001:001c9f4c       _is_c_termination_complete 00000001801caf4c f   libucrt:exit.obj
 0001:001ca114       __acrt_allocate_buffer_for_argv 00000001801cb114 f   libucrt:argv_parsing.obj
 0001:001ca174       _configure_narrow_argv     00000001801cb174 f   libucrt:argv_parsing.obj
 0001:001ca4fc       __dcrt_uninitialize_environments_nolock 00000001801cb4fc f   libucrt:environment_initialization.obj
 0001:001ca540       _initialize_narrow_environment 00000001801cb540 f   libucrt:environment_initialization.obj
 0001:001ca890       _crt_atexit                00000001801cb890 f   libucrt:onexit.obj
 0001:001ca8a0       _execute_onexit_table      00000001801cb8a0 f   libucrt:onexit.obj
 0001:001ca8e4       _initialize_onexit_table   00000001801cb8e4 f   libucrt:onexit.obj
 0001:001ca90c       _register_onexit_function  00000001801cb90c f   libucrt:onexit.obj
 0001:001ca98c       __acrt_uninitialize_command_line 00000001801cb98c f   libucrt:argv_data.obj
 0001:001caa84       __acrt_initialize          00000001801cba84 f   libucrt:initialization.obj
 0001:001caa98       __acrt_thread_attach       00000001801cba98 f   libucrt:initialization.obj
 0001:001caaac       __acrt_thread_detach       00000001801cbaac f   libucrt:initialization.obj
 0001:001caabc       __acrt_uninitialize        00000001801cbabc f   libucrt:initialization.obj
 0001:001caaf4       __acrt_uninitialize_critical 00000001801cbaf4 f   libucrt:initialization.obj
 0001:001cab04       _initterm                  00000001801cbb04 f   libucrt:initterm.obj
 0001:001cab48       _initterm_e                00000001801cbb48 f   libucrt:initterm.obj
 0001:001cab90       terminate                  00000001801cbb90 f   libucrt:terminate.obj
 0001:001cabbc       abort                      00000001801cbbbc f   libucrt:abort.obj
 0001:001cac14       malloc                     00000001801cbc14 f   libucrt:malloc.obj
 0001:001cac1c       strcpy_s                   00000001801cbc1c f   libucrt:strcpy_s.obj
 0001:001cac7c       ??$parse_integer@KV?$c_string_character_source@D@__crt_strtox@@$00@__crt_strtox@@YAKAEAV__crt_cached_ptd_host@@V?$c_string_character_source@D@0@H_N@Z 00000001801cbc7c f i libucrt:atox.obj
 0001:001caf5c       _ischartype_l              00000001801cbf5c f i libucrt:atox.obj
 0001:001cafd4       atol                       00000001801cbfd4 f   libucrt:atox.obj
 0001:001cb0a0       strncmp                    00000001801cc0a0 f   libucrt:strncmp.obj
 0001:001cb120       calloc                     00000001801cc120 f   libucrt:calloc.obj
 0001:001cb128       wcsncmp                    00000001801cc128 f   libucrt:wcsncmp.obj
 0001:001cb160       __remainder_piby2d2f_forAsm 00000001801cc160 f   libucrt:remainder_piby2f_forasm.obj
 0001:001cb2b0       __remainder_piby2_fma3     00000001801cc2b0 f   libucrt:remainder_piby2_forfma3.obj
 0001:001cb4a0       __remainder_piby2_fma3_bdl 00000001801cc4a0 f   libucrt:remainder_piby2_forfma3.obj
 0001:001cb518       _cosf_special              00000001801cc518 f   libucrt:sincos_special.obj
 0001:001cb5b8       _sinf_special              00000001801cc5b8 f   libucrt:sincos_special.obj
 0001:001cb5cc       _tanf_special              00000001801cc5cc f   libucrt:sincos_special.obj
 0001:001cb5e0       _clrfp                     00000001801cc5e0 f   libucrt:fpctrl.obj
 0001:001cb600       _ctrlfp                    00000001801cc600 f   libucrt:fpctrl.obj
 0001:001cb67c       _set_statfp                00000001801cc67c f   libucrt:fpctrl.obj
 0001:001cb69c       _statfp                    00000001801cc69c f   libucrt:fpctrl.obj
 0001:001cb6b0       __acrt_initialize_fma3     00000001801cc6b0 f   libucrt:fma3_available.obj
 0001:001cb720       __remainder_piby2d2f_forC  00000001801cc720 f   libucrt:remainder_piby2f_forc.obj
 0001:001cb8ac       ?get_raw_ptd_noexit@__crt_cached_ptd_host@@QEAAPEAU__acrt_ptd@@XZ 00000001801cc8ac f i libucrt:invalid_parameter.obj
 0001:001cb918       ?value@?$dual_state_global@P6AXPEB_W00I_K@Z@__crt_state_management@@QEAAAEAP6AXPEB_W00I_K@ZAEAV__crt_cached_ptd_host@@@Z 00000001801cc918 f i libucrt:invalid_parameter.obj
 0001:001cb964       __acrt_call_reportfault    00000001801cc964 f   libucrt:invalid_parameter.obj
 0001:001cbac0       __acrt_initialize_invalid_parameter_handler 00000001801ccac0 f   libucrt:invalid_parameter.obj
 0001:001cbac8       _invalid_parameter         00000001801ccac8 f   libucrt:invalid_parameter.obj
 0001:001cbb64       _invalid_parameter_internal 00000001801ccb64 f   libucrt:invalid_parameter.obj
 0001:001cbc34       _invalid_parameter_noinfo  00000001801ccc34 f   libucrt:invalid_parameter.obj
 0001:001cbc54       _invoke_watson             00000001801ccc54 f   libucrt:invalid_parameter.obj
 0001:001cbc9c       __acrt_errno_from_os_error 00000001801ccc9c f   libucrt:errno.obj
 0001:001cbce4       __acrt_errno_map_os_error  00000001801ccce4 f   libucrt:errno.obj
 0001:001cbd2c       __acrt_errno_map_os_error_ptd 00000001801ccd2c f   libucrt:errno.obj
 0001:001cbd50       __doserrno                 00000001801ccd50 f   libucrt:errno.obj
 0001:001cbd70       _errno                     00000001801ccd70 f   libucrt:errno.obj
 0001:001cbd90       _calloc_base               00000001801ccd90 f   libucrt:calloc_base.obj
 0001:001cbe08       _free_base                 00000001801cce08 f   libucrt:free_base.obj
 0001:001cc004       __acrt_AppPolicyGetProcessTerminationMethodInternal 00000001801cd004 f   libucrt:winapi_thunks.obj
 0001:001cc05c       __acrt_AreFileApisANSI     00000001801cd05c f   libucrt:winapi_thunks.obj
 0001:001cc0a0       __acrt_FlsAlloc            00000001801cd0a0 f   libucrt:winapi_thunks.obj
 0001:001cc0a8       __acrt_FlsFree             00000001801cd0a8 f   libucrt:winapi_thunks.obj
 0001:001cc0b0       __acrt_FlsGetValue         00000001801cd0b0 f   libucrt:winapi_thunks.obj
 0001:001cc0b8       __acrt_FlsSetValue         00000001801cd0b8 f   libucrt:winapi_thunks.obj
 0001:001cc0c0       __acrt_InitializeCriticalSectionEx 00000001801cd0c0 f   libucrt:winapi_thunks.obj
 0001:001cc130       __acrt_LCMapStringEx       00000001801cd130 f   libucrt:winapi_thunks.obj
 0001:001cc21c       __acrt_LocaleNameToLCID    00000001801cd21c f   libucrt:winapi_thunks.obj
 0001:001cc27c       __acrt_initialize_winapi_thunks 00000001801cd27c f   libucrt:winapi_thunks.obj
 0001:001cc2a0       __acrt_uninitialize_winapi_thunks 00000001801cd2a0 f   libucrt:winapi_thunks.obj
 0001:001cc2e4       _fcloseall                 00000001801cd2e4 f   libucrt:closeall.obj
 0001:001cc574       __acrt_stdio_flush_nolock  00000001801cd574 f   libucrt:fflush.obj
 0001:001cc600       _fflush_nolock             00000001801cd600 f   libucrt:fflush.obj
 0001:001cc6d4       _flushall                  00000001801cd6d4 f   libucrt:fflush.obj
 0001:001cc6dc       __acrt_stdio_free_buffer_nolock 00000001801cd6dc f   libucrt:_freebuf.obj
 0001:001cc914       __acrt_initialize_lowio    00000001801cd914 f   libucrt:ioinit.obj
 0001:001cc950       __acrt_uninitialize_lowio  00000001801cd950 f   libucrt:ioinit.obj
 0001:001cc990       _malloc_base               00000001801cd990 f   libucrt:malloc_base.obj
 0001:001cc9f0       strnlen                    00000001801cd9f0 f   libucrt:strnlen.obj
 0001:001ccb40       wcsnlen                    00000001801cdb40 f   libucrt:strnlen.obj
 0001:001ccd18       __acrt_update_locale_info  00000001801cdd18 f   libucrt:locale_update.obj
 0001:001ccd4c       __acrt_update_locale_info_explicit 00000001801cdd4c f   libucrt:locale_update.obj
 0001:001ccd84       __acrt_update_multibyte_info 00000001801cdd84 f   libucrt:locale_update.obj
 0001:001ccdb8       __acrt_update_multibyte_info_explicit 00000001801cddb8 f   libucrt:locale_update.obj
 0001:001cd920       __acrt_fp_format           00000001801ce920 f   libucrt:cvt.obj
 0001:001cdc08       _wctomb_internal           00000001801cec08 f   libucrt:wctomb.obj
 0001:001cddb8       _mbtowc_internal           00000001801cedb8 f   libucrt:mbtowc.obj
 0001:001cdf30       _fileno                    00000001801cef30 f   libucrt:fileno.obj
 0001:001cdf58       _get_printf_count_output   00000001801cef58 f   libucrt:printf_count_output.obj
 0001:001cdf70       _fputc_nolock_internal     00000001801cef70 f   libucrt:fputc.obj
 0001:001cdf88       __acrt_should_use_temporary_buffer 00000001801cef88 f   libucrt:_sftbuf.obj
 0001:001cdfd0       __acrt_stdio_begin_temporary_buffering_nolock 00000001801cefd0 f   libucrt:_sftbuf.obj
 0001:001ce098       __acrt_stdio_end_temporary_buffering_nolock 00000001801cf098 f   libucrt:_sftbuf.obj
 0001:001ce44c       __acrt_freeptd             00000001801cf44c f   libucrt:per_thread_data.obj
 0001:001ce490       __acrt_getptd              00000001801cf490 f   libucrt:per_thread_data.obj
 0001:001ce564       __acrt_getptd_head         00000001801cf564 f   libucrt:per_thread_data.obj
 0001:001ce608       __acrt_getptd_noexit       00000001801cf608 f   libucrt:per_thread_data.obj
 0001:001ce6d0       __acrt_getptd_noexit_explicit 00000001801cf6d0 f   libucrt:per_thread_data.obj
 0001:001ce790       __acrt_initialize_ptd      00000001801cf790 f   libucrt:per_thread_data.obj
 0001:001ce7cc       __acrt_uninitialize_ptd    00000001801cf7cc f   libucrt:per_thread_data.obj
 0001:001ce860       __acrt_set_locale_changed  00000001801cf860 f   libucrt:wsetlocale.obj
 0001:001ce86c       __acrt_uninitialize_locale 00000001801cf86c f   libucrt:wsetlocale.obj
 0001:001ce9c0       _handle_error              00000001801cf9c0 f   libucrt:libm_error.obj
 0001:001ceae8       _handle_errorf             00000001801cfae8 f   libucrt:libm_error.obj
 0001:001cec1c       _handle_nan                00000001801cfc1c f   libucrt:libm_error.obj
 0001:001cec38       _handle_nanf               00000001801cfc38 f   libucrt:libm_error.obj
 0001:001cec50       _powf_special              00000001801cfc50 f   libucrt:pow_special.obj
 0001:001ceda0       __acrt_initialize_locks    00000001801cfda0 f   libucrt:locks.obj
 0001:001cede8       __acrt_lock                00000001801cfde8 f   libucrt:locks.obj
 0001:001cee04       __acrt_uninitialize_locks  00000001801cfe04 f   libucrt:locks.obj
 0001:001cee3c       __acrt_unlock              00000001801cfe3c f   libucrt:locks.obj
 0001:001cee58       __acrt_get_process_end_policy 00000001801cfe58 f   libucrt:win_policies.obj
 0001:001ceea8       ??$__acrt_convert_wcs_mbs_cp@D_WV<lambda_7c9dea7b4ca7285d2cdb541a38da6275>@@U__crt_win32_buffer_internal_dynamic_resizing@@@@YAHQEBDAEAV?$__crt_win32_buffer@_WU__crt_win32_buffer_internal_dynamic_resizing@@@@AEBV<lambda_7c9dea7b4ca7285d2cdb541a38da6275>@@I@Z 00000001801cfea8 f i libucrt:argv_wildcards.obj
 0001:001cf024       ??$__acrt_convert_wcs_mbs_cp@_WDV<lambda_d8593a27d1aa8c02be35c86a17d324c4>@@U__crt_win32_buffer_internal_dynamic_resizing@@@@YAHQEB_WAEAV?$__crt_win32_buffer@DU__crt_win32_buffer_internal_dynamic_resizing@@@@AEBV<lambda_d8593a27d1aa8c02be35c86a17d324c4>@@I@Z 00000001801d0024 f i libucrt:argv_wildcards.obj
 0001:001cf8cc       ??0_LocaleUpdate@@QEAA@QEAU__crt_locale_pointers@@@Z 00000001801d08cc f i libucrt:argv_wildcards.obj
 0001:001cf968       __acrt_expand_narrow_argv_wildcards 00000001801d0968 f   libucrt:argv_wildcards.obj
 0001:001cf970       ??$__acrt_convert_wcs_mbs_cp@_WDV<lambda_f788ae46380686e8b737efdd8c720d07>@@U__crt_win32_buffer_no_resizing@@@@YAHQEB_WAEAV?$__crt_win32_buffer@DU__crt_win32_buffer_no_resizing@@@@AEBV<lambda_f788ae46380686e8b737efdd8c720d07>@@I@Z 00000001801d0970 f i libucrt:getmodulefilenamea.obj
 0001:001cfa8c       __acrt_GetModuleFileNameA  00000001801d0a8c f   libucrt:getmodulefilenamea.obj
 0001:001d03a8       __acrt_initialize_multibyte 00000001801d13a8 f   libucrt:mbctype.obj
 0001:001d0408       __acrt_update_thread_multibyte_data 00000001801d1408 f   libucrt:mbctype.obj
 0001:001d0424       _setmbcp_nolock            00000001801d1424 f   libucrt:mbctype.obj
 0001:001d0758       _ismbblead                 00000001801d1758 f   libucrt:ismbbyte.obj
 0001:001d076c       __acrt_initialize_command_line 00000001801d176c f   libucrt:argv_data.obj
 0001:001d0794       __acrt_MultiByteToWideChar 00000001801d1794 f   libucrt:multibytetowidechar.obj
 0001:001d07f0       __acrt_WideCharToMultiByte 00000001801d17f0 f   libucrt:widechartomultibyte.obj
 0001:001d08a0       __dcrt_get_narrow_environment_from_os 00000001801d18a0 f   libucrt:get_environment_from_os.obj
 0001:001d09b0       _recalloc_base             00000001801d19b0 f   libucrt:recalloc.obj
 0001:001d0a48       __acrt_initialize_heap     00000001801d1a48 f   libucrt:heap_handle.obj
 0001:001d0a64       __acrt_uninitialize_heap   00000001801d1a64 f   libucrt:heap_handle.obj
 0001:001d0a70       __acrt_execute_initializers 00000001801d1a70 f   libucrt:shared_initialization.obj
 0001:001d0b04       __acrt_execute_uninitializers 00000001801d1b04 f   libucrt:shared_initialization.obj
 0001:001d0b4c       __acrt_initialize_new_handler 00000001801d1b4c f   libucrt:new_handler.obj
 0001:001d0b54       _callnewh                  00000001801d1b54 f   libucrt:new_handler.obj
 0001:001d0b90       _query_new_handler         00000001801d1b90 f   libucrt:new_handler.obj
 0001:001d0c0c       __acrt_get_sigabrt_handler 00000001801d1c0c f   libucrt:signal.obj
 0001:001d0c3c       __acrt_initialize_signal_handlers 00000001801d1c3c f   libucrt:signal.obj
 0001:001d0c5c       raise                      00000001801d1c5c f   libucrt:signal.obj
 0001:001d0edc       __acrt_has_user_matherr    00000001801d1edc f   libucrt:matherr.obj
 0001:001d0efc       __acrt_initialize_user_matherr 00000001801d1efc f   libucrt:matherr.obj
 0001:001d0f04       __acrt_invoke_user_matherr 00000001801d1f04 f   libucrt:matherr.obj
 0001:001d0f3c       __pctype_func              00000001801d1f3c f   libucrt:ctype.obj
 0001:001d0f6c       _isctype_l                 00000001801d1f6c f   libucrt:isctype.obj
 0001:001d1090       _get_fpsr                  00000001801d2090 f   libucrt:fpsr.obj
 0001:001d10a0       _set_fpsr                  00000001801d20a0 f   libucrt:fpsr.obj
 0001:001d10aa       _fclrf                     00000001801d20aa f   libucrt:fpsr.obj
 0001:001d10be       _frnd                      00000001801d20be f   libucrt:fpsr.obj
 0001:001d10e0       _query_new_mode            00000001801d20e0 f   libucrt:new_mode.obj
 0001:001d10e8       __acrt_DownlevelLocaleNameToLCID 00000001801d20e8 f   libucrt:lcidtoname_downlevel.obj
 0001:001d12b0       fclose                     00000001801d22b0 f   libucrt:fclose.obj
 0001:001d13d4       _commit                    00000001801d23d4 f   libucrt:commit.obj
 0001:001d1c84       _write_internal            00000001801d2c84 f   libucrt:write.obj
 0001:001d1dac       _write_nolock              00000001801d2dac f   libucrt:write.obj
 0001:001d20bc       __acrt_lowio_create_handle_array 00000001801d30bc f   libucrt:osfinfo.obj
 0001:001d2164       __acrt_lowio_destroy_handle_array 00000001801d3164 f   libucrt:osfinfo.obj
 0001:001d21b4       __acrt_lowio_ensure_fh_exists 00000001801d31b4 f   libucrt:osfinfo.obj
 0001:001d225c       __acrt_lowio_lock_fh       00000001801d325c f   libucrt:osfinfo.obj
 0001:001d2284       __acrt_lowio_unlock_fh     00000001801d3284 f   libucrt:osfinfo.obj
 0001:001d22ac       _free_osfhnd               00000001801d32ac f   libucrt:osfinfo.obj
 0001:001d2368       _get_osfhandle             00000001801d3368 f   libucrt:osfinfo.obj
 0001:001d23e0       __acrt_add_locale_ref      00000001801d33e0 f   libucrt:locale_refcounting.obj
 0001:001d246c       __acrt_free_locale         00000001801d346c f   libucrt:locale_refcounting.obj
 0001:001d25e4       __acrt_locale_add_lc_time_reference 00000001801d35e4 f   libucrt:locale_refcounting.obj
 0001:001d260c       __acrt_locale_free_lc_time_if_unreferenced 00000001801d360c f   libucrt:locale_refcounting.obj
 0001:001d2644       __acrt_locale_release_lc_time_reference 00000001801d3644 f   libucrt:locale_refcounting.obj
 0001:001d266c       __acrt_release_locale_ref  00000001801d366c f   libucrt:locale_refcounting.obj
 0001:001d2714       __acrt_update_thread_locale_data 00000001801d3714 f   libucrt:locale_refcounting.obj
 0001:001d2784       _updatetlocinfoEx_nolock   00000001801d3784 f   libucrt:locale_refcounting.obj
 0001:001d27ec       __acrt_fp_strflt_to_string 00000001801d37ec f   libucrt:_fptostr.obj
 0001:001d2970       ?divide@__crt_strtox@@YA_KAEAUbig_integer@1@AEBU21@@Z 00000001801d3970 f i libucrt:cfout.obj
 0001:001d2dfc       __acrt_fltout              00000001801d3dfc f   libucrt:cfout.obj
 0001:001d40c4       fegetround                 00000001801d50c4 f   libucrt:fegetround.obj
 0001:001d40d8       ?__c32rtomb_utf8@__crt_mbstring@@YA_KPEAD_UPEAU_Mbstatet@@AEAV__crt_cached_ptd_host@@@Z 00000001801d50d8 f   libucrt:c32rtomb.obj
 0001:001d417c       ?__mbrtowc_utf8@__crt_mbstring@@YA_KPEA_WPEBD_KPEAU_Mbstatet@@AEAV__crt_cached_ptd_host@@@Z 00000001801d517c f   libucrt:mbrtowc.obj
 0001:001d41c0       ?__mbsrtowcs_utf8@__crt_mbstring@@YA_KPEA_WPEAPEBD_KPEAU_Mbstatet@@AEAV__crt_cached_ptd_host@@@Z 00000001801d51c0 f   libucrt:mbrtowc.obj
 0001:001d44d8       __acrt_stdio_flush_and_write_narrow_nolock 00000001801d54d8 f   libucrt:_flsbuf.obj
 0001:001d459c       _isatty                    00000001801d559c f   libucrt:isatty.obj
 0001:001d45fc       __acrt_locale_free_monetary 00000001801d55fc f   libucrt:initmon.obj
 0001:001d4708       __acrt_locale_free_numeric 00000001801d5708 f   libucrt:initnum.obj
 0001:001d47a8       __acrt_locale_free_time    00000001801d57a8 f   libucrt:inittime.obj
 0001:001d48b0       __acrt_GetStringTypeA      00000001801d58b0 f   libucrt:getstringtypea.obj
 0001:001d4a4c       _raise_exc                 00000001801d5a4c f   libucrt:fpexcept.obj
 0001:001d4a74       _raise_exc_ex              00000001801d5a74 f   libucrt:fpexcept.obj
 0001:001d4d84       _raise_excf                00000001801d5d84 f   libucrt:fpexcept.obj
 0001:001d4db0       _set_errno_from_matherr    00000001801d5db0 f   libucrt:fpexcept.obj
 0001:001d4de0       qsort                      00000001801d5de0 f   libucrt:qsort.obj
 0001:001d51f0       strncpy_s                  00000001801d61f0 f   libucrt:strncpy_s.obj
 0001:001d5380       strpbrk                    00000001801d6380 f   libucrt:strpbrk.obj
 0001:001d5748       _mbsdec                    00000001801d6748 f   libucrt:mbsdec.obj
 0001:001d5750       _mbsdec_l                  00000001801d6750 f   libucrt:mbsdec.obj
 0001:001d5b04       __acrt_LCMapStringA        00000001801d6b04 f   libucrt:lcmapstringa.obj
 0001:001d5bb4       _msize_base                00000001801d6bb4 f   libucrt:msize.obj
 0001:001d5bf0       _realloc_base              00000001801d6bf0 f   libucrt:realloc_base.obj
 0001:001d5c6c       __ascii_wcsnicmp           00000001801d6c6c f   libucrt:wcsnicmp.obj
 0001:001d5d30       _close_internal            00000001801d6d30 f   libucrt:close.obj
 0001:001d5df4       _close_nolock_internal     00000001801d6df4 f   libucrt:close.obj
 0001:001d5ec4       ?__acrt_stdio_free_stream@@YAXV__crt_stdio_stream@@@Z 00000001801d6ec4 f   libucrt:stream.obj
 0001:001d60b4       _lseeki64                  00000001801d70b4 f   libucrt:lseek.obj
 0001:001d6150       _lseeki64_nolock_internal  00000001801d7150 f   libucrt:lseek.obj
 0001:001d6158       _putwch_nolock             00000001801d7158 f   libucrt:putwch.obj
 0001:001d6194       _query_app_type            00000001801d7194 f   libucrt:report_runtime_error.obj
 0001:001d619c       _controlfp_s               00000001801d719c f   libucrt:contrlfp.obj
 0001:001d6200       fegetenv                   00000001801d7200 f   libucrt:fegetenv.obj
 0001:001d6220       fesetenv                   00000001801d7220 f   libucrt:fesetenv.obj
 0001:001d626c       feholdexcept               00000001801d726c f   libucrt:feholdexcept.obj
 0001:001d62bc       ceil                       00000001801d72bc f   libucrt:ceil.obj
 0001:001d6380       log10                      00000001801d7380 f   libucrt:log10.obj
 0001:001d692c       __acrt_fenv_get_common_round_control 00000001801d792c f   libucrt:_fenvutils.obj
 0001:001d6938       __acrt_fenv_get_control    00000001801d7938 f   libucrt:_fenvutils.obj
 0001:001d6a1c       __acrt_fenv_get_status     00000001801d7a1c f   libucrt:_fenvutils.obj
 0001:001d6a74       __acrt_fenv_set_control    00000001801d7a74 f   libucrt:_fenvutils.obj
 0001:001d6bb0       __acrt_fenv_set_status     00000001801d7bb0 f   libucrt:_fenvutils.obj
 0001:001d6c24       ?reset_and_return@__crt_mbstring@@YA_K_KPEAU_Mbstatet@@@Z 00000001801d7c24 f   libucrt:common_utf8.obj
 0001:001d6c2c       ?return_illegal_sequence@__crt_mbstring@@YA_KPEAU_Mbstatet@@AEAV__crt_cached_ptd_host@@@Z 00000001801d7c2c f   libucrt:common_utf8.obj
 0001:001d6c40       ?__mbrtoc32_utf8@__crt_mbstring@@YA_KPEA_UPEBD_KPEAU_Mbstatet@@AEAV__crt_cached_ptd_host@@@Z 00000001801d7c40 f   libucrt:mbrtoc32.obj
 0001:001d6e1c       __acrt_stdio_allocate_buffer_nolock 00000001801d7e1c f   libucrt:_getbuf.obj
 0001:001d6e88       __strncnt                  00000001801d7e88 f   libucrt:strncnt.obj
 0001:001d6ea0       __dcrt_lowio_ensure_console_output_initialized 00000001801d7ea0 f   libucrt:initcon.obj
 0001:001d6ef4       __dcrt_terminate_console_output 00000001801d7ef4 f   libucrt:initcon.obj
 0001:001d6f10       __dcrt_write_console       00000001801d7f10 f   libucrt:initcon.obj
 0001:001d6fd0       _clearfp                   00000001801d7fd0 f   libucrt:ieee.obj
 0001:001d7040       _control87                 00000001801d8040 f   libucrt:ieee.obj
 0001:001d7310       _log10_special             00000001801d8310 f   libucrt:log_special.obj
 0001:001d73d0       _FindPESection             00000001801d83d0 f   LIBCMT:pesect.obj
 0001:001d7420       _IsNonwritableInCurrentImage 00000001801d8420 f   LIBCMT:pesect.obj
 0001:001d7470       _ValidateImageBase         00000001801d8470 f   LIBCMT:pesect.obj
 0001:001d749c       __GSHandlerCheck           00000001801d849c f   LIBCMT:gshandler.obj
 0001:001d74bc       __GSHandlerCheckCommon     00000001801d84bc f   LIBCMT:gshandler.obj
 0001:001d7530       __security_check_cookie    00000001801d8530 f   LIBCMT:amdsecgs.obj
 0001:001d7550       __GSHandlerCheck_SEH       00000001801d8550 f   LIBCMT:gshandlerseh.obj
 0001:001d75d8       __raise_securityfailure    00000001801d85d8 f   LIBCMT:gs_report.obj
 0001:001d760c       __report_gsfailure         00000001801d860c f   LIBCMT:gs_report.obj
 0001:001d76e0       __report_rangecheckfailure 00000001801d86e0 f   LIBCMT:gs_report.obj
 0001:001d76f4       __report_securityfailure   00000001801d86f4 f   LIBCMT:gs_report.obj
 0001:001d7874       __GSHandlerCheck_EH        00000001801d8874 f   LIBCMT:gshandlereh.obj
 0001:001d78f4       __C_specific_handler_noexcept 00000001801d88f4 f   libvcruntime:chandler_noexcept.obj
 0001:001d7940       strrchr                    00000001801d8940 f   libvcruntime:strrchr.obj
 0001:001d7a90       memcmp                     00000001801d8a90 f   libvcruntime:memcmp.obj
 0001:001d7b70       _guard_dispatch_icall_nop  00000001801d8b70 f   LIBCMT:guard_dispatch.obj
 0001:001d7b90       _guard_xfg_dispatch_icall_nop 00000001801d8b90 f   LIBCMT:guard_xfg_dispatch.obj
 0002:00000000       __imp_GetLastError         00000001801da000     kernel32:KERNEL32.dll
 0002:00000008       __imp_FreeLibrary          00000001801da008     kernel32:KERNEL32.dll
 0002:00000010       __imp_GetProcAddress       00000001801da010     kernel32:KERNEL32.dll
 0002:00000018       __imp_LoadLibraryA         00000001801da018     kernel32:KERNEL32.dll
 0002:00000020       __imp_RaiseException       00000001801da020     kernel32:KERNEL32.dll
 0002:00000028       __imp_GetSystemInfo        00000001801da028     kernel32:KERNEL32.dll
 0002:00000030       __imp_VirtualProtect       00000001801da030     kernel32:KERNEL32.dll
 0002:00000038       __imp_VirtualQuery         00000001801da038     kernel32:KERNEL32.dll
 0002:00000040       __imp_GetModuleHandleW     00000001801da040     kernel32:KERNEL32.dll
 0002:00000048       __imp_LoadLibraryExA       00000001801da048     kernel32:KERNEL32.dll
 0002:00000050       __imp_InitializeSListHead  00000001801da050     kernel32:KERNEL32.dll
 0002:00000058       __imp_RtlCaptureContext    00000001801da058     kernel32:KERNEL32.dll
 0002:00000060       __imp_RtlLookupFunctionEntry 00000001801da060     kernel32:KERNEL32.dll
 0002:00000068       __imp_RtlVirtualUnwind     00000001801da068     kernel32:KERNEL32.dll
 0002:00000070       __imp_IsDebuggerPresent    00000001801da070     kernel32:KERNEL32.dll
 0002:00000078       __imp_UnhandledExceptionFilter 00000001801da078     kernel32:KERNEL32.dll
 0002:00000080       __imp_SetUnhandledExceptionFilter 00000001801da080     kernel32:KERNEL32.dll
 0002:00000088       __imp_GetStartupInfoW      00000001801da088     kernel32:KERNEL32.dll
 0002:00000090       __imp_IsProcessorFeaturePresent 00000001801da090     kernel32:KERNEL32.dll
 0002:00000098       __imp_QueryPerformanceCounter 00000001801da098     kernel32:KERNEL32.dll
 0002:000000a0       __imp_GetCurrentProcessId  00000001801da0a0     kernel32:KERNEL32.dll
 0002:000000a8       __imp_GetCurrentThreadId   00000001801da0a8     kernel32:KERNEL32.dll
 0002:000000b0       __imp_GetSystemTimeAsFileTime 00000001801da0b0     kernel32:KERNEL32.dll
 0002:000000b8       __imp_InterlockedPushEntrySList 00000001801da0b8     kernel32:KERNEL32.dll
 0002:000000c0       __imp_InterlockedFlushSList 00000001801da0c0     kernel32:KERNEL32.dll
 0002:000000c8       __imp_RtlUnwindEx          00000001801da0c8     kernel32:KERNEL32.dll
 0002:000000d0       __imp_SetLastError         00000001801da0d0     kernel32:KERNEL32.dll
 0002:000000d8       __imp_EnterCriticalSection 00000001801da0d8     kernel32:KERNEL32.dll
 0002:000000e0       __imp_LeaveCriticalSection 00000001801da0e0     kernel32:KERNEL32.dll
 0002:000000e8       __imp_DeleteCriticalSection 00000001801da0e8     kernel32:KERNEL32.dll
 0002:000000f0       __imp_InitializeCriticalSectionAndSpinCount 00000001801da0f0     kernel32:KERNEL32.dll
 0002:000000f8       __imp_TlsAlloc             00000001801da0f8     kernel32:KERNEL32.dll
 0002:00000100       __imp_TlsGetValue          00000001801da100     kernel32:KERNEL32.dll
 0002:00000108       __imp_TlsSetValue          00000001801da108     kernel32:KERNEL32.dll
 0002:00000110       __imp_TlsFree              00000001801da110     kernel32:KERNEL32.dll
 0002:00000118       __imp_LoadLibraryExW       00000001801da118     kernel32:KERNEL32.dll
 0002:00000120       __imp_EncodePointer        00000001801da120     kernel32:KERNEL32.dll
 0002:00000128       __imp_RtlPcToFileHeader    00000001801da128     kernel32:KERNEL32.dll
 0002:00000130       __imp_GetCurrentProcess    00000001801da130     kernel32:KERNEL32.dll
 0002:00000138       __imp_ExitProcess          00000001801da138     kernel32:KERNEL32.dll
 0002:00000140       __imp_TerminateProcess     00000001801da140     kernel32:KERNEL32.dll
 0002:00000148       __imp_GetModuleHandleExW   00000001801da148     kernel32:KERNEL32.dll
 0002:00000150       __imp_GetModuleFileNameW   00000001801da150     kernel32:KERNEL32.dll
 0002:00000158       __imp_HeapAlloc            00000001801da158     kernel32:KERNEL32.dll
 0002:00000160       __imp_HeapFree             00000001801da160     kernel32:KERNEL32.dll
 0002:00000168       __imp_FlsAlloc             00000001801da168     kernel32:KERNEL32.dll
 0002:00000170       __imp_FlsGetValue          00000001801da170     kernel32:KERNEL32.dll
 0002:00000178       __imp_FlsSetValue          00000001801da178     kernel32:KERNEL32.dll
 0002:00000180       __imp_FlsFree              00000001801da180     kernel32:KERNEL32.dll
 0002:00000188       __imp_LCMapStringW         00000001801da188     kernel32:KERNEL32.dll
 0002:00000190       __imp_GetStdHandle         00000001801da190     kernel32:KERNEL32.dll
 0002:00000198       __imp_GetFileType          00000001801da198     kernel32:KERNEL32.dll
 0002:000001a0       __imp_FindClose            00000001801da1a0     kernel32:KERNEL32.dll
 0002:000001a8       __imp_FindFirstFileExW     00000001801da1a8     kernel32:KERNEL32.dll
 0002:000001b0       __imp_FindNextFileW        00000001801da1b0     kernel32:KERNEL32.dll
 0002:000001b8       __imp_IsValidCodePage      00000001801da1b8     kernel32:KERNEL32.dll
 0002:000001c0       __imp_GetACP               00000001801da1c0     kernel32:KERNEL32.dll
 0002:000001c8       __imp_GetOEMCP             00000001801da1c8     kernel32:KERNEL32.dll
 0002:000001d0       __imp_GetCPInfo            00000001801da1d0     kernel32:KERNEL32.dll
 0002:000001d8       __imp_GetCommandLineA      00000001801da1d8     kernel32:KERNEL32.dll
 0002:000001e0       __imp_GetCommandLineW      00000001801da1e0     kernel32:KERNEL32.dll
 0002:000001e8       __imp_MultiByteToWideChar  00000001801da1e8     kernel32:KERNEL32.dll
 0002:000001f0       __imp_WideCharToMultiByte  00000001801da1f0     kernel32:KERNEL32.dll
 0002:000001f8       __imp_GetEnvironmentStringsW 00000001801da1f8     kernel32:KERNEL32.dll
 0002:00000200       __imp_FreeEnvironmentStringsW 00000001801da200     kernel32:KERNEL32.dll
 0002:00000208       __imp_GetProcessHeap       00000001801da208     kernel32:KERNEL32.dll
 0002:00000210       __imp_FlushFileBuffers     00000001801da210     kernel32:KERNEL32.dll
 0002:00000218       __imp_WriteFile            00000001801da218     kernel32:KERNEL32.dll
 0002:00000220       __imp_GetConsoleOutputCP   00000001801da220     kernel32:KERNEL32.dll
 0002:00000228       __imp_GetConsoleMode       00000001801da228     kernel32:KERNEL32.dll
 0002:00000230       __imp_SetStdHandle         00000001801da230     kernel32:KERNEL32.dll
 0002:00000238       __imp_GetFileSizeEx        00000001801da238     kernel32:KERNEL32.dll
 0002:00000240       __imp_SetFilePointerEx     00000001801da240     kernel32:KERNEL32.dll
 0002:00000248       __imp_GetStringTypeW       00000001801da248     kernel32:KERNEL32.dll
 0002:00000250       __imp_HeapSize             00000001801da250     kernel32:KERNEL32.dll
 0002:00000258       __imp_HeapReAlloc          00000001801da258     kernel32:KERNEL32.dll
 0002:00000260       __imp_CloseHandle          00000001801da260     kernel32:KERNEL32.dll
 0002:00000268       __imp_CreateFileW          00000001801da268     kernel32:KERNEL32.dll
 0002:00000270       __imp_WriteConsoleW        00000001801da270     kernel32:KERNEL32.dll
 0002:00000278       \177KERNEL32_NULL_THUNK_DATA 00000001801da278     kernel32:KERNEL32.dll
 0002:00000280       __guard_check_icall_fptr   00000001801da280     LIBCMT:guard_support.obj
 0002:00000288       __guard_xfg_check_icall_fptr 00000001801da288     LIBCMT:guard_support.obj
 0002:00000290       __guard_dispatch_icall_fptr 00000001801da290     LIBCMT:guard_support.obj
 0002:00000298       __guard_xfg_dispatch_icall_fptr 00000001801da298     LIBCMT:guard_support.obj
 0002:000002a0       __guard_xfg_table_dispatch_icall_fptr 00000001801da2a0     LIBCMT:guard_support.obj
 0002:000002a8       __castguard_check_failure_os_handled_fptr 00000001801da2a8     LIBCMT:guard_support.obj
 0002:000002b0       __guard_memcpy_fptr        00000001801da2b0     libvcruntime:softmemtag.obj
 0002:000002b8       __xc_a                     00000001801da2b8     LIBCMT:initializers.obj
 0002:00001c90       __xc_z                     00000001801dbc90     LIBCMT:initializers.obj
 0002:00001c98       __xi_a                     00000001801dbc98     LIBCMT:initializers.obj
 0002:00001ca0       __acrt_stdio_initializer   00000001801dbca0     libucrt:stdio_initializer.obj
 0002:00001ca8       __acrt_tran_fma3_initializer 00000001801dbca8     libucrt:fma3_initializer.obj
 0002:00001cb0       __acrt_multibyte_initializer 00000001801dbcb0     libucrt:multibyte_initializer.obj
 0002:00001cb8       __xi_z                     00000001801dbcb8     LIBCMT:initializers.obj
 0002:00001cc0       __xp_a                     00000001801dbcc0     LIBCMT:initializers.obj
 0002:00001cc8       __acrt_locale_terminator   00000001801dbcc8     libucrt:locale_initializer.obj
 0002:00001cd0       __dcrt_console_output_terminator 00000001801dbcd0     libucrt:console_output_initializer.obj
 0002:00001cd8       __acrt_stdio_terminator    00000001801dbcd8     libucrt:stdio_initializer.obj
 0002:00001ce0       __xp_z                     00000001801dbce0     LIBCMT:initializers.obj
 0002:00001ce8       __xt_a                     00000001801dbce8     LIBCMT:initializers.obj
 0002:00001cf0       __xt_z                     00000001801dbcf0     LIBCMT:initializers.obj
 0002:00001d00       ??_C@_08MDGMHCHN@PtrTable@ 00000001801dbd00     CmPtrTable.obj
 0002:00001d0c       ??_C@_04GKJNKENE@void@     00000001801dbd0c     CmPtrTable.obj
 0002:00001d18       ??_C@_07DFEBJDHE@mSingle@  00000001801dbd18     CmPtrTable.obj
 0002:00001d20       ??_C@_05NLHHBMOH@PxU16@    00000001801dbd20     CmPtrTable.obj
 0002:00001d28       ??_C@_06EPKHJPIM@mCount@   00000001801dbd28     CmPtrTable.obj
 0002:00001d30       ??_C@_04DDKJGDCM@bool@     00000001801dbd30     CmPtrTable.obj
 0002:00001d38       ??_C@_0M@DAGELID@mOwnsMemory@ 00000001801dbd38     CmPtrTable.obj
 0002:00001d48       ??_C@_0M@MMPOMMLP@mBufferUsed@ 00000001801dbd48     CmPtrTable.obj
 0002:00001d54       ??_C@_05LMJPANIN@PxU32@    00000001801dbd54     CmPtrTable.obj
 0002:00001d60       ??_C@_09PMLNMEMN@mFreeSlot@ 00000001801dbd60     CmPtrTable.obj
 0002:00001d70       ??_7PxCollection@physx@@6B@ 00000001801dbd70     CmCollection.obj
 0002:00001df0       ??_C@_00CNPNBAHC@@         00000001801dbdf0     CmCollection.obj
 0002:00001df8       ??_7Collection@Cm@physx@@6B@ 00000001801dbdf8     CmCollection.obj
 0002:00001e80       ??_C@_0GE@GBACBMOC@PxCollection?3?3add?5called?5for?5an@ 00000001801dbe80     CmCollection.obj
 0002:00001ef0       ??_C@_0HB@JNIAAJGM@C?3?2Users?2lukas?4ternelius?2Deskto@ 00000001801dbef0     CmCollection.obj
 0002:00001f70       ??_C@_0EM@OMMGDOMK@PxCollection?3?3add?5called?5with?5a@ 00000001801dbf70     CmCollection.obj
 0002:00001fc0       ??_C@_0HD@COFEHKMJ@C?3?2Users?2lukas?4ternelius?2Deskto@ 00000001801dbfc0     CmCollection.obj
 0002:00002038       ??_C@_0BM@OIFKLHDN@?$DMallocation?5names?5disabled?$DO@ 00000001801dc038     CmCollection.obj
 0002:00002058       ??_7RadixSort@Cm@physx@@6B@ 00000001801dc058     CmRadixSort.obj
 0002:00002060       ??_7RadixSortBuffered@Cm@physx@@6B@ 00000001801dc060     CmRadixSort.obj
 0002:00002070       ??_C@_0HA@IKOOKBLE@C?3?2Users?2lukas?4ternelius?2Deskto@ 00000001801dc070     CmRadixSort.obj
 0002:000020e0       __xmm@00000001000000010000000100000001 00000001801dc0e0     CmRadixSort.obj
 0002:000020f0       __xmm@00000003000000020000000100000000 00000001801dc0f0     CmRadixSort.obj
 0002:00002100       __real@3d4ccccd            00000001801dc100     CmVisualization.obj
 0002:00002104       __real@3e19999a            00000001801dc104     CmVisualization.obj
 0002:00002108       __real@3e490fdb            00000001801dc108     CmVisualization.obj
 0002:0000210c       __real@3e800000            00000001801dc10c     CmVisualization.obj
 0002:00002110       __real@3e99999a            00000001801dc110     CmVisualization.obj
 0002:00002114       __real@3ea0d97c            00000001801dc114     CmVisualization.obj
 0002:00002118       __real@3eddb3d7            00000001801dc118     CmVisualization.obj
 0002:0000211c       __real@3f3504f3            00000001801dc11c     CmVisualization.obj
 0002:00002120       __real@3f800000            00000001801dc120     CmVisualization.obj
 0002:00002124       __real@3fc00000            00000001801dc124     CmVisualization.obj
 0002:00002128       __real@3fddb3d7            00000001801dc128     CmVisualization.obj
 0002:0000212c       __real@40100000            00000001801dc12c     CmVisualization.obj
 0002:00002130       __real@40c90fdb            00000001801dc130     CmVisualization.obj
 0002:00002134       __real@bfddb3d7            00000001801dc134     CmVisualization.obj
 0002:00002138       __real@c0000000            00000001801dc138     CmVisualization.obj
 0002:00002140       __xmm@3f800000000000000000000000000000 00000001801dc140     CmVisualization.obj
 0002:00002150       __xmm@7fffffff7fffffff7fffffff7fffffff 00000001801dc150     CmVisualization.obj
 0002:00002160       __xmm@80000000800000008000000080000000 00000001801dc160     CmVisualization.obj
 0002:00002170       ??_C@_0BB@CPDDPFKD@GetUpdatedModule@ 00000001801dc170     CmWindowsModuleUpdateLoader.obj
 0002:00002190       ??_C@_0II@KGGOBNGG@C?3?2Users?2lukas?4ternelius?2Deskto@ 00000001801dc190     CmWindowsModuleUpdateLoader.obj
 0002:00002218       ??_C@_0CP@PGOIOJOO@?$CFs?3?$CFi?3?5loadLibrary?5error?5when?5l@ 00000001801dc218     CmWindowsModuleUpdateLoader.obj
 0002:00002248       ??_C@_0BA@EGLNOO@PhysXFoundation@ 00000001801dc248     CmWindowsDelayLoadHook.obj
 0002:00002258       ??_C@_0M@ILKNCJKN@PhysXCommon@ 00000001801dc258     CmWindowsDelayLoadHook.obj
 0002:00002290       __real@3f000000            00000001801dc290     GuBox.obj
 0002:00002294       __real@3f7ff972            00000001801dc294     GuBox.obj
 0002:000022a0       __xmm@000000003a83126f3a83126f3a83126f 00000001801dc2a0     GuBox.obj
 0002:000022b0       __xmm@00000000ba83126fba83126fba83126f 00000001801dc2b0     GuBox.obj
 0002:000022c0       __xmm@3a83126f3a83126f3a83126f3a83126f 00000001801dc2c0     GuBox.obj
 0002:000022d0       __xmm@ba83126fba83126fba83126fba83126f 00000001801dc2d0     GuBox.obj
 0002:00002300       ??_7EntityReport@Gu@physx@@6B@ 00000001801dc300     GuSweepsHF.obj
 0002:00002300       ??_7OverlapCallback@PxBVH@physx@@6B@ 00000001801dc300     GuQuerySystem.obj
 0002:00002300       ??_7OverlapReport@Gu@physx@@6B@ 00000001801dc300     GuCCTSweepTests.obj
 0002:00002300       ??_7RaycastCallback@PxBVH@physx@@6B@ 00000001801dc300     GuQuerySystem.obj
 0002:00002300       ??_7RemapCallback@RTreeCooker@physx@@6B@ 00000001801dc300     GuCookingTriangleMesh.obj
 0002:00002320       __real@3b03126f            00000001801dc320     GuCCTSweepTests.obj
 0002:00002324       __real@40000000            00000001801dc324     GuCCTSweepTests.obj
 0002:00002360       ??_7SupportLocal@Gu@physx@@6B@ 00000001801dc360     GuGeometryQuery.obj
 0002:00002380       ??_7?$SupportLocalImpl@VBoxV@Gu@physx@@@Gu@physx@@6B@ 00000001801dc380     GuGeometryQuery.obj
 0002:000023a0       ??_7?$SupportLocalImpl@VConvexHullV@Gu@physx@@@Gu@physx@@6B@ 00000001801dc3a0     GuGeometryQuery.obj
 0002:000023c0       ??_C@_0GL@KDFLOHAD@C?3?2Users?2lukas?4ternelius?2Deskto@ 00000001801dc3c0     GuGeometryQuery.obj
 0002:0000242c       __real@30d1b7e9            00000001801dc42c     GuGeometryQuery.obj
 0002:00002430       __real@322bcc77            00000001801dc430     GuGeometryQuery.obj
 0002:00002434       __real@358637bd            00000001801dc434     GuGeometryQuery.obj
 0002:00002438       __real@3a83126f            00000001801dc438     GuGeometryQuery.obj
 0002:0000243c       __real@3ccccccd            00000001801dc43c     GuGeometryQuery.obj
 0002:00002440       __real@3dcccccd            00000001801dc440     GuGeometryQuery.obj
 0002:00002444       __real@49742400            00000001801dc444     GuGeometryQuery.obj
 0002:00002448       __real@7f7fffff            00000001801dc448     GuGeometryQuery.obj
 0002:0000244c       __real@bf800000            00000001801dc44c     GuGeometryQuery.obj
 0002:00002450       __xmm@0000000000000000000000003f800000 00000001801dc450     GuGeometryQuery.obj
 0002:00002460       __xmm@00000000000000003f80000000000000 00000001801dc460     GuGeometryQuery.obj
 0002:00002470       __xmm@00000000000000003f8000003f800000 00000001801dc470     GuGeometryQuery.obj
 0002:00002480       __xmm@000000003f8000000000000000000000 00000001801dc480     GuGeometryQuery.obj
 0002:00002490       __xmm@000000003f8000003f8000003f800000 00000001801dc490     GuGeometryQuery.obj
 0002:000024a0       __xmm@00000000ffffffffffffffffffffffff 00000001801dc4a0     GuGeometryQuery.obj
 0002:000024b0       __xmm@3d4ccccd3d4ccccd3d4ccccd3d4ccccd 00000001801dc4b0     GuGeometryQuery.obj
 0002:000024c0       __xmm@3e19999a3e19999a3e19999a3e19999a 00000001801dc4c0     GuGeometryQuery.obj
 0002:000024d0       __xmm@3e4ccccd3e4ccccd3e4ccccd3e4ccccd 00000001801dc4d0     GuGeometryQuery.obj
 0002:000024e0       __xmm@3e8000003e8000003e8000003e800000 00000001801dc4e0     GuGeometryQuery.obj
 0002:000024f0       __xmm@3f7ef9db3f7ef9db3f7ef9db3f7ef9db 00000001801dc4f0     GuGeometryQuery.obj
 0002:00002500       __xmm@3f7ff2e53f7ff2e53f7ff2e53f7ff2e5 00000001801dc500     GuGeometryQuery.obj
 0002:00002510       __xmm@3f8000003f8000003f8000003f800000 00000001801dc510     GuGeometryQuery.obj
 0002:00002520       __xmm@7f7fffff7f7fffff7f7fffff7f7fffff 00000001801dc520     GuGeometryQuery.obj
 0002:00002530       __xmm@bf000000bf000000bf000000bf000000 00000001801dc530     GuGeometryQuery.obj
 0002:00002560       ??_C@_0HF@CIJONIKD@C?3?2Users?2lukas?4ternelius?2Deskto@ 00000001801dc560     GuMeshFactory.obj
 0002:000025f0       ??_C@_0EM@BDFDGBD@Inserting?5object?5failed?3?5Object@ 00000001801dc5f0     GuMeshFactory.obj
 0002:00002660       ??_7CallbackRaycast@RTree@Gu@physx@@6B@ 00000001801dc660     GuMidphaseRTree.obj
 0002:00002660       ??_7CallbackRefit@RTree@Gu@physx@@6B@ 00000001801dc660     GuTriangleMeshRTree.obj
 0002:00002660       ??_7PxInsertionCallback@physx@@6B@ 00000001801dc660     GuMeshFactory.obj
 0002:00002670       ??_7PxCollisionMeshMappingData@physx@@6B@ 00000001801dc670     GuMeshFactory.obj
 0002:00002680       ??_7MeshFactory@Gu@physx@@6B@ 00000001801dc680     GuMeshFactory.obj
 0002:00002688       ??_7MeshDataBase@Gu@physx@@6B@ 00000001801dc688     GuMeshFactory.obj
 0002:00002690       ??_C@_0HF@MGEINGCE@C?3?2Users?2lukas?4ternelius?2Deskto@ 00000001801dc690     GuMeshFactory.obj
 0002:00002708       ??_7TriangleMeshData@Gu@physx@@6B@ 00000001801dc708     GuMeshFactory.obj
 0002:00002710       ??_7RTreeTriangleData@Gu@physx@@6B@ 00000001801dc710     GuMeshFactory.obj
 0002:00002718       ??_7BV4TriangleData@Gu@physx@@6B@ 00000001801dc718     GuMeshFactory.obj
 0002:00002720       ??_7SoftBodyCollisionData@Gu@physx@@6B@ 00000001801dc720     GuMeshFactory.obj
 0002:00002728       ??_7CollisionMeshMappingData@Gu@physx@@6B@ 00000001801dc728     GuMeshFactory.obj
 0002:00002738       ??_7SoftBodySimulationData@Gu@physx@@6B@ 00000001801dc738     GuMeshFactory.obj
 0002:00002740       ??_C@_0GP@NHELMDAL@Loading?5triangle?5mesh?5failed?3?5D@ 00000001801dc740     GuMeshFactory.obj
 0002:000027b0       ??_C@_0BP@CDOKDACA@RTree?5binary?5image?5load?5error?4@ 00000001801dc7b0     GuMeshFactory.obj
 0002:000027d0       ??_C@_0BN@MJPNIELF@BV4?5binary?5image?5load?5error?4@ 00000001801dc7d0     GuMeshFactory.obj
 0002:000027f0       ??_C@_0BO@JDPABAOF@BV32?5binary?5image?5load?5error?4@ 00000001801dc7f0     GuMeshFactory.obj
 0002:00002810       ??_C@_0GL@KKDGOOHK@C?3?2Users?2lukas?4ternelius?2Deskto@ 00000001801dc810     GuMeshFactory.obj
 0002:00002880       __xmm@fe7fffff7e7fffff7e7fffff7e7fffff 00000001801dc880     GuMeshFactory.obj
 0002:000028b0       ??_C@_06EJKDJEDO@PxBase@   00000001801dc8b0     GuMetaData.obj
 0002:000028b8       ??_C@_07GFCEJNGM@Valency@  00000001801dc8b8     GuMetaData.obj
 0002:000028c0       ??_C@_07NHGKEEIN@mOffset@  00000001801dc8c0     GuMetaData.obj
 0002:000028c8       ??_C@_0BB@BAGHBMNJ@BigConvexRawData@ 00000001801dc8c8     GuMetaData.obj
 0002:000028e0       ??_C@_07PBDEJAAC@mSubdiv@  00000001801dc8e0     GuMetaData.obj
 0002:000028e8       ??_C@_0L@HNPACPGH@mNbSamples@ 00000001801dc8e8     GuMetaData.obj
 0002:000028f4       ??_C@_04NCKNBPPK@PxU8@     00000001801dc8f4     GuMetaData.obj
 0002:00002900       ??_C@_08DEPEKJNI@mSamples@ 00000001801dc900     GuMetaData.obj
 0002:00002910       ??_C@_08IJDNJBMI@mNbVerts@ 00000001801dc910     GuMetaData.obj
 0002:00002920       ??_C@_0M@MMKMIJAF@mNbAdjVerts@ 00000001801dc920     GuMetaData.obj
 0002:00002930       ??_C@_0L@EOKMNILC@mValencies@ 00000001801dc930     GuMetaData.obj
 0002:00002940       ??_C@_0P@DLGEAMHJ@mAdjacentVerts@ 00000001801dc940     GuMetaData.obj
 0002:00002950       ??_C@_04GGOEHDKB@Dim3@     00000001801dc950     GuMetaData.obj
 0002:00002958       ??_C@_01FJMABOPO@x@        00000001801dc958     GuMetaData.obj
 0002:0000295c       ??_C@_01EANLCPLP@y@        00000001801dc95c     GuMetaData.obj
 0002:00002960       ??_C@_01GLPGHMHM@z@        00000001801dc960     GuMetaData.obj
 0002:00002964       ??_C@_03NGLDENDA@SDF@      00000001801dc964     GuMetaData.obj
 0002:00002968       ??_C@_06KDGGGLIJ@PxVec3@   00000001801dc968     GuMetaData.obj
 0002:00002970       ??_C@_0L@COALOJDH@mMeshLower@ 00000001801dc970     GuMetaData.obj
 0002:0000297c       ??_C@_06GIEBFILM@PxReal@   00000001801dc97c     GuMetaData.obj
 0002:00002988       ??_C@_08LAPKNLAN@mSpacing@ 00000001801dc988     GuMetaData.obj
 0002:00002994       ??_C@_05FFBHHGJO@mDims@    00000001801dc994     GuMetaData.obj
 0002:000029a0       ??_C@_08BEIPGJN@mNumSdfs@  00000001801dc9a0     GuMetaData.obj
 0002:000029ac       ??_C@_04PNLOLEIP@mSdf@     00000001801dc9ac     GuMetaData.obj
 0002:000029b8       ??_C@_0N@ILJLOAFB@mSubgridSize@ 00000001801dc9b8     GuMetaData.obj
 0002:000029c8       ??_C@_0P@EMNLEPPL@mNumStartSlots@ 00000001801dc9c8     GuMetaData.obj
 0002:000029d8       ??_C@_0BD@BIMMHJEO@mSubgridStartSlots@ 00000001801dc9d8     GuMetaData.obj
 0002:000029f0       ??_C@_0BA@OKNFKLGG@mNumSubgridSdfs@ 00000001801dc9f0     GuMetaData.obj
 0002:00002a00       ??_C@_0M@PGCPOAID@mSubgridSdf@ 00000001801dca00     GuMetaData.obj
 0002:00002a10       ??_C@_0BK@KJPHDIOI@mSdfSubgrids3DTexBlockDim@ 00000001801dca10     GuMetaData.obj
 0002:00002a30       ??_C@_0BF@PONLKCNL@mSubgridsMinSdfValue@ 00000001801dca30     GuMetaData.obj
 0002:00002a48       ??_C@_0BF@GOKILCDB@mSubgridsMaxSdfValue@ 00000001801dca48     GuMetaData.obj
 0002:00002a60       ??_C@_0BF@NMEHBGBK@mBytesPerSparsePixel@ 00000001801dca60     GuMetaData.obj
 0002:00002a78       ??_C@_0O@PFOPBKAM@BigConvexData@ 00000001801dca78     GuMetaData.obj
 0002:00002a88       ??_C@_05PLKALGFN@mData@    00000001801dca88     GuMetaData.obj
 0002:00002a90       ??_C@_08PEMCLHEM@mVBuffer@ 00000001801dca90     GuMetaData.obj
 0002:00002aa0       ??_C@_09FBMAGD@Alignment@  00000001801dcaa0     GuMetaData.obj
 0002:00002ab0       ??_C@_0BE@KFHIBEEA@InternalObjectsData@ 00000001801dcab0     GuMetaData.obj
 0002:00002ac8       ??_C@_07NKGFFIBH@mRadius@  00000001801dcac8     GuMetaData.obj
 0002:00002ad0       ??_C@_08EHFCACAE@mExtents@ 00000001801dcad0     GuMetaData.obj
 0002:00002ae0       ??_C@_0BA@LFMGGCBK@HullPolygonData@ 00000001801dcae0     GuMetaData.obj
 0002:00002af0       ??_C@_06BOHHGLB@mPlane@    00000001801dcaf0     GuMetaData.obj
 0002:00002af8       ??_C@_06EHMLHGLN@mVRef8@   00000001801dcaf8     GuMetaData.obj
 0002:00002b00       ??_C@_09BAHHHINI@mMinIndex@ 00000001801dcb00     GuMetaData.obj
 0002:00002b10       ??_C@_0P@GBLBPIPB@ConvexHullData@ 00000001801dcb10     GuMetaData.obj
 0002:00002b20       ??_C@_09JDCJAPKD@PxBounds3@ 00000001801dcb20     GuMetaData.obj
 0002:00002b2c       ??_C@_05NDNHIFA@mAABB@     00000001801dcb2c     GuMetaData.obj
 0002:00002b38       ??_C@_0O@LNOGEMJI@mCenterOfMass@ 00000001801dcb38     GuMetaData.obj
 0002:00002b48       ??_C@_09CNMCBBKH@mPolygons@ 00000001801dcb48     GuMetaData.obj
 0002:00002b58       ??_C@_0BC@KKPDCFJC@mBigConvexRawData@ 00000001801dcb58     GuMetaData.obj
 0002:00002b70       ??_C@_08MPNAAJLD@mSdfData@ 00000001801dcb70     GuMetaData.obj
 0002:00002b80       ??_C@_08ELDMKGKH@mNbEdges@ 00000001801dcb80     GuMetaData.obj
 0002:00002b90       ??_C@_0BA@CGLOHBAC@mNbHullVertices@ 00000001801dcb90     GuMetaData.obj
 0002:00002ba0       ??_C@_0M@HGFFLLDM@mNbPolygons@ 00000001801dcba0     GuMetaData.obj
 0002:00002bb0       ??_C@_09BHJEMDGO@mInternal@ 00000001801dcbb0     GuMetaData.obj
 0002:00002bc0       ??_C@_0L@GMFHOMKA@ConvexMesh@ 00000001801dcbc0     GuMetaData.obj
 0002:00002bd0       ??_C@_09ILEBDLJH@mHullData@ 00000001801dcbd0     GuMetaData.obj
 0002:00002bdc       ??_C@_03DKDIKGNC@mNb@      00000001801dcbdc     GuMetaData.obj
 0002:00002be0       ??_C@_0P@ENLHFHMD@mBigConvexData@ 00000001801dcbe0     GuMetaData.obj
 0002:00002bf0       ??_C@_05ILALLCHK@mMass@    00000001801dcbf0     GuMetaData.obj
 0002:00002bf8       ??_C@_07DBPDADGB@PxMat33@  00000001801dcbf8     GuMetaData.obj
 0002:00002c00       ??_C@_08FNBHNDBI@mInertia@ 00000001801dcc00     GuMetaData.obj
 0002:00002c10       ??_C@_0O@FCKNKLMJ@GuMeshFactory@ 00000001801dcc10     GuMetaData.obj
 0002:00002c20       ??_C@_0N@EGBCLMAK@mMeshFactory@ 00000001801dcc20     GuMetaData.obj
 0002:00002c30       ??_C@_0BE@CJJAMAMK@PxHeightFieldSample@ 00000001801dcc30     GuMetaData.obj
 0002:00002c44       ??_C@_05MBLIPEMA@PxI16@    00000001801dcc44     GuMetaData.obj
 0002:00002c4c       ??_C@_06LNLHEAAG@height@   00000001801dcc4c     GuMetaData.obj
 0002:00002c58       ??_C@_0N@HHDGHJN@PxBitAndByte@ 00000001801dcc58     GuMetaData.obj
 0002:00002c68       ??_C@_0P@MBBMLBO@materialIndex0@ 00000001801dcc68     GuMetaData.obj
 0002:00002c78       ??_C@_0P@BFAKPKFP@materialIndex1@ 00000001801dcc78     GuMetaData.obj
 0002:00002c88       ??_C@_0BD@EBLPJEOE@PxHeightFieldFlags@ 00000001801dcc88     GuMetaData.obj
 0002:00002ca0       ??_C@_0BK@FNNCFFCN@PxHeightFieldFormat?3?3Enum@ 00000001801dcca0     GuMetaData.obj
 0002:00002cc0       ??_C@_0BA@CLNFMAAA@HeightFieldData@ 00000001801dccc0     GuMetaData.obj
 0002:00002cd0       ??_C@_04IMCGAIPI@rows@     00000001801dccd0     GuMetaData.obj
 0002:00002cd8       ??_C@_07HIFEPIJN@columns@  00000001801dccd8     GuMetaData.obj
 0002:00002ce0       ??_C@_08MOAGOABI@rowLimit@ 00000001801dcce0     GuMetaData.obj
 0002:00002cf0       ??_C@_08BAGEHOBO@colLimit@ 00000001801dccf0     GuMetaData.obj
 0002:00002d00       ??_C@_09LKDBLADF@nbColumns@ 00000001801dcd00     GuMetaData.obj
 0002:00002d10       ??_C@_07ODIFGGLK@samples@  00000001801dcd10     GuMetaData.obj
 0002:00002d18       ??_C@_0BE@POHEGOJG@convexEdgeThreshold@ 00000001801dcd18     GuMetaData.obj
 0002:00002d2c       ??_C@_05GECEPKB@flags@     00000001801dcd2c     GuMetaData.obj
 0002:00002d34       ??_C@_06DLEPGFEF@format@   00000001801dcd34     GuMetaData.obj
 0002:00002d40       ??_C@_0BF@MOGDNMPL@PxMaterialTableIndex@ 00000001801dcd40     GuMetaData.obj
 0002:00002d58       ??_C@_0M@JMJICJJO@HeightField@ 00000001801dcd58     GuMetaData.obj
 0002:00002d68       ??_C@_0O@ENGHMLJP@mSampleStride@ 00000001801dcd68     GuMetaData.obj
 0002:00002d78       ??_C@_0L@EBEEMFFB@mMinHeight@ 00000001801dcd78     GuMetaData.obj
 0002:00002d88       ??_C@_0L@EAEIFPOF@mMaxHeight@ 00000001801dcd88     GuMetaData.obj
 0002:00002d98       ??_C@_0N@FEFJOKKE@mModifyCount@ 00000001801dcd98     GuMetaData.obj
 0002:00002da8       ??_C@_09PHDKHCK@RTreePage@ 00000001801dcda8     GuMetaData.obj
 0002:00002db4       ??_C@_04LLPOBGED@minx@     00000001801dcdb4     GuMetaData.obj
 0002:00002dbc       ??_C@_04KCOFCHAC@miny@     00000001801dcdbc     GuMetaData.obj
 0002:00002dc4       ??_C@_04IJMIHEMB@minz@     00000001801dcdc4     GuMetaData.obj
 0002:00002dcc       ??_C@_04GGOBOBGO@maxx@     00000001801dcdcc     GuMetaData.obj
 0002:00002dd4       ??_C@_04HPPKNACP@maxy@     00000001801dcdd4     GuMetaData.obj
 0002:00002ddc       ??_C@_04FENHIDOM@maxz@     00000001801dcddc     GuMetaData.obj
 0002:00002de4       ??_C@_04HHDFEJON@ptrs@     00000001801dcde4     GuMetaData.obj
 0002:00002dec       ??_C@_05FFEIGAJF@RTree@    00000001801dcdec     GuMetaData.obj
 0002:00002df4       ??_C@_06OMCHPNEO@PxVec4@   00000001801dcdf4     GuMetaData.obj
 0002:00002e00       ??_C@_0L@NBIFEFLN@mBoundsMin@ 00000001801dce00     GuMetaData.obj
 0002:00002e10       ??_C@_0L@MDAOKBNC@mBoundsMax@ 00000001801dce10     GuMetaData.obj
 0002:00002e20       ??_C@_0N@NJEHLCOF@mInvDiagonal@ 00000001801dce20     GuMetaData.obj
 0002:00002e30       ??_C@_0BA@BEFIGPFG@mDiagonalScaler@ 00000001801dce30     GuMetaData.obj
 0002:00002e40       ??_C@_09DICGGKGO@mPageSize@ 00000001801dce40     GuMetaData.obj
 0002:00002e50       ??_C@_0O@BOFFCNOL@mNumRootPages@ 00000001801dce50     GuMetaData.obj
 0002:00002e60       ??_C@_0L@JKLGBKAE@mNumLevels@ 00000001801dce60     GuMetaData.obj
 0002:00002e70       ??_C@_0M@PHDOHJGK@mTotalNodes@ 00000001801dce70     GuMetaData.obj
 0002:00002e80       ??_C@_0M@GDGHALAO@mTotalPages@ 00000001801dce80     GuMetaData.obj
 0002:00002e8c       ??_C@_06MHCBBJGP@mFlags@   00000001801dce8c     GuMetaData.obj
 0002:00002e94       ??_C@_06MMNBLHOK@mPages@   00000001801dce94     GuMetaData.obj
 0002:00002ea0       ??_C@_0P@JNLGHJNH@SourceMeshBase@ 00000001801dcea0     GuMetaData.obj
 0002:00002eb0       ??_C@_06JFCLJMNN@mVerts@   00000001801dceb0     GuMetaData.obj
 0002:00002eb8       ??_C@_05GNIIDDHH@mType@    00000001801dceb8     GuMetaData.obj
 0002:00002ec0       ??_C@_06DHAAKLFK@mRemap@   00000001801dcec0     GuMetaData.obj
 0002:00002ec8       ??_C@_0L@LEOGNOEC@SourceMesh@ 00000001801dcec8     GuMetaData.obj
 0002:00002ed8       ??_C@_07MPIKOOAP@mNbTris@  00000001801dced8     GuMetaData.obj
 0002:00002ee0       ??_C@_0N@FBMOMEHF@mTriangles32@ 00000001801dcee0     GuMetaData.obj
 0002:00002ef0       ??_C@_0N@DGCGNFBP@mTriangles16@ 00000001801dcef0     GuMetaData.obj
 0002:00002f00       ??_C@_0O@NLNHFNO@QuantizedAABB@ 00000001801dcf00     GuMetaData.obj
 0002:00002f10       ??_C@_0BC@OOGBEMHH@mData?$FL0?$FN?4mExtents@ 00000001801dcf10     GuMetaData.obj
 0002:00002f28       ??_C@_0BB@OCEDKIEF@mData?$FL0?$FN?4mCenter@ 00000001801dcf28     GuMetaData.obj
 0002:00002f40       ??_C@_0BC@HFMEAABI@mData?$FL1?$FN?4mExtents@ 00000001801dcf40     GuMetaData.obj
 0002:00002f58       ??_C@_0BB@CDMNHHIF@mData?$FL1?$FN?4mCenter@ 00000001801dcf58     GuMetaData.obj
 0002:00002f70       ??_C@_0BC@CFKNCOI@mData?$FL2?$FN?4mExtents@ 00000001801dcf70     GuMetaData.obj
 0002:00002f88       ??_C@_0BB@LKCPBBIE@mData?$FL2?$FN?4mCenter@ 00000001801dcf88     GuMetaData.obj
 0002:00002fa0       ??_C@_0O@MJJKKPFN@BVDataPackedQ@ 00000001801dcfa0     GuMetaData.obj
 0002:00002fb0       ??_C@_0O@JFMLAIPJ@CenterExtents@ 00000001801dcfb0     GuMetaData.obj
 0002:00002fc0       ??_C@_07GNKDIIKJ@mCenter@  00000001801dcfc0     GuMetaData.obj
 0002:00002fc8       ??_C@_0P@KBMJDPLO@BVDataPackedNQ@ 00000001801dcfc8     GuMetaData.obj
 0002:00002fd8       ??_C@_0M@PNCEBOG@LocalBounds@ 00000001801dcfd8     GuMetaData.obj
 0002:00002fe4       ??_C@_05KNFBNCOH@float@    00000001801dcfe4     GuMetaData.obj
 0002:00002ff0       ??_C@_0BC@LADJKHPL@mExtentsMagnitude@ 00000001801dcff0     GuMetaData.obj
 0002:00003008       ??_C@_07HELIOLAF@BV4Tree@  00000001801dd008     GuMetaData.obj
 0002:00003010       ??_C@_0P@EMMDNPMH@mMeshInterface@ 00000001801dd010     GuMetaData.obj
 0002:00003020       ??_C@_0N@DCKMHLCL@mLocalBounds@ 00000001801dd020     GuMetaData.obj
 0002:00003030       ??_C@_08EEJOMIJL@mNbNodes@ 00000001801dd030     GuMetaData.obj
 0002:0000303c       ??_C@_06FIIIMFIO@mNodes@   00000001801dd03c     GuMetaData.obj
 0002:00003048       ??_C@_09FGKNPI@mInitData@  00000001801dd048     GuMetaData.obj
 0002:00003058       ??_C@_0BC@CLDEHKCO@mCenterOrMinCoeff@ 00000001801dd058     GuMetaData.obj
 0002:00003070       ??_C@_0BD@LAOLBNJ@mExtentsOrMaxCoeff@ 00000001801dd070     GuMetaData.obj
 0002:00003088       ??_C@_0P@JEECKKBL@mUserAllocated@ 00000001801dd088     GuMetaData.obj
 0002:00003098       ??_C@_0L@GLIMNECG@mQuantized@ 00000001801dd098     GuMetaData.obj
 0002:000030a8       ??_C@_0L@CCOJDAID@mIsEdgeSet@ 00000001801dd0a8     GuMetaData.obj
 0002:000030b8       ??_C@_08BNDBAGDH@mPadding@ 00000001801dd0b8     GuMetaData.obj
 0002:000030c8       ??_C@_0N@OJNNNLIB@TriangleMesh@ 00000001801dd0c8     GuMetaData.obj
 0002:000030d8       ??_C@_0M@OGEDMEAL@mNbVertices@ 00000001801dd0d8     GuMetaData.obj
 0002:000030e8       ??_C@_0N@MGGDNHNI@mNbTriangles@ 00000001801dd0e8     GuMetaData.obj
 0002:000030f8       ??_C@_09LNNEGOJA@mVertices@ 00000001801dd0f8     GuMetaData.obj
 0002:00003108       ??_C@_0L@KBOFAKLO@mTriangles@ 00000001801dd108     GuMetaData.obj
 0002:00003118       ??_C@_0P@MHDFIHLD@mExtraTrigData@ 00000001801dd118     GuMetaData.obj
 0002:00003128       ??_C@_0N@MGIKKCI@mGeomEpsilon@ 00000001801dd128     GuMetaData.obj
 0002:00003138       ??_C@_0BB@IFLOOCNA@mMaterialIndices@ 00000001801dd138     GuMetaData.obj
 0002:00003150       ??_C@_0L@OPJMBFMI@mFaceRemap@ 00000001801dd150     GuMetaData.obj
 0002:00003160       ??_C@_0N@BIOECAPM@mAdjacencies@ 00000001801dd160     GuMetaData.obj
 0002:00003170       ??_C@_09CICJHLPI@mEdgeList@ 00000001801dd170     GuMetaData.obj
 0002:00003180       ??_C@_0BD@IPKCNNIK@mLocalCenterOfMass@ 00000001801dd180     GuMetaData.obj
 0002:00003198       ??_C@_0BA@OCOIGPII@mGRB_triIndices@ 00000001801dd198     GuMetaData.obj
 0002:000031a8       ??_C@_0BE@JPINNDAH@mGRB_triAdjacencies@ 00000001801dd1a8     GuMetaData.obj
 0002:000031c0       ??_C@_0P@EDFJJHEF@mGRB_faceRemap@ 00000001801dd1c0     GuMetaData.obj
 0002:000031d0       ??_C@_0BG@EEALPPCP@mGRB_faceRemapInverse@ 00000001801dd1d0     GuMetaData.obj
 0002:000031e8       ??_C@_0N@NAKPIGJP@Gu?3?3BV32Tree@ 00000001801dd1e8     GuMetaData.obj
 0002:000031f8       ??_C@_0O@CKMBAIFN@mGRB_BV32Tree@ 00000001801dd1f8     GuMetaData.obj
 0002:00003208       ??_C@_0BJ@LEBGJKBE@mAccumulatedTrianglesRef@ 00000001801dd208     GuMetaData.obj
 0002:00003228       ??_C@_0BF@OJMCNCDP@mTrianglesReferences@ 00000001801dd228     GuMetaData.obj
 0002:00003240       ??_C@_0BH@LDGPOFA@mNbTrianglesReferences@ 00000001801dd240     GuMetaData.obj
 0002:00003258       ??_C@_0BC@IFGECKF@RTreeTriangleMesh@ 00000001801dd258     GuMetaData.obj
 0002:0000326c       ??_C@_06JDIHDDGN@mRTree@   00000001801dd26c     GuMetaData.obj
 0002:00003278       ??_C@_0BA@LNNFPOKA@BV4TriangleMesh@ 00000001801dd278     GuMetaData.obj
 0002:00003288       ??_C@_08FKLPEGDB@mBV4Tree@ 00000001801dd288     GuMetaData.obj
 0002:00003298       ??_7?$SupportLocalImpl@VConvexHullNoScaleV@Gu@physx@@@Gu@physx@@6B@ 00000001801dd298     GuMTD.obj
 0002:000032e0       ?absMask@?1??FAbs@aos@physx@@YA?AT__m128@@T4@@Z@4QBIB 00000001801dd2e0     GuMTD.obj
 0002:000032f0       ??_7GjkConvex@Gu@physx@@6B@ 00000001801dd2f0     GuMTD.obj
 0002:00003320       ??_7?$LocalConvex@VCapsuleV@Gu@physx@@@Gu@physx@@6B@ 00000001801dd320     GuMTD.obj
 0002:00003350       ??_7?$LocalConvex@VConvexHullV@Gu@physx@@@Gu@physx@@6B@ 00000001801dd350     GuMTD.obj
 0002:00003380       __real@2edbe6ff            00000001801dd380     GuMTD.obj
 0002:00003384       __real@34000000            00000001801dd384     GuMTD.obj
 0002:00003388       __real@ff7fffff            00000001801dd388     GuMTD.obj
 0002:00003390       __xmm@34000000340000003400000034000000 00000001801dd390     GuMTD.obj
 0002:000033a0       __xmm@358637bd358637bd358637bd358637bd 00000001801dd3a0     GuMTD.obj
 0002:000033b0       __xmm@3dcccccd3dcccccd3dcccccd3dcccccd 00000001801dd3b0     GuMTD.obj
 0002:000033c0       __xmm@3f7ff1413f7ff1413f7ff1413f7ff141 00000001801dd3c0     GuMTD.obj
 0002:000033f0       ??_7?$RelativeConvex@VBoxV@Gu@physx@@@Gu@physx@@6B@ 00000001801dd3f0     GuOverlapTests.obj
 0002:00003420       ??_7?$RelativeConvex@VConvexHullV@Gu@physx@@@Gu@physx@@6B@ 00000001801dd420     GuOverlapTests.obj
 0002:00003480       __real@1e3ce508            00000001801dd480     GuRaycastTests.obj
 0002:00003484       __real@28800000            00000001801dd484     GuRaycastTests.obj
 0002:00003488       __real@33d6bf95            00000001801dd488     GuRaycastTests.obj
 0002:0000348c       __real@3727c5ac            00000001801dd48c     GuRaycastTests.obj
 0002:00003490       __real@38d1b717            00000001801dd490     GuRaycastTests.obj
 0002:00003494       __real@3f0147ae            00000001801dd494     GuRaycastTests.obj
 0002:00003498       __real@3f7ffffe            00000001801dd498     GuRaycastTests.obj
 0002:0000349c       __real@3f800347            00000001801dd49c     GuRaycastTests.obj
 0002:000034a0       __real@41200000            00000001801dd4a0     GuRaycastTests.obj
 0002:000034a4       __real@80000000            00000001801dd4a4     GuRaycastTests.obj
 0002:000034a8       __real@b3d6bf95            00000001801dd4a8     GuRaycastTests.obj
 0002:000034ac       __real@b8d1b717            00000001801dd4ac     GuRaycastTests.obj
 0002:000034b0       __real@c1200000            00000001801dd4b0     GuRaycastTests.obj
 0002:000034f0       ??_7?$MeshHitCallback@UPxGeomRaycastHit@physx@@@Gu@physx@@6B@ 00000001801dd4f0     GuSweepMTD.obj
 0002:00003500       ??_7MeshMTDGenerationCallback@@6B@ 00000001801dd500     GuSweepMTD.obj
 0002:00003510       ??_7MidPhaseQueryLocalReport@@6B@ 00000001801dd510     GuSweepMTD.obj
 0002:00003520       __real@3f8147ae            00000001801dd520     GuSweepMTD.obj
 0002:00003524       __real@3f933333            00000001801dd524     GuSweepMTD.obj
 0002:00003550       __real@3c23d70a            00000001801dd550     GuSweepSharedTests.obj
 0002:00003554       __real@42c80000            00000001801dd554     GuSweepSharedTests.obj
 0002:00003560       __xmm@ffffffffffffffffffffffffffffffff 00000001801dd560     GuSweepSharedTests.obj
 0002:00003590       ??_7?$LocalConvex@VBoxV@Gu@physx@@@Gu@physx@@6B@ 00000001801dd590     GuSweepTests.obj
 0002:000035c0       ??_7?$LocalConvex@VTriangleV@Gu@physx@@@Gu@physx@@6B@ 00000001801dd5c0     GuSweepTests.obj
 0002:000035f0       __xmm@00000002000000020000000200000002 00000001801dd5f0     GuSweepTests.obj
 0002:00003600       __xmm@3eaaaa9f3eaaaa9f3eaaaa9f3eaaaa9f 00000001801dd600     GuSweepTests.obj
 0002:000036b8       ??_7PxRunnable@physx@@6B@  00000001801dd6b8     GuSDF.obj
 0002:000036d0       ??_C@_0GN@GEONGNHK@C?3?2Users?2lukas?4ternelius?2Deskto@ 00000001801dd6d0     GuSDF.obj
 0002:00003740       ??_7PointOntoTriangleMeshProjector@Gu@physx@@6B@ 00000001801dd740     GuSDF.obj
 0002:00003758       ??_7?$PxThreadT@V?$PxReflectionAllocator@VPxThreadImpl@physx@@@physx@@@physx@@6B@ 00000001801dd758     GuSDF.obj
 0002:00003768       ??_C@_06FJHNOCKE@thread@   00000001801dd768     GuSDF.obj
 0002:00003770       ??_C@_0BAK@OPLLKLNG@SDF?5creation?3?5Mesh?5is?5not?5suita@ 00000001801dd770     GuSDF.obj
 0002:00003880       ??_C@_0FB@OMEANACP@SDF?5creation?3?5Input?5mesh?5is?5not@ 00000001801dd880     GuSDF.obj
 0002:000038e0       ??_C@_0GM@HEBNBGFB@C?3?2Users?2lukas?4ternelius?2Deskto@ 00000001801dd8e0     GuSDF.obj
 0002:00003950       ??_C@_0GK@EDJAHFLB@C?3?2Users?2lukas?4ternelius?2Deskto@ 00000001801dd950     GuSDF.obj
 0002:000039c0       ??_C@_0HD@MMGJIJMI@C?3?2Users?2lukas?4ternelius?2Deskto@ 00000001801dd9c0     GuSDF.obj
 0002:00003a34       __real@37800080            00000001801dda34     GuSDF.obj
 0002:00003a38       __real@3b808081            00000001801dda38     GuSDF.obj
 0002:00003a3c       __real@3e2aaaab            00000001801dda3c     GuSDF.obj
 0002:00003a40       __real@3eaaaaab            00000001801dda40     GuSDF.obj
 0002:00003a44       __real@3f7d70a4            00000001801dda44     GuSDF.obj
 0002:00003a48       __real@7e7fffff            00000001801dda48     GuSDF.obj
 0002:00003a4c       __real@bf000000            00000001801dda4c     GuSDF.obj
 0002:00003a50       __real@fe7fffff            00000001801dda50     GuSDF.obj
 0002:00003a60       __xmm@00000001000000010000000100000000 00000001801dda60     GuSDF.obj
 0002:00003a70       __real@437f0000            00000001801dda70     GuCookingSDF.obj
 0002:00003a74       __real@477fff00            00000001801dda74     GuCookingSDF.obj
 0002:00003aa0       ??_7?$RelativeConvex@UCustomConvexV@@@Gu@physx@@6B@ 00000001801ddaa0     GuGjkQuery.obj
 0002:00003ad0       ??_7?$LocalConvex@UCustomConvexV@@@Gu@physx@@6B@ 00000001801ddad0     GuGjkQuery.obj
 0002:00003b00       ??_7?$LocalConvex@UPointConvexV@@@Gu@physx@@6B@ 00000001801ddb00     GuGjkQuery.obj
 0002:00003b50       __real@3da2f983            00000001801ddb50     GuWindingNumber.obj
 0002:00003b54       __real@3e22f983            00000001801ddb54     GuWindingNumber.obj
 0002:00003b58       __real@3f99999a            00000001801ddb58     GuWindingNumber.obj
 0002:00003bc0       __real@3c343958            00000001801ddbc0     GuCCDSweepConvexMesh.obj
 0002:00003bc4       __real@3ca3d70a            00000001801ddbc4     GuCCDSweepConvexMesh.obj
 0002:00003bc8       __real@3f0ccccd            00000001801ddbc8     GuCCDSweepConvexMesh.obj
 0002:00003bcc       __real@3f8ccccd            00000001801ddbcc     GuCCDSweepConvexMesh.obj
 0002:00003bd0       __real@b58637bd            00000001801ddbd0     GuCCDSweepConvexMesh.obj
 0002:00003c00       ??_7?$RelativeConvex@VCapsuleV@Gu@physx@@@Gu@physx@@6B@ 00000001801ddc00     GuCCDSweepPrimitives.obj
 0002:00003c30       ??_7?$RelativeConvex@VTriangleV@Gu@physx@@@Gu@physx@@6B@ 00000001801ddc30     GuCCDSweepPrimitives.obj
 0002:00003c60       __real@3ba3d70a            00000001801ddc60     GuCCDSweepPrimitives.obj
 0002:00003c64       __real@501502f9            00000001801ddc64     GuCCDSweepPrimitives.obj
 0002:00003c90       ??_C@_0HM@MBALMFKP@C?3?2Users?2lukas?4ternelius?2Deskto@ 00000001801ddc90     GuAdjacencies.obj
 0002:00003d10       ??_C@_0DA@FMEHLBKI@Adjacencies?3?3UpdateLink?3?5invali@ 00000001801ddd10     GuAdjacencies.obj
 0002:00003d40       ??_C@_0EA@CPHOACLK@Adjacencies?3?3CreateDatabase?3?5ca@ 00000001801ddd40     GuAdjacencies.obj
 0002:00003d80       ??_C@_0HJ@NEPJKMLN@C?3?2Users?2lukas?4ternelius?2Deskto@ 00000001801ddd80     GuEdgeList.obj
 0002:00003e00       ??_C@_0CO@GBNJFPN@EdgeList?3?3CreateFacesToEdges?3?5N@ 00000001801dde00     GuEdgeList.obj
 0002:00003e30       ??_C@_0CO@EHJBBMNK@EdgeList?3?3ComputeActiveEdges?3?5N@ 00000001801dde30     GuEdgeList.obj
 0002:00003e60       ??_C@_0DI@GBHLFOFP@ActiveEdges?3?3ComputeConvexEdges@ 00000001801dde60     GuEdgeList.obj
 0002:00003e98       ??_C@_0DM@JOGBLHDI@ActiveEdges?3?3ComputeConvexEdges@ 00000001801dde98     GuEdgeList.obj
 0002:00003ee0       ??_C@_0ED@FEMJKPEL@ActiveEdges?3?3ComputeConvexEdges@ 00000001801ddee0     GuEdgeList.obj
 0002:00003f30       ??_C@_0EB@BFDPMFCD@ActiveEdges?3?3ComputeConvexEdges@ 00000001801ddf30     GuEdgeList.obj
 0002:00003f74       __real@bf7fbe77            00000001801ddf74     GuEdgeList.obj
 0002:00003f78       ??_7Quantizer@Gu@physx@@6B@ 00000001801ddf78     GuQuantizer.obj
 0002:00003fa0       ??_7QuantizerImpl@@6B@     00000001801ddfa0     GuQuantizer.obj
 0002:00003fd0       ??_C@_0HK@HMOJEDHP@C?3?2Users?2lukas?4ternelius?2Deskto@ 00000001801ddfd0     GuQuantizer.obj
 0002:0000404c       __real@3f0020c5            00000001801de04c     GuQuantizer.obj
 0002:00004050       __real@3f8020c5            00000001801de050     GuQuantizer.obj
 0002:00004060       ??_C@_0HM@OEFAOIPL@C?3?2Users?2lukas?4ternelius?2Deskto@ 00000001801de060     GuMeshCleaner.obj
 0002:000040dc       __real@40800000            00000001801de0dc     GuMeshCleaner.obj
 0002:000040e0       ??_C@_0HO@IPFGOGMG@C?3?2Users?2lukas?4ternelius?2Deskto@ 00000001801de0e0     GuVertexReducer.obj
 0002:00004260       __real@3f7fbe77            00000001801de260     GuContactBoxBox.obj
 0002:000042b0       __real@3f7ff2e5            00000001801de2b0     GuContactCapsuleCapsule.obj
 0002:00004340       __real@358637be            00000001801de340     GuContactCapsuleMesh.obj
 0002:00004344       __real@ba83126f            00000001801de344     GuContactCapsuleMesh.obj
 0002:000043a0       ??_7ConvexMeshContactGenerationCallback@@6B@ 00000001801de3a0     GuContactConvexMesh.obj
 0002:00004420       __real@3ec90fdb            00000001801de420     GuContactPolygonPolygon.obj
 0002:00004424       __real@3f490fdb            00000001801de424     GuContactPolygonPolygon.obj
 0002:00004428       __real@3f96cbe4            00000001801de428     GuContactPolygonPolygon.obj
 0002:0000442c       __real@3fc90fdb            00000001801de42c     GuContactPolygonPolygon.obj
 0002:00004430       __real@3ffb53d2            00000001801de430     GuContactPolygonPolygon.obj
 0002:00004434       __real@4016cbe4            00000001801de434     GuContactPolygonPolygon.obj
 0002:00004438       __real@402feddf            00000001801de438     GuContactPolygonPolygon.obj
 0002:000044a0       ??_C@_0HO@NNNFICOC@C?3?2Users?2lukas?4ternelius?2Deskto@ 00000001801de4a0     GuBigConvexData.obj
 0002:00004540       ??_C@_0N@CDGINLLF@PxConvexMesh@ 00000001801de540     GuConvexMesh.obj
 0002:00004550       ??_7PxBase@physx@@6B@      00000001801de550     GuConvexMesh.obj
 0002:00004578       ??_C@_0CE@IDAGNPDH@isKindOf?5called?5with?5invalid?5st@ 00000001801de578     GuConvexMesh.obj
 0002:000045a0       ??_C@_0N@OPPDBGAG@PxRefCounted@ 00000001801de5a0     GuConvexMesh.obj
 0002:000045b0       ??_C@_0GO@FDKPJPAK@C?3?2Users?2lukas?4ternelius?2Deskto@ 00000001801de5b0     GuConvexMesh.obj
 0002:00004620       ??_7ConvexMesh@Gu@physx@@6B@ 00000001801de620     GuConvexMesh.obj
 0002:000046c0       ??_C@_0HL@BPPKAEJC@C?3?2Users?2lukas?4ternelius?2Deskto@ 00000001801de6c0     GuConvexMesh.obj
 0002:00004740       ??_C@_0DM@NEJKOFIP@Loading?5convex?5mesh?5failed?3?5Dep@ 00000001801de740     GuConvexMesh.obj
 0002:00004780       ??_C@_0DB@PAHEPIEL@PxConvexMesh?3?3release?3?5double?5d@ 00000001801de780     GuConvexMesh.obj
 0002:000047c0       ??_C@_0HD@NKMKDJED@C?3?2Users?2lukas?4ternelius?2Deskto@ 00000001801de7c0     GuConvexMesh.obj
 0002:00004860       __xmm@000000000000000000000000ffffffff 00000001801de860     GuConvexSupportTable.obj
 0002:00004870       __xmm@0000000000000000ffffffff00000000 00000001801de870     GuConvexSupportTable.obj
 0002:00004880       __xmm@0000000000000000ffffffffffffffff 00000001801de880     GuConvexSupportTable.obj
 0002:00004890       __xmm@00000000ffffffff0000000000000000 00000001801de890     GuConvexSupportTable.obj
 0002:000048a0       __xmm@00000000ffffffff00000000ffffffff 00000001801de8a0     GuConvexSupportTable.obj
 0002:000048b0       __xmm@00000000ffffffffffffffff00000000 00000001801de8b0     GuConvexSupportTable.obj
 0002:00004940       __xmm@2b8cbccc2b8cbccc2b8cbccc2b8cbccc 00000001801de940     GuDistancePointTriangle.obj
 0002:00004990       __xmm@3f0000003f0000003f0000003f000000 00000001801de990     GuDistanceSegmentSegment.obj
 0002:000049c0       __real@2b8cbccc            00000001801de9c0     GuDistanceSegmentTriangle.obj
 0002:000049d0       __xmm@3f8000013f8000013f8000013f800001 00000001801de9d0     GuDistanceSegmentTriangle.obj
 0002:000049e0       __xmm@b4000000b4000000b4000000b4000000 00000001801de9e0     GuDistanceSegmentTriangle.obj
 0002:00004a10       __real@26901d7d            00000001801dea10     GuDistanceTriangleTriangle.obj
 0002:00004a90       __xmm@38d1b71738d1b71738d1b71738d1b717 00000001801dea90     GuGJKSimplex.obj
 0002:00004ac0       ??_C@_0O@PBAKPCEC@PxHeightField@ 00000001801deac0     GuHeightField.obj
 0002:00004ad0       ??_C@_0GP@KJEAIIK@C?3?2Users?2lukas?4ternelius?2Deskto@ 00000001801dead0     GuHeightField.obj
 0002:00004b40       ??_7HeightField@Gu@physx@@6B@ 00000001801deb40     GuHeightField.obj
 0002:00004bf8       ??_C@_0DC@BDMMBOKH@PxHeightField?3?3release?3?5double?5@ 00000001801debf8     GuHeightField.obj
 0002:00004c30       ??_C@_0HI@NBCAIPHA@C?3?2Users?2lukas?4ternelius?2Deskto@ 00000001801dec30     GuHeightField.obj
 0002:00004ca8       ??_C@_0CI@DMKEKGNK@Gu?3?3HeightField?3?3load?3?5PX_ALLOC@ 00000001801deca8     GuHeightField.obj
 0002:00004cd0       ??_C@_0GM@DADJFPJN@C?3?2Users?2lukas?4ternelius?2Deskto@ 00000001801decd0     GuHeightField.obj
 0002:00004d60       __real@3a03126f            00000001801ded60     GuHeightFieldUtil.obj
 0002:00004d64       __real@3f19999a            00000001801ded64     GuHeightFieldUtil.obj
 0002:00004d70       __xmm@40000000000000000000000000000000 00000001801ded70     GuHeightFieldUtil.obj
 0002:00004e00       ??_7HeightFieldTraceSegmentReport@@6B@ 00000001801dee00     GuSweepsHF.obj
 0002:00004e10       ??_7CapsuleTraceSegmentReport@@6B@ 00000001801dee10     GuSweepsHF.obj
 0002:00004e20       ??_7ConvexTraceSegmentReport@@6B@ 00000001801dee20     GuSweepsHF.obj
 0002:00004e30       ??_7BoxTraceSegmentReport@@6B@ 00000001801dee30     GuSweepsHF.obj
 0002:00004e40       __real@aedbe6ff            00000001801dee40     GuSweepsHF.obj
 0002:00004e70       __real@3089705f            00000001801dee70     GuIntersectionRayBox.obj
 0002:00004e74       __real@b4000000            00000001801dee74     GuIntersectionRayBox.obj
 0002:00004e80       __xmm@000000003089705f3089705f3089705f 00000001801dee80     GuIntersectionRayBox.obj
 0002:00004e90       __xmm@00000000bf800000bf800000bf800000 00000001801dee90     GuIntersectionRayBox.obj
 0002:00004ee0       ??_7SourceMeshBase@Gu@physx@@6B@ 00000001801deee0     GuBV4.obj
 0002:00004f08       ??_7SourceMesh@Gu@physx@@6B@ 00000001801def08     GuBV4.obj
 0002:00004f30       ??_7TetrahedronSourceMesh@Gu@physx@@6B@ 00000001801def30     GuBV4.obj
 0002:00004f60       ??_C@_0HC@JLALNFLF@C?3?2Users?2lukas?4ternelius?2Deskto@ 00000001801def60     GuBV4.obj
 0002:00004fe0       __xmm@ff7fffffff7fffffff7fffffff7fffff 00000001801defe0     GuBV4.obj
 0002:00005010       ??_C@_0HH@DPAPOECC@C?3?2Users?2lukas?4ternelius?2Deskto@ 00000001801df010     GuBV4Build.obj
 0002:00005088       __real@38000100            00000001801df088     GuBV4Build.obj
 0002:0000508c       __real@3e93cd3a            00000001801df08c     GuBV4Build.obj
 0002:00005090       __real@46fffe00            00000001801df090     GuBV4Build.obj
 0002:00005094       __real@be93cd3a            00000001801df094     GuBV4Build.obj
 0002:000050c0       __xmm@0000ffff0000ffff0000ffff0000ffff 00000001801df0c0     GuBV4_AABBSweep.obj
 0002:000050d0       __xmm@3089705f3089705f3089705f3089705f 00000001801df0d0     GuBV4_AABBSweep.obj
 0002:000050e0       __xmm@33d6bf9533d6bf9533d6bf9533d6bf95 00000001801df0e0     GuBV4_AABBSweep.obj
 0002:000050f0       __xmm@40000000400000004000000040000000 00000001801df0f0     GuBV4_AABBSweep.obj
 0002:00005180       __xmm@322bcc77322bcc77322bcc77322bcc77 00000001801df180     GuBV4_MeshMeshOverlap.obj
 0002:000051d0       __real@00000000            00000001801df1d0     GuBV4_Raycast.obj
 0002:00005200       __real@4f7fffff            00000001801df200     GuBV4_SphereOverlap.obj
 0002:00005250       __xmm@000000007f7fffff0000000000000000 00000001801df250     GuMidphaseBV4.obj
 0002:000052c0       ??_C@_0FD@EHCCILIF@Adjacency?5information?5not?5creat@ 00000001801df2c0     GuMeshQuery.obj
 0002:00005320       ??_C@_0HI@NCMIHHBL@C?3?2Users?2lukas?4ternelius?2Deskto@ 00000001801df320     GuMeshQuery.obj
 0002:000053a0       ??_C@_0FL@BKNMAHIA@PxMeshQuery?3?3findOverlapTriangl@ 00000001801df3a0     GuMeshQuery.obj
 0002:000053fc       __real@4cbebc20            00000001801df3fc     GuMeshQuery.obj
 0002:00005420       ??_7Callback@RTree@Gu@physx@@6B@ 00000001801df420     GuMidphaseRTree.obj
 0002:00005438       ??_7?$RayRTreeCallback@$00$0A@@@6BCallbackRaycast@RTree@Gu@physx@@@ 00000001801df438     GuMidphaseRTree.obj
 0002:00005438       ??_7?$RayRTreeCallback@$0A@$0A@@@6BCallbackRaycast@RTree@Gu@physx@@@ 00000001801df438     GuMidphaseRTree.obj
 0002:00005448       ??_7?$RayRTreeCallback@$00$0A@@@6BCallback@RTree@Gu@physx@@@ 00000001801df448     GuMidphaseRTree.obj
 0002:00005448       ??_7?$RayRTreeCallback@$0A@$0A@@@6BCallback@RTree@Gu@physx@@@ 00000001801df448     GuMidphaseRTree.obj
 0002:00005460       ??_7RayMeshColliderCallback@@6B@ 00000001801df460     GuMidphaseRTree.obj
 0002:00005470       ??_C@_0EN@DPPFLBLF@Point?9mesh?5distance?5query?5not?5s@ 00000001801df470     GuMidphaseRTree.obj
 0002:000054c0       ??_C@_0HM@IFNDCLNN@C?3?2Users?2lukas?4ternelius?2Deskto@ 00000001801df4c0     GuMidphaseRTree.obj
 0002:00005540       ??_7?$RayRTreeCallback@$0A@$00@@6BCallbackRaycast@RTree@Gu@physx@@@ 00000001801df540     GuMidphaseRTree.obj
 0002:00005550       ??_7?$RayRTreeCallback@$0A@$00@@6BCallback@RTree@Gu@physx@@@ 00000001801df550     GuMidphaseRTree.obj
 0002:00005568       ??_7?$RayRTreeCallback@$00$00@@6BCallbackRaycast@RTree@Gu@physx@@@ 00000001801df568     GuMidphaseRTree.obj
 0002:00005578       ??_7?$RayRTreeCallback@$00$00@@6BCallback@RTree@Gu@physx@@@ 00000001801df578     GuMidphaseRTree.obj
 0002:000055f0       __xmm@7f7fffff000000000000000000000000 00000001801df5f0     GuMidphaseRTree.obj
 0002:00005670       ??_7?$PxReportCallback@UPxGeomIndexPair@physx@@@physx@@6B@ 00000001801df670     GuOverlapTestsMesh.obj
 0002:00005690       ??_C@_0EP@CEFGCJKJ@PxGeometryQuery?3?3overlap?$CI?$CJ?3?5onl@ 00000001801df690     GuOverlapTestsMesh.obj
 0002:000056e0       ??_C@_0HP@NGKBDJAC@C?3?2Users?2lukas?4ternelius?2Deskto@ 00000001801df6e0     GuOverlapTestsMesh.obj
 0002:00005780       ?MN@RTreePage@Gu@physx@@2MB 00000001801df780     GuRTree.obj
 0002:00005784       ?MX@RTreePage@Gu@physx@@2MB 00000001801df784     GuRTree.obj
 0002:00005790       ??_C@_0HE@KHLFNPEK@C?3?2Users?2lukas?4ternelius?2Deskto@ 00000001801df790     GuRTree.obj
 0002:00005880       ??_7SweepShapeMeshHitCallback@Gu@physx@@6B@ 00000001801df880     GuSweepsMesh.obj
 0002:00005890       ??_7SweepCapsuleMeshHitCallback@Gu@physx@@6B@ 00000001801df890     GuSweepsMesh.obj
 0002:000058a0       ??_7SweepBoxMeshHitCallback@Gu@physx@@6B@ 00000001801df8a0     GuSweepsMesh.obj
 0002:000058b0       ??_7SweepConvexMeshHitCallback@Gu@physx@@6B@ 00000001801df8b0     GuSweepsMesh.obj
 0002:000058e0       ??_C@_0P@GGNFNHKF@PxTriangleMesh@ 00000001801df8e0     GuTriangleMesh.obj
 0002:000058f0       ??_C@_0HA@OKDPGMJG@C?3?2Users?2lukas?4ternelius?2Deskto@ 00000001801df8f0     GuTriangleMesh.obj
 0002:00005960       ??_7TriangleMesh@Gu@physx@@6B@ 00000001801df960     GuTriangleMesh.obj
 0002:00005a38       ??_C@_0DD@LOOPMCGG@PxTriangleMesh?3?3release?3?5double@ 00000001801dfa38     GuTriangleMesh.obj
 0002:00005a70       ??_C@_0FH@PMPAJDGI@PxTriangleMesh?3?3getVerticesForM@ 00000001801dfa70     GuTriangleMesh.obj
 0002:00005ad0       ??_C@_0HL@CBKKKLHD@C?3?2Users?2lukas?4ternelius?2Deskto@ 00000001801dfad0     GuTriangleMesh.obj
 0002:00005b50       ??_C@_0EF@GMNFLDH@PxTriangleMesh?3?3refitBVH?$CI?$CJ?5is?5n@ 00000001801dfb50     GuTriangleMesh.obj
 0002:00005ba0       __xmm@38383838383838383838383838383838 00000001801dfba0     GuTriangleMesh.obj
 0002:00005bd0       ??_C@_0BE@CNJKIINO@PxBVH34TriangleMesh@ 00000001801dfbd0     GuTriangleMeshBV4.obj
 0002:00005be8       ??_7BV4TriangleMesh@Gu@physx@@6B@ 00000001801dfbe8     GuTriangleMeshBV4.obj
 0002:00005cc0       ??_C@_0EF@JLFNNPLP@BVH34?5trees?3?5refit?5operation?5on@ 00000001801dfcc0     GuTriangleMeshBV4.obj
 0002:00005d10       ??_C@_0HO@BBOPLGGG@C?3?2Users?2lukas?4ternelius?2Deskto@ 00000001801dfd10     GuTriangleMeshBV4.obj
 0002:00005d90       __real@3951b717            00000001801dfd90     GuTriangleMeshBV4.obj
 0002:00005dc0       ??_C@_0BE@EIFHCCBO@PxBVH33TriangleMesh@ 00000001801dfdc0     GuTriangleMeshRTree.obj
 0002:00005dd8       ??_7RTreeTriangleMesh@Gu@physx@@6B@ 00000001801dfdd8     GuTriangleMeshRTree.obj
 0002:00005eb0       ??_7?$RefitCallback@G@physx@@6B@ 00000001801dfeb0     GuTriangleMeshRTree.obj
 0002:00005ec0       ??_7?$RefitCallback@I@physx@@6B@ 00000001801dfec0     GuTriangleMeshRTree.obj
 0002:00005ef0       ??_C@_0HD@MHNDKNMH@C?3?2Users?2lukas?4ternelius?2Deskto@ 00000001801dfef0     GuBV32.obj
 0002:00005f90       ??_C@_0HI@IHACKJCO@C?3?2Users?2lukas?4ternelius?2Deskto@ 00000001801dff90     GuBV32Build.obj
 0002:00006030       ??_C@_0BC@FDAIDHBP@PxTetrahedronMesh@ 00000001801e0030     GuTetrahedronMesh.obj
 0002:00006050       ??_C@_0HD@EDOFENBE@C?3?2Users?2lukas?4ternelius?2Deskto@ 00000001801e0050     GuTetrahedronMesh.obj
 0002:000060c8       ??_C@_0BC@FBICGJIB@PxSoftBodyAuxData@ 00000001801e00c8     GuTetrahedronMesh.obj
 0002:000060e0       ??_C@_0P@CLLFGFAA@PxSoftBodyMesh@ 00000001801e00e0     GuTetrahedronMesh.obj
 0002:000060f0       ??_7SoftBodyAuxData@Gu@physx@@6B@ 00000001801e00f0     GuTetrahedronMesh.obj
 0002:00006138       ??_7TetrahedronMesh@Gu@physx@@6B@ 00000001801e0138     GuTetrahedronMesh.obj
 0002:000061b0       ??_7BVTetrahedronMesh@Gu@physx@@6B@ 00000001801e01b0     GuTetrahedronMesh.obj
 0002:00006228       ??_7SoftBodyMesh@Gu@physx@@6B@ 00000001801e0228     GuTetrahedronMesh.obj
 0002:000062a8       ??_C@_0DG@JJNMDPMD@PxTetrahedronMesh?3?3release?3?5dou@ 00000001801e02a8     GuTetrahedronMesh.obj
 0002:000062e0       ??_C@_0DD@GGFGEPII@PxSoftBodyMesh?3?3release?3?5double@ 00000001801e02e0     GuTetrahedronMesh.obj
 0002:00006320       ??_C@_0HO@PDKMFMPC@C?3?2Users?2lukas?4ternelius?2Deskto@ 00000001801e0320     GuTetrahedronMesh.obj
 0002:000063e0       __xmm@00000000358637bd358637bd358637bd 00000001801e03e0     GuPCMContactBoxBox.obj
 0002:000063f0       __xmm@3f4ccccd3f4ccccd3f4ccccd3f4ccccd 00000001801e03f0     GuPCMContactBoxBox.obj
 0002:00006400       __xmm@3f8003473f8003473f8003473f800347 00000001801e0400     GuPCMContactBoxBox.obj
 0002:00006410       __xmm@ffffffff00000000ffffffffffffffff 00000001801e0410     GuPCMContactBoxBox.obj
 0002:00006440       ??_7?$LocalConvex@VConvexHullNoScaleV@Gu@physx@@@Gu@physx@@6B@ 00000001801e0440     GuPCMContactBoxConvex.obj
 0002:00006470       __xmm@3f3504f33f3504f33f3504f33f3504f3 00000001801e0470     GuPCMContactBoxConvex.obj
 0002:000064c0       __xmm@ffffffffffffffffffffffff00000000 00000001801e04c0     GuPCMContactCapsuleCapsule.obj
 0002:000064f0       __xmm@3fa000003fa000003fa000003fa00000 00000001801e04f0     GuPCMContactCapsuleConvex.obj
 0002:00006520       ??_7PCMCapsuleVsHeightfieldContactGenerationCallback@@6B@ 00000001801e0520     GuPCMContactCapsuleHeightField.obj
 0002:00006530       __real@3f7f3b64            00000001801e0530     GuPCMContactCapsuleHeightField.obj
 0002:00006580       __xmm@3f7ff9723f7ff9723f7ff9723f7ff972 00000001801e0580     GuPCMContactCapsuleMesh.obj
 0002:00006590       __xmm@3f7fffef3f7fffef3f7fffef3f7fffef 00000001801e0590     GuPCMContactCapsuleMesh.obj
 0002:000065a0       __xmm@60ad78ec60ad78ec60ad78ec60ad78ec 00000001801e05a0     GuPCMContactCapsuleMesh.obj
 0002:000065d0       ??_7?$SupportLocalImpl@VTriangleV@Gu@physx@@@Gu@physx@@6B@ 00000001801e05d0     GuPCMContactConvexCommon.obj
 0002:000065f0       __xmm@3cf5c2803cf5c2803cf5c2803cf5c280 00000001801e05f0     GuPCMContactConvexCommon.obj
 0002:00006600       __xmm@3f7851ec3f7851ec3f7851ec3f7851ec 00000001801e0600     GuPCMContactConvexCommon.obj
 0002:00006630       ??_7?$RelativeConvex@VConvexHullNoScaleV@Gu@physx@@@Gu@physx@@6B@ 00000001801e0630     GuPCMContactConvexConvex.obj
 0002:00006690       __xmm@3f19999a3f19999a3f19999a3f19999a 00000001801e0690     GuPCMContactConvexHeightField.obj
 0002:00006700       __xmm@3f34fdf43f34fdf43f34fdf43f34fdf4 00000001801e0700     GuPCMContactGenBoxConvex.obj
 0002:00006730       __xmm@3f80a3d73f80a3d73f80a3d73f80a3d7 00000001801e0730     GuPCMContactGenSphereCapsule.obj
 0002:00006740       __xmm@bba3d70abba3d70abba3d70abba3d70a 00000001801e0740     GuPCMContactGenSphereCapsule.obj
 0002:00006770       __xmm@3f7ffd613f7ffd613f7ffd613f7ffd61 00000001801e0770     GuPCMContactPlaneBox.obj
 0002:000067a0       __real@3b23d70b            00000001801e07a0     GuPCMContactPlaneCapsule.obj
 0002:000067b0       __xmm@3ca3d70a3ca3d70a3ca3d70a3ca3d70a 00000001801e07b0     GuPCMContactPlaneCapsule.obj
 0002:000067e0       __xmm@3a03126f3a03126f3a03126f3a03126f 00000001801e07e0     GuPCMContactPlaneConvex.obj
 0002:00006900       __xmm@3727c5ac3727c5ac3727c5ac3727c5ac 00000001801e0900     GuPCMContactSphereSphere.obj
 0002:00006930       __xmm@3f7f06f73f7f06f73f7f06f73f7f06f7 00000001801e0930     GuPCMContactCustomGeometry.obj
 0002:00006940       ?gPCMBoxPolygonData@Gu@physx@@3QBEB 00000001801e0940     GuPCMShapeConvex.obj
 0002:000069c0       ?invalidateThresholds@Gu@physx@@3QBMB 00000001801e09c0     GuPersistentContactManifold.obj
 0002:000069d8       ?invalidateQuatThresholds@Gu@physx@@3QBMB 00000001801e09d8     GuPersistentContactManifold.obj
 0002:000069f0       ?invalidateThresholds2@Gu@physx@@3QBMB 00000001801e09f0     GuPersistentContactManifold.obj
 0002:00006a00       ?invalidateQuatThresholds2@Gu@physx@@3QBMB 00000001801e0a00     GuPersistentContactManifold.obj
 0002:00006a10       __xmm@00000000340000003400000034000000 00000001801e0a10     GuPersistentContactManifold.obj
 0002:00006a20       __xmm@000000003f8000003f80000000000000 00000001801e0a20     GuPersistentContactManifold.obj
 0002:00006a30       __xmm@00000000bf8000003f80000000000000 00000001801e0a30     GuPersistentContactManifold.obj
 0002:00006a40       __xmm@ffffffffffffffff00000000ffffffff 00000001801e0a40     GuPersistentContactManifold.obj
 0002:00006a70       __xmm@c1200000c1200000c1200000c1200000 00000001801e0a70     GuPCMContactGenUtil.obj
 0002:00006ac0       __real@b727c5ac            00000001801e0ac0     GuSweepBoxSphere.obj
 0002:00006b30       ??_C@_0HP@BEILFMFA@C?3?2Users?2lukas?4ternelius?2Deskto@ 00000001801e0b30     GuSweepCapsuleBox.obj
 0002:00006bf0       __real@3f7fff58            00000001801e0bf0     GuSweepCapsuleTriangle.obj
 0002:00006c60       ??_C@_0CH@DHJGKCPD@Gu?3?3computeBounds?3?5Unknown?5shap@ 00000001801e0c60     GuBounds.obj
 0002:00006c90       ??_C@_0HA@CHCHMPNK@C?3?2Users?2lukas?4ternelius?2Deskto@ 00000001801e0c90     GuBounds.obj
 0002:00006d00       __real@34800000            00000001801e0d00     GuBounds.obj
 0002:00006d04       __real@3f7fffef            00000001801e0d04     GuBounds.obj
 0002:00006d10       __xmm@3f8147ae3f8147ae3f8147ae3f8147ae 00000001801e0d10     GuBounds.obj
 0002:00006d40       ??_C@_0HC@KEHJJGNF@C?3?2Users?2lukas?4ternelius?2Deskto@ 00000001801e0d40     GuAABBTree.obj
 0002:00006dc0       __xmm@5a60b17f5a60b17f5a60b17f5a60b17f 00000001801e0dc0     GuAABBTree.obj
 0002:00006dd0       __xmm@da60b17fda60b17fda60b17fda60b17f 00000001801e0dd0     GuAABBTree.obj
 0002:00006e40       ??_C@_0HN@IOHKAGIM@C?3?2Users?2lukas?4ternelius?2Deskto@ 00000001801e0e40     GuIncrementalAABBTree.obj
 0002:00006ec0       ??_C@_0GK@HPKFEDGP@C?3?2Users?2lukas?4ternelius?2Deskto@ 00000001801e0ec0     GuIncrementalAABBTree.obj
 0002:00006f2c       __real@40400000            00000001801e0f2c     GuIncrementalAABBTree.obj
 0002:00006f30       ??_C@_0GN@MNPCDKN@C?3?2Users?2lukas?4ternelius?2Deskto@ 00000001801e0f30     GuSAH.obj
 0002:00006fc0       ??_7PxBVH@physx@@6B@       00000001801e0fc0     GuBVH.obj
 0002:00007038       ??_C@_05OKJNPKBM@PxBVH@    00000001801e1038     GuBVH.obj
 0002:00007040       ??_C@_0GH@EILHDFKA@C?3?2Users?2lukas?4ternelius?2Deskto@ 00000001801e1040     GuBVH.obj
 0002:000070a8       ??_7RefCountable@Cm@physx@@6B@ 00000001801e10a8     GuBVH.obj
 0002:000070b8       ??_7BVH@Gu@physx@@6BPxBVH@2@@ 00000001801e10b8     GuBVH.obj
 0002:00007130       ??_7BVH@Gu@physx@@6BRefCountable@Cm@2@@ 00000001801e1130     GuBVH.obj
 0002:00007140       ??_C@_0GN@BOLHLAFI@C?3?2Users?2lukas?4ternelius?2Deskto@ 00000001801e1140     GuBVH.obj
 0002:000071b0       ??_C@_0CK@HAIOEINI@PxBVH?3?3release?3?5double?5deletion@ 00000001801e11b0     GuBVH.obj
 0002:00007200       ??_C@_0ID@MGLCBMOO@C?3?2Users?2lukas?4ternelius?2Deskto@ 00000001801e1200     GuIncrementalAABBPrunerCore.obj
 0002:00007284       __real@3f80a3d7            00000001801e1284     GuIncrementalAABBPrunerCore.obj
 0002:000072b0       ??_7BasePruner@Gu@physx@@6B@ 00000001801e12b0     GuIncrementalAABBPruner.obj
 0002:000072c8       ??_7IncrementalAABBPruner@Gu@physx@@6B@ 00000001801e12c8     GuIncrementalAABBPruner.obj
 0002:00007350       ??_C@_0HP@POBLJGN@C?3?2Users?2lukas?4ternelius?2Deskto@ 00000001801e1350     GuIncrementalAABBPruner.obj
 0002:000073f0       ??_C@_0HF@DKAOANOG@C?3?2Users?2lukas?4ternelius?2Deskto@ 00000001801e13f0     GuPruningPool.obj
 0002:000074b0       ??_7BucketPruner@Gu@physx@@6B@ 00000001801e14b0     GuBucketPruner.obj
 0002:00007540       ??_C@_0HG@HFPAPEBK@C?3?2Users?2lukas?4ternelius?2Deskto@ 00000001801e1540     GuBucketPruner.obj
 0002:000075b8       __real@bf13cd3a            00000001801e15b8     GuBucketPruner.obj
 0002:000075c0       __xmm@000000007e7fffff7e7fffff7e7fffff 00000001801e15c0     GuBucketPruner.obj
 0002:000075d0       __xmm@00000000fe7ffffffe7ffffffe7fffff 00000001801e15d0     GuBucketPruner.obj
 0002:000075e0       __xmm@3f13cd3a3f13cd3a3f13cd3a3f13cd3a 00000001801e15e0     GuBucketPruner.obj
 0002:000075f0       __xmm@bf13cd3abf13cd3abf13cd3a3f13cd3a 00000001801e15f0     GuBucketPruner.obj
 0002:00007600       __xmm@bf8000003f8000003f800000bf800000 00000001801e1600     GuBucketPruner.obj
 0002:00007610       __xmm@bf8000003f800000bf8000003f800000 00000001801e1610     GuBucketPruner.obj
 0002:00007620       __xmm@bf800000bf8000003f8000003f800000 00000001801e1620     GuBucketPruner.obj
 0002:00007630       __xmm@bf800000bf800000bf8000003f800000 00000001801e1630     GuBucketPruner.obj
 0002:00007640       ?mIndices@MaverickNode@Gu@physx@@2QBIB 00000001801e1640     GuMaverickNode.obj
 0002:000076a0       ??_C@_0HO@KHOGJPBP@C?3?2Users?2lukas?4ternelius?2Deskto@ 00000001801e16a0     GuExtendedBucketPruner.obj
 0002:00007740       ??_7CompanionPruner@Gu@physx@@6B@ 00000001801e1740     GuSecondaryPruner.obj
 0002:000077c0       ??_7CompanionPrunerBucket@@6B@ 00000001801e17c0     GuSecondaryPruner.obj
 0002:00007840       ??_7CompanionPrunerIncremental@@6B@ 00000001801e1840     GuSecondaryPruner.obj
 0002:000078c0       ??_7CompanionPrunerAABBTree@@6B@ 00000001801e18c0     GuSecondaryPruner.obj
 0002:00007940       ??_C@_0HJ@BNKJNJBO@C?3?2Users?2lukas?4ternelius?2Deskto@ 00000001801e1940     GuSecondaryPruner.obj
 0002:000079e0       ??_7AABBPruner@Gu@physx@@6B@ 00000001801e19e0     GuAABBPruner.obj
 0002:00007a80       ??_C@_0LA@IHBEIKND@SceneQuery?5static?5AABB?5Tree?5reb@ 00000001801e1a80     GuAABBPruner.obj
 0002:00007b30       ??_C@_0HE@JEJHOGDH@C?3?2Users?2lukas?4ternelius?2Deskto@ 00000001801e1b30     GuAABBPruner.obj
 0002:00007bb0       ??_C@_0HH@DNLILOPB@C?3?2Users?2lukas?4ternelius?2Deskto@ 00000001801e1bb0     GuActorShapeMap.obj
 0002:00007c50       ??_C@_0BF@DNABLJAF@Invalid?5pruner?5index@ 00000001801e1c50     GuQuerySystem.obj
 0002:00007c70       ??_C@_0HF@GEGIPFGM@C?3?2Users?2lukas?4ternelius?2Deskto@ 00000001801e1c70     GuQuerySystem.obj
 0002:00007d40       ??_C@_0HB@DGJAHOO@C?3?2Users?2lukas?4ternelius?2Deskto@ 00000001801e1d40     GuFactory.obj
 0002:00007dc0       ?reductionFactors@SubSortQuick@physx@@2QBMB 00000001801e1dc0     GuRTreeCooking.obj
 0002:00007dd0       ?stopAtTrisPerLeaf1@SubSortQuick@physx@@2QBIB 00000001801e1dd0     GuRTreeCooking.obj
 0002:00007ea0       ??_C@_0HO@EBDCNFOK@C?3?2Users?2lukas?4ternelius?2Deskto@ 00000001801e1ea0     GuRTreeCooking.obj
 0002:00007f20       __real@41100000            00000001801e1f20     GuRTreeCooking.obj
 0002:00007f24       __real@41700000            00000001801e1f24     GuRTreeCooking.obj
 0002:00007f28       __real@42200000            00000001801e1f28     GuRTreeCooking.obj
 0002:00007f30       __xmm@00000004000000030000000200000001 00000001801e1f30     GuRTreeCooking.obj
 0002:00007f60       ??_C@_0HM@EDKCFCKN@C?3?2Users?2lukas?4ternelius?2Deskto@ 00000001801e1f60     GuCookingBVH.obj
 0002:00007fe0       ??_C@_0DL@JHPKHGFA@Cooking?3?3cookBVH?3?5user?9provided@ 00000001801e1fe0     GuCookingBVH.obj
 0002:00008020       ??_C@_0DN@PLNPGFEB@Cooking?3?3createBVH?3?5user?9provid@ 00000001801e2020     GuCookingBVH.obj
 0002:00008060       ??_C@_0EL@JCJBAPHL@Cooking?3?3cookHeightField?3?5user?9@ 00000001801e2060     GuCookingHF.obj
 0002:000080b0       ??_C@_0HL@FNHEPEKF@C?3?2Users?2lukas?4ternelius?2Deskto@ 00000001801e20b0     GuCookingHF.obj
 0002:00008130       ??_C@_0EN@FCEPCAFC@Cooking?3?3createHeightField?3?5use@ 00000001801e2130     GuCookingHF.obj
 0002:00008180       ??_C@_0EK@EKAIJEBL@Cooking?3?3cookConvexMesh?3?5user?9p@ 00000001801e2180     GuCookingConvexMesh.obj
 0002:000081d0       ??_C@_0FA@GFFGAPML@Cooking?3?3cookConvexMesh?3?5provid@ 00000001801e21d0     GuCookingConvexMesh.obj
 0002:00008220       ??_C@_0EP@PKDCPNNO@Cooking?3?3cookConvexMesh?3?5provid@ 00000001801e2220     GuCookingConvexMesh.obj
 0002:00008270       ??_C@_0EO@LKFMMDE@Cooking?3?3cookConvexMesh?3?5user?9p@ 00000001801e2270     GuCookingConvexMesh.obj
 0002:000082c0       ??_C@_0EL@KJEPJALG@Cooking?3?3cookConvexMesh?3?5user?9p@ 00000001801e22c0     GuCookingConvexMesh.obj
 0002:00008310       ??_C@_0FM@LHMEBKMM@Cooking?3?3cookConvexMesh?3?5GPU?9co@ 00000001801e2310     GuCookingConvexMesh.obj
 0002:00008370       ??_C@_0FJ@FHCFFABE@Cooking?3?3cookConvexMesh?3?5GPU?9co@ 00000001801e2370     GuCookingConvexMesh.obj
 0002:000083d0       ??_C@_0LM@CHONPBFM@Cooking?3?3cookConvexMesh?3?5GPU?9co@ 00000001801e23d0     GuCookingConvexMesh.obj
 0002:00008490       ??_C@_0ID@NIHHGEPD@C?3?2Users?2lukas?4ternelius?2Deskto@ 00000001801e2490     GuCookingConvexMesh.obj
 0002:00008540       ??_7TriangleMeshBuilder@physx@@6B@ 00000001801e2540     GuCookingTriangleMesh.obj
 0002:00008568       ??_7RTreeTriangleMeshBuilder@physx@@6B@ 00000001801e2568     GuCookingTriangleMesh.obj
 0002:00008590       ??_7BV4TriangleMeshBuilder@physx@@6B@ 00000001801e2590     GuCookingTriangleMesh.obj
 0002:000085c0       ??_C@_0IF@LLLMGO@C?3?2Users?2lukas?4ternelius?2Deskto@ 00000001801e25c0     GuCookingTriangleMesh.obj
 0002:00008650       ??_C@_0EM@DBPINPE@TriangleMeshBuilder?3?3cleanMesh?3@ 00000001801e2650     GuCookingTriangleMesh.obj
 0002:000086a0       ??_C@_0EF@MLNDPEDJ@TriangleMeshBuilder?3?3cleanMesh?3@ 00000001801e26a0     GuCookingTriangleMesh.obj
 0002:000086f0       ??_C@_0FJ@HHJLKGDF@TriangleMesh?3?5triangles?5are?5too@ 00000001801e26f0     GuCookingTriangleMesh.obj
 0002:00008750       ??_C@_0CN@KGPHHHLK@TriangleMesh?3?5mesh?5is?5too?5big?5f@ 00000001801e2750     GuCookingTriangleMesh.obj
 0002:00008780       ??_C@_0DD@CMJGDCNN@TriangleMesh?3?3loadFromDesc?3?5des@ 00000001801e2780     GuCookingTriangleMesh.obj
 0002:000087c0       ??_C@_0ED@ILJJNHIP@TriangleMesh?3?3loadFromDesc?3?5mPa@ 00000001801e27c0     GuCookingTriangleMesh.obj
 0002:00008808       ??_C@_0BK@JIDHMMCE@BV4?5tree?5failed?5to?5build?4@ 00000001801e2808     GuCookingTriangleMesh.obj
 0002:00008828       ??_C@_0BL@DHNECNBE@BV32?5tree?5failed?5to?5build?4@ 00000001801e2828     GuCookingTriangleMesh.obj
 0002:00008848       ??_7RTreeCookerRemap@@6B@  00000001801e2848     GuCookingTriangleMesh.obj
 0002:00008860       ??_C@_0FC@PJIHAFK@Cooking?3?3validateTriangleMesh?3?5@ 00000001801e2860     GuCookingTriangleMesh.obj
 0002:00008940       ??_7PxCollisionTetrahedronMeshData@physx@@6B@ 00000001801e2940     GuCookingTetrahedronMesh.obj
 0002:00008970       ??_7PxSimulationTetrahedronMeshData@physx@@6B@ 00000001801e2970     GuCookingTetrahedronMesh.obj
 0002:00008990       ??_7CollisionTetrahedronMeshData@Gu@physx@@6B@ 00000001801e2990     GuCookingTetrahedronMesh.obj
 0002:000089c0       ??_7SimulationTetrahedronMeshData@Gu@physx@@6B@ 00000001801e29c0     GuCookingTetrahedronMesh.obj
 0002:000089e0       ??_C@_0II@IIGBMIJE@C?3?2Users?2lukas?4ternelius?2Deskto@ 00000001801e29e0     GuCookingTetrahedronMesh.obj
 0002:00008a68       ??_7?$LocalConvex@VTetrahedronV@Gu@physx@@@Gu@physx@@6B@ 00000001801e2a68     GuCookingTetrahedronMesh.obj
 0002:00008a98       ??_C@_0CD@OJGNHLOE@BV4_AABBTree?5tree?5failed?5to?5bui@ 00000001801e2a98     GuCookingTetrahedronMesh.obj
 0002:00008ac0       ??_C@_0DG@NCNIEEHB@TetrahedronMesh?3?3loadFromDesc?3?5@ 00000001801e2ac0     GuCookingTetrahedronMesh.obj
 0002:00008b00       ??_C@_0EG@CJIFGLMC@TetrahedronMesh?3?3loadFromDesc?3?5@ 00000001801e2b00     GuCookingTetrahedronMesh.obj
 0002:00008b48       __real@be2aaaab            00000001801e2b48     GuCookingTetrahedronMesh.obj
 0002:00008b50       __xmm@00000003000000030000000300000003 00000001801e2b50     GuCookingTetrahedronMesh.obj
 0002:00008b80       __real@3bc79ca10c924223    00000001801e2b80     GuCookingVolumeIntegration.obj
 0002:00008b88       __real@3f91111111111111    00000001801e2b88     GuCookingVolumeIntegration.obj
 0002:00008b90       __real@3fa5555555555555    00000001801e2b90     GuCookingVolumeIntegration.obj
 0002:00008b98       __real@3fa999999999999a    00000001801e2b98     GuCookingVolumeIntegration.obj
 0002:00008ba0       __real@3fb5555555555555    00000001801e2ba0     GuCookingVolumeIntegration.obj
 0002:00008ba8       __real@3fc5555555555555    00000001801e2ba8     GuCookingVolumeIntegration.obj
 0002:00008bb0       __real@3fe0000000000000    00000001801e2bb0     GuCookingVolumeIntegration.obj
 0002:00008bb8       __real@3ff0000000000000    00000001801e2bb8     GuCookingVolumeIntegration.obj
 0002:00008bc0       __real@4008000000000000    00000001801e2bc0     GuCookingVolumeIntegration.obj
 0002:00008bc8       __real@4010000000000000    00000001801e2bc8     GuCookingVolumeIntegration.obj
 0002:00008bd0       __real@bf91111111111111    00000001801e2bd0     GuCookingVolumeIntegration.obj
 0002:00008bd8       __real@bfa999999999999a    00000001801e2bd8     GuCookingVolumeIntegration.obj
 0002:00008be0       __real@bfb5555555555555    00000001801e2be0     GuCookingVolumeIntegration.obj
 0002:00008be8       __real@bfc5555555555555    00000001801e2be8     GuCookingVolumeIntegration.obj
 0002:00008bf0       __xmm@3c0888893c0888893c0888893c088889 00000001801e2bf0     GuCookingVolumeIntegration.obj
 0002:00008c00       __xmm@3c8888893c8888893c8888893c888889 00000001801e2c00     GuCookingVolumeIntegration.obj
 0002:00008c10       __xmm@3d2aaaab3d2aaaab3d2aaaab3d2aaaab 00000001801e2c10     GuCookingVolumeIntegration.obj
 0002:00008c20       __xmm@3e2aaaab3e2aaaab3e2aaaab3e2aaaab 00000001801e2c20     GuCookingVolumeIntegration.obj
 0002:00008c30       __xmm@3f811111111111113f81111111111111 00000001801e2c30     GuCookingVolumeIntegration.obj
 0002:00008c40       __xmm@3f811111111111113f91111111111111 00000001801e2c40     GuCookingVolumeIntegration.obj
 0002:00008c50       __xmm@3f911111111111113f91111111111111 00000001801e2c50     GuCookingVolumeIntegration.obj
 0002:00008c60       __xmm@3fa55555555555553fa5555555555555 00000001801e2c60     GuCookingVolumeIntegration.obj
 0002:00008c70       __xmm@3fa55555555555553fc5555555555555 00000001801e2c70     GuCookingVolumeIntegration.obj
 0002:00008c80       __xmm@3fd55555555555553fd5555555555555 00000001801e2c80     GuCookingVolumeIntegration.obj
 0002:00008c90       __xmm@3fe00000000000003fe0000000000000 00000001801e2c90     GuCookingVolumeIntegration.obj
 0002:00008ca0       __xmm@7fffffffffffffff7fffffffffffffff 00000001801e2ca0     GuCookingVolumeIntegration.obj
 0002:00008cb0       __xmm@80000000000000008000000000000000 00000001801e2cb0     GuCookingVolumeIntegration.obj
 0002:00008cc0       ??_7ConvexHullLib@physx@@6B@ 00000001801e2cc0     GuCookingQuickHullConvexHullLib.obj
 0002:00008ce0       ??_7QuickHullConvexHullLib@physx@@6B@ 00000001801e2ce0     GuCookingQuickHullConvexHullLib.obj
 0002:00008d00       ??_C@_0IP@FHIIOEBD@C?3?2Users?2lukas?4ternelius?2Deskto@ 00000001801e2d00     GuCookingQuickHullConvexHullLib.obj
 0002:00008d90       ??_C@_0GA@EPPAEJPM@QuickHullConvexHullLib?3?3findSim@ 00000001801e2d90     GuCookingQuickHullConvexHullLib.obj
 0002:00008df0       ??_C@_0FB@NEBIJMML@QuickHullConvexHullLib?3?3findSim@ 00000001801e2df0     GuCookingQuickHullConvexHullLib.obj
 0002:00008e50       ??_C@_0FB@CLLCBEMM@QuickHullConvexHullLib?3?3findSim@ 00000001801e2e50     GuCookingQuickHullConvexHullLib.obj
 0002:00008ea4       __real@34c00000            00000001801e2ea4     GuCookingQuickHullConvexHullLib.obj
 0002:00008ea8       ??_C@_0DP@PJBJBEGF@Meshmerizer?3?3extractHullPolygon@ 00000001801e2ea8     GuCookingConvexPolygonsBuilder.obj
 0002:00008ef0       ??_C@_0IO@GPEMBNLB@C?3?2Users?2lukas?4ternelius?2Deskto@ 00000001801e2ef0     GuCookingConvexPolygonsBuilder.obj
 0002:00008f80       ??_C@_0DL@IAFKOCCK@ConvexHullBuilder?3?5convex?5hull?5@ 00000001801e2f80     GuCookingConvexPolygonsBuilder.obj
 0002:00008fc0       ??_C@_0GF@OJLJHAMH@ConvexHullBuilder?3?3CreateTriang@ 00000001801e2fc0     GuCookingConvexPolygonsBuilder.obj
 0002:00009050       ??_C@_0DF@LLFJIJGM@Gu?3?3ConvexMesh?3?3loadFromDesc?3?5d@ 00000001801e3050     GuCookingConvexMeshBuilder.obj
 0002:00009090       ??_C@_0HK@JOGKIEAA@Gu?3?3ConvexMesh?3?5Mesh?5has?5a?5nega@ 00000001801e3090     GuCookingConvexMeshBuilder.obj
 0002:00009110       ??_C@_0DH@NJPPHFFD@Gu?3?3ConvexMesh?3?5Error?5computing@ 00000001801e3110     GuCookingConvexMeshBuilder.obj
 0002:00009148       ??_C@_0DJ@LJDLGLDJ@Gu?3?3ConvexMesh?3?3loadConvexHull?3@ 00000001801e3148     GuCookingConvexMeshBuilder.obj
 0002:00009190       ??_C@_0HJ@KJANPPOE@ConvexMeshBuilder?3?3computeHullP@ 00000001801e3190     GuCookingConvexMeshBuilder.obj
 0002:00009210       ??_C@_0IK@HDNMENAA@C?3?2Users?2lukas?4ternelius?2Deskto@ 00000001801e3210     GuCookingConvexMeshBuilder.obj
 0002:000092a0       ??_C@_0O@JMAGMMGG@PxHullPolygon@ 00000001801e32a0     GuCookingConvexMeshBuilder.obj
 0002:000092b0       __real@3f13cd3a            00000001801e32b0     GuCookingConvexMeshBuilder.obj
 0002:000092e0       ??_C@_0II@PJOGJIIP@C?3?2Users?2lukas?4ternelius?2Deskto@ 00000001801e32e0     GuCookingConvexHullUtils.obj
 0002:00009368       __real@3e20d97c            00000001801e3368     GuCookingConvexHullUtils.obj
 0002:00009370       ??_C@_0IG@GILANMCG@C?3?2Users?2lukas?4ternelius?2Deskto@ 00000001801e3370     GuCookingConvexHullLib.obj
 0002:00009400       ??_C@_0JE@PABBNGEL@ConvexHullLib?3?3cleanupVertices?3@ 00000001801e3400     GuCookingConvexHullLib.obj
 0002:000094c0       ??_C@_0IK@LNHIONFF@C?3?2Users?2lukas?4ternelius?2Deskto@ 00000001801e34c0     GuCookingConvexHullBuilder.obj
 0002:00009550       ??_C@_0EB@DCEIFDGC@ConvexHullBuilder?3?3init?3?5convex@ 00000001801e3550     GuCookingConvexHullBuilder.obj
 0002:000095a0       ??_C@_0FM@KICBLCBH@Gu?3?3ConvexMesh?3?3checkHullPolygo@ 00000001801e35a0     GuCookingConvexHullBuilder.obj
 0002:00009600       ??_C@_0GO@HBFIOGLL@Gu?3?3ConvexMesh?3?3checkHullPolygo@ 00000001801e3600     GuCookingConvexHullBuilder.obj
 0002:00009670       ??_C@_0HF@OLJFBIEL@ConvexHullBuilder?3?5convex?5hull?5@ 00000001801e3670     GuCookingConvexHullBuilder.obj
 0002:000096f0       ??_C@_0OG@JNHFOIL@ConvexHullBuilder?3?5convex?5hull?5@ 00000001801e36f0     GuCookingConvexHullBuilder.obj
 0002:000097e0       ??_C@_0EJ@NIOIBAKH@Cooking?3?3cookConvexMesh?3?5non?9ma@ 00000001801e37e0     GuCookingConvexHullBuilder.obj
 0002:00009850       ??_C@_0IN@OMJDMBMF@C?3?2Users?2lukas?4ternelius?2Deskto@ 00000001801e3850     GuCookingBigConvexDataBuilder.obj
 0002:000098e0       __sz_PhysXFoundation_64_dll 00000001801e38e0     PhysXFoundation_64:PhysXFoundation_64.dll
 0002:000098f8       ??_C@_1BK@DBDEIDLH@?$AAK?$AAE?$AAR?$AAN?$AAE?$AAL?$AA3?$AA2?$AA?4?$AAD?$AAL?$AAL@ 00000001801e38f8     Delayimp:delayhlp.obj
 0002:00009918       ??_C@_0BI@OMNLIJDB@AcquireSRWLockExclusive@ 00000001801e3918     Delayimp:delayhlp.obj
 0002:00009930       ??_C@_0BI@HMIEPCNJ@ReleaseSRWLockExclusive@ 00000001801e3930     Delayimp:delayhlp.obj
 0002:00009948       __pfnDliFailureHook2       00000001801e3948     Delayimp:delayhk1.obj
 0002:00009958       ??_7type_info@@6B@         00000001801e3958     LIBCMT:std_type_info_static.obj
 0002:000099c0       _pDefaultRawDllMain        00000001801e39c0     LIBCMT:dll_dllmain.obj
 0002:000099c0       _pRawDllMain               00000001801e39c0     LIBCMT:dll_dllmain.obj
 0002:000099d0       _load_config_used          00000001801e39d0     LIBCMT:loadcfg.obj
 0002:00009b10       _pDestructExceptionObject  00000001801e3b10     libvcruntime:ehhelpers.obj
 0002:0000a230       ??_C@_08EHJDFFNH@__based?$CI@ 00000001801e4230     libvcruntime:undname.obj
 0002:0000a240       ??_C@_07KOLFKCDI@__cdecl@  00000001801e4240     libvcruntime:undname.obj
 0002:0000a248       ??_C@_08GHMPAG@__pascal@   00000001801e4248     libvcruntime:undname.obj
 0002:0000a258       ??_C@_09IFJBGAPI@__stdcall@ 00000001801e4258     libvcruntime:undname.obj
 0002:0000a268       ??_C@_0L@NPHFGOKO@__thiscall@ 00000001801e4268     libvcruntime:undname.obj
 0002:0000a278       ??_C@_0L@JMKHOMEK@__fastcall@ 00000001801e4278     libvcruntime:undname.obj
 0002:0000a288       ??_C@_0N@BCKKPABJ@__vectorcall@ 00000001801e4288     libvcruntime:undname.obj
 0002:0000a298       ??_C@_09HIJEGCPM@__clrcall@ 00000001801e4298     libvcruntime:undname.obj
 0002:0000a2a4       ??_C@_06GHPCKEAG@__eabi@   00000001801e42a4     libvcruntime:undname.obj
 0002:0000a2b0       ??_C@_09IOPIDJLG@__swift_1@ 00000001801e42b0     libvcruntime:undname.obj
 0002:0000a2c0       ??_C@_09KFNFGKHF@__swift_2@ 00000001801e42c0     libvcruntime:undname.obj
 0002:0000a2d0       ??_C@_09LMMOFLDE@__swift_3@ 00000001801e42d0     libvcruntime:undname.obj
 0002:0000a2e0       ??_C@_07JOMMBBKO@__ptr64@  00000001801e42e0     libvcruntime:undname.obj
 0002:0000a2e8       ??_C@_0L@PILCLIHE@__restrict@ 00000001801e42e8     libvcruntime:undname.obj
 0002:0000a2f8       ??_C@_0M@GFIIJFMG@__unaligned@ 00000001801e42f8     libvcruntime:undname.obj
 0002:0000a308       ??_C@_09DHDLOLLB@restrict?$CI@ 00000001801e4308     libvcruntime:undname.obj
 0002:0000a314       ??_C@_04NIHEBCM@?5new@     00000001801e4314     libvcruntime:undname.obj
 0002:0000a320       ??_C@_07FPCDHGMM@?5delete@ 00000001801e4320     libvcruntime:undname.obj
 0002:0000a328       ??_C@_01NEMOKFLO@?$DN@     00000001801e4328     libvcruntime:undname.obj
 0002:0000a32c       ??_C@_02GPIOPFAK@?$DO?$DO@ 00000001801e432c     libvcruntime:undname.obj
 0002:0000a330       ??_C@_02FODMEDOG@?$DM?$DM@ 00000001801e4330     libvcruntime:undname.obj
 0002:0000a334       ??_C@_01DCLJPIOD@?$CB@     00000001801e4334     libvcruntime:undname.obj
 0002:0000a338       ??_C@_02EGOFBIJA@?$DN?$DN@ 00000001801e4338     libvcruntime:undname.obj
 0002:0000a33c       ??_C@_02FDNJECIE@?$CB?$DN@ 00000001801e433c     libvcruntime:undname.obj
 0002:0000a340       ??_C@_02GPECMEKF@?$FL?$FN@ 00000001801e4340     libvcruntime:undname.obj
 0002:0000a348       ??_C@_08LHJFAFGD@operator@ 00000001801e4348     libvcruntime:undname.obj
 0002:0000a354       ??_C@_02HBOOOICD@?9?$DO@   00000001801e4354     libvcruntime:undname.obj
 0002:0000a358       ??_C@_01NBENCBCI@?$CK@     00000001801e4358     libvcruntime:undname.obj
 0002:0000a35c       ??_C@_02ECNGHCIF@?$CL?$CL@ 00000001801e435c     libvcruntime:undname.obj
 0002:0000a360       ??_C@_02BAABKJLB@?9?9@     00000001801e4360     libvcruntime:undname.obj
 0002:0000a364       ??_C@_01JOAMLHOP@?9@       00000001801e4364     libvcruntime:undname.obj
 0002:0000a368       ??_C@_01MIFGBAGJ@?$CL@     00000001801e4368     libvcruntime:undname.obj
 0002:0000a36c       ??_C@_01HNPIGOCE@?$CG@     00000001801e436c     libvcruntime:undname.obj
 0002:0000a370       ??_C@_03MNHNFDLC@?9?$DO?$CK@ 00000001801e4370     libvcruntime:undname.obj
 0002:0000a374       ??_C@_01KMDKNFGN@?1@       00000001801e4374     libvcruntime:undname.obj
 0002:0000a378       ??_C@_01FGNFDNOH@?$CF@     00000001801e4378     libvcruntime:undname.obj
 0002:0000a37c       ??_C@_01MNNFJEPP@?$DM@     00000001801e437c     libvcruntime:undname.obj
 0002:0000a380       ??_C@_02EHCHHCKH@?$DM?$DN@ 00000001801e4380     libvcruntime:undname.obj
 0002:0000a384       ??_C@_01PPODPGHN@?$DO@     00000001801e4384     libvcruntime:undname.obj
 0002:0000a388       ??_C@_02EEKDKGMJ@?$DO?$DN@ 00000001801e4388     libvcruntime:undname.obj
 0002:0000a38c       ??_C@_01IHBHIGKO@?0@       00000001801e438c     libvcruntime:undname.obj
 0002:0000a390       ??_C@_02HCKGKOFO@?$CI?$CJ@ 00000001801e4390     libvcruntime:undname.obj
 0002:0000a394       ??_C@_01PJKLJHI@?$HO@      00000001801e4394     libvcruntime:undname.obj
 0002:0000a398       ??_C@_01JKBOJNNK@?$FO@     00000001801e4398     libvcruntime:undname.obj
 0002:0000a39c       ??_C@_01DNKMNLPK@?$HM@     00000001801e439c     libvcruntime:undname.obj
 0002:0000a3a0       ??_C@_02PPKAJPJL@?$CG?$CG@ 00000001801e43a0     libvcruntime:undname.obj
 0002:0000a3a4       ??_C@_02NONPIBCD@?$HM?$HM@ 00000001801e43a4     libvcruntime:undname.obj
 0002:0000a3a8       ??_C@_02FPIMKNGF@?$CK?$DN@ 00000001801e43a8     libvcruntime:undname.obj
 0002:0000a3ac       ??_C@_02FOEOMHFC@?$CL?$DN@ 00000001801e43ac     libvcruntime:undname.obj
 0002:0000a3b0       ??_C@_02FKMDLLOA@?9?$DN@   00000001801e43b0     libvcruntime:undname.obj
 0002:0000a3b4       ??_C@_02FJEHGPIO@?1?$DN@   00000001801e43b4     libvcruntime:undname.obj
 0002:0000a3b8       ??_C@_02FENAOKFI@?$CF?$DN@ 00000001801e43b8     libvcruntime:undname.obj
 0002:0000a3bc       ??_C@_03IKFCCPFF@?$DO?$DO?$DN@ 00000001801e43bc     libvcruntime:undname.obj
 0002:0000a3c0       ??_C@_03CDNPDDLA@?$DM?$DM?$DN@ 00000001801e43c0     libvcruntime:undname.obj
 0002:0000a3c4       ??_C@_02FGJGFEAB@?$CG?$DN@ 00000001801e43c4     libvcruntime:undname.obj
 0002:0000a3c8       ??_C@_02DHLNPPGH@?$HM?$DN@ 00000001801e43c8     libvcruntime:undname.obj
 0002:0000a3cc       ??_C@_02MHEGNOJ@?$FO?$DN@  00000001801e43cc     libvcruntime:undname.obj
 0002:0000a3d0       ??_C@_09IFPLHPGF@?$GAvftable?8@ 00000001801e43d0     libvcruntime:undname.obj
 0002:0000a3e0       ??_C@_09BLBHBJP@?$GAvbtable?8@ 00000001801e43e0     libvcruntime:undname.obj
 0002:0000a3f0       ??_C@_07FEEIOKP@?$GAvcall?8@ 00000001801e43f0     libvcruntime:undname.obj
 0002:0000a3f8       ??_C@_08LLFFHHDJ@?$GAtypeof?8@ 00000001801e43f8     libvcruntime:undname.obj
 0002:0000a408       ??_C@_0BF@KDPPACIK@?$GAlocal?5static?5guard?8@ 00000001801e4408     libvcruntime:undname.obj
 0002:0000a420       ??_C@_08OBABFOLI@?$GAstring?8@ 00000001801e4420     libvcruntime:undname.obj
 0002:0000a430       ??_C@_0BD@JDLKDPAB@?$GAvbase?5destructor?8@ 00000001801e4430     libvcruntime:undname.obj
 0002:0000a448       ??_C@_0BN@DEGPLNFK@?$GAvector?5deleting?5destructor?8@ 00000001801e4448     libvcruntime:undname.obj
 0002:0000a468       ??_C@_0BO@OBMKPJIG@?$GAdefault?5constructor?5closure?8@ 00000001801e4468     libvcruntime:undname.obj
 0002:0000a488       ??_C@_0BN@IMDCHIKM@?$GAscalar?5deleting?5destructor?8@ 00000001801e4488     libvcruntime:undname.obj
 0002:0000a4a8       ??_C@_0BO@PFGOCPJJ@?$GAvector?5constructor?5iterator?8@ 00000001801e44a8     libvcruntime:undname.obj
 0002:0000a4c8       ??_C@_0BN@LFPFMEDL@?$GAvector?5destructor?5iterator?8@ 00000001801e44c8     libvcruntime:undname.obj
 0002:0000a4e8       ??_C@_0CE@IKBNEHA@?$GAvector?5vbase?5constructor?5itera@ 00000001801e44e8     libvcruntime:undname.obj
 0002:0000a510       ??_C@_0BL@NILFHHPC@?$GAvirtual?5displacement?5map?8@ 00000001801e4510     libvcruntime:undname.obj
 0002:0000a530       ??_C@_0CB@JONCMFFK@?$GAeh?5vector?5constructor?5iterator@ 00000001801e4530     libvcruntime:undname.obj
 0002:0000a558       ??_C@_0CA@GCEOPDGL@?$GAeh?5vector?5destructor?5iterator?8@ 00000001801e4558     libvcruntime:undname.obj
 0002:0000a578       ??_C@_0CH@OOJPLCPH@?$GAeh?5vector?5vbase?5constructor?5it@ 00000001801e4578     libvcruntime:undname.obj
 0002:0000a5a0       ??_C@_0BL@LLKPOHJI@?$GAcopy?5constructor?5closure?8@ 00000001801e45a0     libvcruntime:undname.obj
 0002:0000a5c0       ??_C@_0BA@KBCDOMBN@?$GAudt?5returning?8@ 00000001801e45c0     libvcruntime:undname.obj
 0002:0000a5d0       ??_C@_03KLGMFNMG@?$GAEH@   00000001801e45d0     libvcruntime:undname.obj
 0002:0000a5d4       ??_C@_05KHLCHHI@?$GARTTI@  00000001801e45d4     libvcruntime:undname.obj
 0002:0000a5e0       ??_C@_0BA@KKLDJDLB@?$GAlocal?5vftable?8@ 00000001801e45e0     libvcruntime:undname.obj
 0002:0000a5f0       ??_C@_0CE@IIHCMGGL@?$GAlocal?5vftable?5constructor?5clos@ 00000001801e45f0     libvcruntime:undname.obj
 0002:0000a614       ??_C@_06FHBGPFGH@?5new?$FL?$FN@ 00000001801e4614     libvcruntime:undname.obj
 0002:0000a620       ??_C@_09LBNFPBCA@?5delete?$FL?$FN@ 00000001801e4620     libvcruntime:undname.obj
 0002:0000a630       ??_C@_0P@HJKNJFNN@?$GAomni?5callsig?8@ 00000001801e4630     libvcruntime:undname.obj
 0002:0000a640       ??_C@_0BL@CNOONJFP@?$GAplacement?5delete?5closure?8@ 00000001801e4640     libvcruntime:undname.obj
 0002:0000a660       ??_C@_0BN@CKNJLHMB@?$GAplacement?5delete?$FL?$FN?5closure?8@ 00000001801e4660     libvcruntime:undname.obj
 0002:0000a680       ??_C@_0CG@CFDHKGGD@?$GAmanaged?5vector?5constructor?5ite@ 00000001801e4680     libvcruntime:undname.obj
 0002:0000a6a8       ??_C@_0CF@IMGKMJNO@?$GAmanaged?5vector?5destructor?5iter@ 00000001801e46a8     libvcruntime:undname.obj
 0002:0000a6d0       ??_C@_0CG@HLDDJMAG@?$GAeh?5vector?5copy?5constructor?5ite@ 00000001801e46d0     libvcruntime:undname.obj
 0002:0000a6f8       ??_C@_0CM@FCBBDIGB@?$GAeh?5vector?5vbase?5copy?5construct@ 00000001801e46f8     libvcruntime:undname.obj
 0002:0000a728       ??_C@_0BL@CLIPGLGB@?$GAdynamic?5initializer?5for?5?8@ 00000001801e4728     libvcruntime:undname.obj
 0002:0000a748       ??_C@_0CB@PDBIFEP@?$GAdynamic?5atexit?5destructor?5for?5@ 00000001801e4748     libvcruntime:undname.obj
 0002:0000a770       ??_C@_0CD@CGAJBKEJ@?$GAvector?5copy?5constructor?5iterat@ 00000001801e4770     libvcruntime:undname.obj
 0002:0000a798       ??_C@_0CJ@GJELGAMM@?$GAvector?5vbase?5copy?5constructor?5@ 00000001801e4798     libvcruntime:undname.obj
 0002:0000a7c8       ??_C@_0CL@FGIJHLCE@?$GAmanaged?5vector?5copy?5constructo@ 00000001801e47c8     libvcruntime:undname.obj
 0002:0000a7f8       ??_C@_0BM@PMGGMLDN@?$GAlocal?5static?5thread?5guard?8@ 00000001801e47f8     libvcruntime:undname.obj
 0002:0000a818       ??_C@_0N@BDNMDMOL@operator?5?$CC?$CC?5@ 00000001801e4818     libvcruntime:undname.obj
 0002:0000a828       ??_C@_0BC@GGEBGALA@operator?5co_await@ 00000001801e4828     libvcruntime:undname.obj
 0002:0000a840       ??_C@_0M@GAAIMMOH@operator?$DM?$DN?$DO@ 00000001801e4840     libvcruntime:undname.obj
 0002:0000a850       ??_C@_0BC@DAFEJGAK@?5Type?5Descriptor?8@ 00000001801e4850     libvcruntime:undname.obj
 0002:0000a868       ??_C@_0BM@LDKODKLH@?5Base?5Class?5Descriptor?5at?5?$CI@ 00000001801e4868     libvcruntime:undname.obj
 0002:0000a888       ??_C@_0BD@LGICGFMM@?5Base?5Class?5Array?8@ 00000001801e4888     libvcruntime:undname.obj
 0002:0000a8a0       ??_C@_0BN@MECKDCOJ@?5Class?5Hierarchy?5Descriptor?8@ 00000001801e48a0     libvcruntime:undname.obj
 0002:0000a8c0       ??_C@_0BK@CFCOFLF@?5Complete?5Object?5Locator?8@ 00000001801e48c0     libvcruntime:undname.obj
 0002:0000a8e0       ??_C@_0BG@JNJLAMPM@?$GAanonymous?5namespace?8@ 00000001801e48e0     libvcruntime:undname.obj
 0002:0000a8f8       ??_C@_04HEJADOOB@CV?3?5@   00000001801e48f8     libvcruntime:undname.obj
 0002:0000a900       ??_C@_02MOLJINC@?3?3@      00000001801e4900     libvcruntime:undname.obj
 0002:0000a908       ??_C@_0BE@JAEOCHPE@template?9parameter?9@ 00000001801e4908     libvcruntime:undname.obj
 0002:0000a920       ??_C@_0BF@LNLGBBNL@?$GAtemplate?9parameter?9@ 00000001801e4920     libvcruntime:undname.obj
 0002:0000a938       ??_C@_0O@KHGCOMHP@generic?9type?9@ 00000001801e4938     libvcruntime:undname.obj
 0002:0000a948       ??_C@_0P@ODDENDLM@?$GAgeneric?9type?9@ 00000001801e4948     libvcruntime:undname.obj
 0002:0000a958       ??_C@_02OHHJMEON@?8?8@     00000001801e4958     libvcruntime:undname.obj
 0002:0000a960       ??_C@_0BN@IBLMMFAP@?$GAnon?9type?9template?9parameter@ 00000001801e4960     libvcruntime:undname.obj
 0002:0000a980       ??_C@_03DLDNIBIK@?$CFlf@   00000001801e4980     libvcruntime:undname.obj
 0002:0000a984       ??_C@_04OFALKAJ@?$DP?$DP_C@ 00000001801e4984     libvcruntime:undname.obj
 0002:0000a98c       ??_C@_03KHICJKCI@?4?4?4@   00000001801e498c     libvcruntime:undname.obj
 0002:0000a990       ??_C@_04HIBGFPH@NULL@      00000001801e4990     libvcruntime:undname.obj
 0002:0000a998       ??_C@_02DPKJAMEF@?$CFd@    00000001801e4998     libvcruntime:undname.obj
 0002:0000a9a0       ??_C@_0BK@IHCCFNEL@?$GAtemplate?9type?9parameter?9@ 00000001801e49a0     libvcruntime:undname.obj
 0002:0000a9c0       ??_C@_0BK@OFCNNNKO@?$GAgeneric?9class?9parameter?9@ 00000001801e49c0     libvcruntime:undname.obj
 0002:0000a9e0       ??_C@_0BL@NGJBLFIL@?$GAgeneric?9method?9parameter?9@ 00000001801e49e0     libvcruntime:undname.obj
 0002:0000aa00       ??_C@_07OHNGEDJK@nullptr@  00000001801e4a00     libvcruntime:undname.obj
 0002:0000aa08       ??_C@_06COJIGPIB@lambda@   00000001801e4a08     libvcruntime:undname.obj
 0002:0000aa10       ??_C@_0BE@EODMJLIF@?$GAtemplate?9parameter@ 00000001801e4a10     libvcruntime:undname.obj
 0002:0000aa24       ??_C@_03OPGICMGF@?$HN?8?5@ 00000001801e4a24     libvcruntime:undname.obj
 0002:0000aa28       ??_C@_02IGFCGPIL@?$HN?8@   00000001801e4a28     libvcruntime:undname.obj
 0002:0000aa30       ??_C@_0N@CBHHHENL@?$GAvtordispex?$HL@ 00000001801e4a30     libvcruntime:undname.obj
 0002:0000aa40       ??_C@_0L@GHPFDFH@?$GAvtordisp?$HL@ 00000001801e4a40     libvcruntime:undname.obj
 0002:0000aa50       ??_C@_0L@HNGCOGAE@?$GAadjustor?$HL@ 00000001801e4a50     libvcruntime:undname.obj
 0002:0000aa60       ??_C@_0CB@KJDOOODE@?$GAlocal?5static?5destructor?5helper@ 00000001801e4a60     libvcruntime:undname.obj
 0002:0000aa88       ??_C@_0DB@ILEFOCIJ@?$GAtemplate?5static?5data?5member?5co@ 00000001801e4a88     libvcruntime:undname.obj
 0002:0000aac0       ??_C@_0DA@HGFJFBBE@?$GAtemplate?5static?5data?5member?5de@ 00000001801e4ac0     libvcruntime:undname.obj
 0002:0000aaf0       ??_C@_07PGOEDBHP@static?5@ 00000001801e4af0     libvcruntime:undname.obj
 0002:0000aaf8       ??_C@_08NIEOINHE@virtual?5@ 00000001801e4af8     libvcruntime:undname.obj
 0002:0000ab08       ??_C@_09LAPHOOG@private?3?5@ 00000001801e4b08     libvcruntime:undname.obj
 0002:0000ab18       ??_C@_0M@GAIFPFIP@protected?3?5@ 00000001801e4b18     libvcruntime:undname.obj
 0002:0000ab28       ??_C@_08GPDDCMKI@public?3?5@ 00000001801e4b28     libvcruntime:undname.obj
 0002:0000ab38       ??_C@_08KJLFOPNE@?$FLthunk?$FN?3@ 00000001801e4b38     libvcruntime:undname.obj
 0002:0000ab48       ??_C@_0M@DHNBOJMP@extern?5?$CCC?$CC?5@ 00000001801e4b48     libvcruntime:undname.obj
 0002:0000ab54       ??_C@_02KCKGHPCA@?$CJ?5@   00000001801e4b54     libvcruntime:undname.obj
 0002:0000ab58       ??_C@_05CIHEBHNO@char?5@   00000001801e4b58     libvcruntime:undname.obj
 0002:0000ab60       ??_C@_06EHJMALKF@short?5@  00000001801e4b60     libvcruntime:undname.obj
 0002:0000ab68       ??_C@_04LAHKHJMA@int?5@    00000001801e4b68     libvcruntime:undname.obj
 0002:0000ab70       ??_C@_05CJIMAING@long?5@   00000001801e4b70     libvcruntime:undname.obj
 0002:0000ab78       ??_C@_09EBBEKKIH@unsigned?5@ 00000001801e4b78     libvcruntime:undname.obj
 0002:0000ab84       ??_C@_05BEFAKPML@void?5@   00000001801e4b84     libvcruntime:undname.obj
 0002:0000ab90       ??_C@_09GAIEOBLP@volatile?5@ 00000001801e4b90     libvcruntime:undname.obj
 0002:0000aba0       ??_C@_08PABEKFH@volatile@  00000001801e4ba0     libvcruntime:undname.obj
 0002:0000abb0       ??_C@_0BA@LKIJLKPP@std?3?3nullptr_t?5@ 00000001801e4bb0     libvcruntime:undname.obj
 0002:0000abc0       ??_C@_0P@GCOCNKDM@std?3?3nullptr_t@ 00000001801e4bc0     libvcruntime:undname.obj
 0002:0000abd0       ??_C@_0L@EGPHHEKN@?$DMellipsis?$DO@ 00000001801e4bd0     libvcruntime:undname.obj
 0002:0000abdc       ??_C@_04EENFHACM@?0?4?4?4@ 00000001801e4bdc     libvcruntime:undname.obj
 0002:0000abe8       ??_C@_0M@ELJOJFFH@?0?$DMellipsis?$DO@ 00000001801e4be8     libvcruntime:undname.obj
 0002:0000abf8       ??_C@_09DNHFEOJI@?5noexcept@ 00000001801e4bf8     libvcruntime:undname.obj
 0002:0000ac04       ??_C@_03PBJBJNON@cpu@      00000001801e4c04     libvcruntime:undname.obj
 0002:0000ac08       ??_C@_03DCBBJBAA@amp@      00000001801e4c08     libvcruntime:undname.obj
 0002:0000ac0c       ??_C@_02KEGNLNML@?0?5@     00000001801e4c0c     libvcruntime:undname.obj
 0002:0000ac10       ??_C@_04ENMBGAPA@char@     00000001801e4c10     libvcruntime:undname.obj
 0002:0000ac18       ??_C@_05BFKKPKCG@short@    00000001801e4c18     libvcruntime:undname.obj
 0002:0000ac20       ??_C@_03JBIPMCLC@int@      00000001801e4c20     libvcruntime:undname.obj
 0002:0000ac24       ??_C@_04GOKPGOLB@long@     00000001801e4c24     libvcruntime:undname.obj
 0002:0000ac2c       ??_C@_06BNJCAIGJ@double@   00000001801e4c2c     libvcruntime:undname.obj
 0002:0000ac34       ??_C@_06EBGKOKIG@__int8@   00000001801e4c34     libvcruntime:undname.obj
 0002:0000ac40       ??_C@_07ICFHOGAF@__int16@  00000001801e4c40     libvcruntime:undname.obj
 0002:0000ac48       ??_C@_07OFLPPHGP@__int32@  00000001801e4c48     libvcruntime:undname.obj
 0002:0000ac50       ??_C@_07LFCOJCAC@__int64@  00000001801e4c50     libvcruntime:undname.obj
 0002:0000ac58       ??_C@_08GAHOLHEO@__int128@ 00000001801e4c58     libvcruntime:undname.obj
 0002:0000ac68       ??_C@_09EEKGDCPH@?$DMunknown?$DO@ 00000001801e4c68     libvcruntime:undname.obj
 0002:0000ac78       ??_C@_07CFHGOPCN@char8_t@  00000001801e4c78     libvcruntime:undname.obj
 0002:0000ac80       ??_C@_08HBIPOFJB@char16_t@ 00000001801e4c80     libvcruntime:undname.obj
 0002:0000ac90       ??_C@_08IECNCBKG@char32_t@ 00000001801e4c90     libvcruntime:undname.obj
 0002:0000aca0       ??_C@_07CLGGIAMF@wchar_t@  00000001801e4ca0     libvcruntime:undname.obj
 0002:0000aca8       ??_C@_04HAPDLBFF@auto@     00000001801e4ca8     libvcruntime:undname.obj
 0002:0000acb0       ??_C@_0P@LHCGKIGK@decltype?$CIauto?$CJ@ 00000001801e4cb0     libvcruntime:undname.obj
 0002:0000acc0       ??_C@_05PCNBGHCF@this?5@   00000001801e4cc0     libvcruntime:undname.obj
 0002:0000acc8       ??_C@_06GCICPBLB@__w64?5@  00000001801e4cc8     libvcruntime:undname.obj
 0002:0000acd0       ??_C@_07NFANNNEC@UNKNOWN@  00000001801e4cd0     libvcruntime:undname.obj
 0002:0000acd8       ??_C@_07EDHNAJHC@signed?5@ 00000001801e4cd8     libvcruntime:undname.obj
 0002:0000ace0       ??_C@_05BNCCCJPP@const@    00000001801e4ce0     libvcruntime:undname.obj
 0002:0000ace8       ??_C@_09EFNPDFFP@?5volatile@ 00000001801e4ce8     libvcruntime:undname.obj
 0002:0000acf8       ??_C@_0P@GCIFDJCJ@?$GAunknown?5ecsu?8@ 00000001801e4cf8     libvcruntime:undname.obj
 0002:0000ad08       ??_C@_06MOJHIBMG@union?5@  00000001801e4d08     libvcruntime:undname.obj
 0002:0000ad10       ??_C@_07DIBCDNGL@struct?5@ 00000001801e4d10     libvcruntime:undname.obj
 0002:0000ad18       ??_C@_06LJBABKPM@class?5@  00000001801e4d18     libvcruntime:undname.obj
 0002:0000ad20       ??_C@_08KOFANOFK@coclass?5@ 00000001801e4d20     libvcruntime:undname.obj
 0002:0000ad30       ??_C@_0N@DLIEFKNA@cointerface?5@ 00000001801e4d30     libvcruntime:undname.obj
 0002:0000ad40       ??_C@_05LJGMCFOG@enum?5@   00000001801e4d40     libvcruntime:undname.obj
 0002:0000ad48       ??_C@_06LIJLOJAG@const?5@  00000001801e4d48     libvcruntime:undname.obj
 0002:0000ad50       ??_C@_02KJPKDIBN@?$CG?5@   00000001801e4d50     libvcruntime:undname.obj
 0002:0000ad54       ??_C@_03PCKGMOPB@?$CG?$CG?5@ 00000001801e4d54     libvcruntime:undname.obj
 0002:0000ad58       ??_C@_0M@EALIELKG@cli?3?3array?$DM@ 00000001801e4d58     libvcruntime:undname.obj
 0002:0000ad68       ??_C@_0O@GKABPPIF@cli?3?3pin_ptr?$DM@ 00000001801e4d68     libvcruntime:undname.obj
 0002:0000ad78       ??_C@_02GOGNNPBN@?$CJ?$FL@ 00000001801e4d78     libvcruntime:undname.obj
 0002:0000ad7c       ??_C@_06EEGAIFAK@?$HLflat?$HN@ 00000001801e4d7c     libvcruntime:undname.obj
 0002:0000ad84       ??_C@_05JIBOFOHK@?$HLfor?5@ 00000001801e4d84     libvcruntime:undname.obj
 0002:0000ad8c       ??_C@_02MDINNEEG@s?5@      00000001801e4d8c     libvcruntime:undname.obj
 0002:0000ad98       ??_7charNode@@6B@          00000001801e4d98     libvcruntime:undname.obj
 0002:0000adc0       ??_7pcharNode@@6B@         00000001801e4dc0     libvcruntime:undname.obj
 0002:0000ade8       ??_7pDNameNode@@6B@        00000001801e4de8     libvcruntime:undname.obj
 0002:0000ae10       ??_7DNameStatusNode@@6B@   00000001801e4e10     libvcruntime:undname.obj
 0002:0000ae38       ??_7pairNode@@6B@          00000001801e4e38     libvcruntime:undname.obj
 0002:0000af60       ??_C@_04OKOHEJBO@?5?$DP?$DP?5@ 00000001801e4f60     libvcruntime:undname.obj
 0002:0000af70       ?nodes@?1??make@DNameStatusNode@@SAPEBV2@W4DNameStatus@@@Z@4QBV2@B 00000001801e4f70     libvcruntime:undname.obj
 0002:0000afb0       ?s_negLengthTab@FH4@@3QBCB 00000001801e4fb0     libvcruntime:risctrnsctrl.obj
 0002:0000afc0       ?s_shiftTab@FH4@@3QBEB     00000001801e4fc0     libvcruntime:risctrnsctrl.obj
 0002:0000b120       ??_C@_1DM@KHCHBNEB@?$AAa?$AAp?$AAi?$AA?9?$AAm?$AAs?$AA?9?$AAw?$AAi?$AAn?$AA?9?$AAc?$AAo?$AAr?$AAe@ 00000001801e5120     libvcruntime:winapi_downlevel.obj
 0002:0000b160       ??_C@_1DK@LPPGFMPP@?$AAa?$AAp?$AAi?$AA?9?$AAm?$AAs?$AA?9?$AAw?$AAi?$AAn?$AA?9?$AAc?$AAo?$AAr?$AAe@ 00000001801e5160     libvcruntime:winapi_downlevel.obj
 0002:0000b1a0       ??_C@_1BC@GDMECMAK@?$AAk?$AAe?$AAr?$AAn?$AAe?$AAl?$AA3?$AA2@ 00000001801e51a0     libvcruntime:winapi_downlevel.obj
 0002:0000b1b8       ??_C@_1BA@PFFKHIOG@?$AAa?$AAp?$AAi?$AA?9?$AAm?$AAs?$AA?9@ 00000001801e51b8     libvcruntime:winapi_downlevel.obj
 0002:0000b1d0       ??_C@_08KNHFBNJ@FlsAlloc@  00000001801e51d0     libvcruntime:winapi_downlevel.obj
 0002:0000b1e8       ??_C@_07PEJMOBNF@FlsFree@  00000001801e51e8     libvcruntime:winapi_downlevel.obj
 0002:0000b1f8       ??_C@_0M@GDNOONDI@FlsGetValue@ 00000001801e51f8     libvcruntime:winapi_downlevel.obj
 0002:0000b210       ??_C@_0M@JCPCPOEF@FlsSetValue@ 00000001801e5210     libvcruntime:winapi_downlevel.obj
 0002:0000b228       ??_C@_0BM@HCFOFFN@InitializeCriticalSectionEx@ 00000001801e5228     libvcruntime:winapi_downlevel.obj
 0002:0000b250       ??_7exception@std@@6B@     00000001801e5250     libvcruntime:frame.obj
 0002:0000b260       ??_C@_0BC@EOODALEL@Unknown?5exception@ 00000001801e5260     libvcruntime:frame.obj
 0002:0000b280       ??_7bad_exception@std@@6B@ 00000001801e5280     libvcruntime:frame.obj
 0002:0000b290       ??_C@_0O@DPKOEFFH@bad?5exception@ 00000001801e5290     libvcruntime:frame.obj
 0002:0000b5e0       ?standard_lookup_table_spectre@__crt_stdio_output@@3V?$spectre_mitigated_lookup_table@Ustate_transition_pair@__crt_stdio_output@@$0IA@@1@B 00000001801e55e0     libucrt:output.obj
 0002:0000b6e0       ?format_validation_lookup_table_spectre@__crt_stdio_output@@3V?$spectre_mitigated_lookup_table@Ustate_transition_pair@__crt_stdio_output@@$0IA@@1@B 00000001801e56e0     libucrt:output.obj
 0002:0000b7e0       ??_C@_1O@CEDCILHN@?$AA?$CI?$AAn?$AAu?$AAl?$AAl?$AA?$CJ@ 00000001801e57e0     libucrt:output.obj
 0002:0000b7f0       ??_C@_06OJHGLDPL@?$CInull?$CJ@ 00000001801e57f0     libucrt:output.obj
 0002:0000c888       __real@3f1a36e2eb1c432d    00000001801e6888     libucrt:atan2f.obj
 0002:0000c890       __real@3fb0000000000000    00000001801e6890     libucrt:atan2f.obj
 0002:0000c898       __real@3fc2492482bd6be1    00000001801e6898     libucrt:atan2f.obj
 0002:0000c8a0       __real@3fc99999999643a3    00000001801e68a0     libucrt:atan2f.obj
 0002:0000c8a8       __real@3fd5555555550877    00000001801e68a8     libucrt:atan2f.obj
 0002:0000c8b0       __real@3fd5555555555538    00000001801e68b0     libucrt:atan2f.obj
 0002:0000c8b8       __real@3ff921fb54442d18    00000001801e68b8     libucrt:atan2f.obj
 0002:0000c8c0       __real@400921fb54442d18    00000001801e68c0     libucrt:atan2f.obj
 0002:0000c8c8       __real@40490fdb            00000001801e68c8     libucrt:atan2f.obj
 0002:0000c8d0       __real@4070000000000000    00000001801e68d0     libucrt:atan2f.obj
 0002:0000c8d8       __real@bf490fdb            00000001801e68d8     libucrt:atan2f.obj
 0002:0000c8dc       __real@bfc90fdb            00000001801e68dc     libucrt:atan2f.obj
 0002:0000c8e0       __real@c016cbe4            00000001801e68e0     libucrt:atan2f.obj
 0002:0000c8e4       __real@c0490fdb            00000001801e68e4     libucrt:atan2f.obj
 0002:0000c8e8       ??_C@_05FFFCHCED@acosf@    00000001801e68e8     libucrt:acosf.obj
 0002:0000c8f0       __real@3b81ce6b            00000001801e68f0     libucrt:acosf.obj
 0002:0000c8f8       __real@3c91a62633145c07    00000001801e68f8     libucrt:acosf.obj
 0002:0000c900       __real@3d678bdd            00000001801e6900     libucrt:acosf.obj
 0002:0000c904       __real@3e3c94dc            00000001801e6904     libucrt:acosf.obj
 0002:0000c908       __real@3f561f0d            00000001801e6908     libucrt:acosf.obj
 0002:0000c90c       __real@3f8d6fa5            00000001801e690c     libucrt:acosf.obj
 0002:0000c910       __real@bc5b3fe1            00000001801e6910     libucrt:acosf.obj
 0002:0000c920       __acrt_exception_action_table 00000001801e6920     libucrt:exception_filter.obj
 0002:0000c9e0       __acrt_signal_action_table_count 00000001801e69e0     libucrt:exception_filter.obj
 0002:0000c9e8       __acrt_signal_action_first_fpe_index 00000001801e69e8     libucrt:exception_filter.obj
